
crypto_wallet.elf:     file format elf32-littlenios2
crypto_wallet.elf
architecture: nios2:r1, flags 0x00000112:
EXEC_P, HAS_SYMS, D_PAGED
start address 0x02000244

Program Header:
    LOAD off    0x00001000 vaddr 0x02000000 paddr 0x02000000 align 2**12
         filesz 0x00000020 memsz 0x00000020 flags r-x
    LOAD off    0x00001020 vaddr 0x02000020 paddr 0x02000020 align 2**12
         filesz 0x00006760 memsz 0x00006760 flags r-x
    LOAD off    0x00007780 vaddr 0x02006780 paddr 0x020073a0 align 2**12
         filesz 0x00000c20 memsz 0x00000c20 flags rw-
    LOAD off    0x00008fc0 vaddr 0x02007fc0 paddr 0x02007fc0 align 2**12
         filesz 0x00000000 memsz 0x0000014c flags rw-

Sections:
Idx Name          Size      VMA       LMA       File off  Algn
  0 .entry        00000020  02000000  02000000  00001000  2**5
                  CONTENTS, ALLOC, LOAD, READONLY, CODE
  1 .exceptions   00000224  02000020  02000020  00001020  2**2
                  CONTENTS, ALLOC, LOAD, READONLY, CODE
  2 .text         000064ac  02000244  02000244  00001244  2**2
                  CONTENTS, ALLOC, LOAD, READONLY, CODE
  3 .rodata       00000090  020066f0  020066f0  000076f0  2**2
                  CONTENTS, ALLOC, LOAD, READONLY, DATA
  4 .rwdata       00000c20  02006780  020073a0  00007780  2**2
                  CONTENTS, ALLOC, LOAD, DATA, SMALL_DATA
  5 .bss          0000014c  02007fc0  02007fc0  00008fc0  2**2
                  ALLOC, SMALL_DATA
  6 .sdram        00000000  0200810c  0200810c  000083a0  2**0
                  CONTENTS
  7 .epcs_flash_controller 00000000  04000800  04000800  000083a0  2**0
                  CONTENTS
  8 .comment      00000023  00000000  00000000  000083a0  2**0
                  CONTENTS, READONLY
  9 .debug_aranges 00000a30  00000000  00000000  000083c8  2**3
                  CONTENTS, READONLY, DEBUGGING
 10 .debug_info   00016e1c  00000000  00000000  00008df8  2**0
                  CONTENTS, READONLY, DEBUGGING
 11 .debug_abbrev 00005f4e  00000000  00000000  0001fc14  2**0
                  CONTENTS, READONLY, DEBUGGING
 12 .debug_line   00006a56  00000000  00000000  00025b62  2**0
                  CONTENTS, READONLY, DEBUGGING
 13 .debug_frame  000018e4  00000000  00000000  0002c5b8  2**2
                  CONTENTS, READONLY, DEBUGGING
 14 .debug_str    00002aee  00000000  00000000  0002de9c  2**0
                  CONTENTS, READONLY, DEBUGGING
 15 .debug_loc    00004a4c  00000000  00000000  0003098a  2**0
                  CONTENTS, READONLY, DEBUGGING
 16 .debug_alt_sim_info 00000030  00000000  00000000  000353d8  2**2
                  CONTENTS, READONLY, DEBUGGING
 17 .debug_ranges 00000638  00000000  00000000  00035408  2**3
                  CONTENTS, READONLY, DEBUGGING
 18 .thread_model 00000003  00000000  00000000  00038290  2**0
                  CONTENTS, READONLY
 19 .cpu          00000003  00000000  00000000  00038293  2**0
                  CONTENTS, READONLY
 20 .qsys         00000001  00000000  00000000  00038296  2**0
                  CONTENTS, READONLY
 21 .simulation_enabled 00000001  00000000  00000000  00038297  2**0
                  CONTENTS, READONLY
 22 .sysid_hash   00000004  00000000  00000000  00038298  2**0
                  CONTENTS, READONLY
 23 .sysid_base   00000004  00000000  00000000  0003829c  2**0
                  CONTENTS, READONLY
 24 .sysid_time   00000004  00000000  00000000  000382a0  2**0
                  CONTENTS, READONLY
 25 .stderr_dev   00000006  00000000  00000000  000382a4  2**0
                  CONTENTS, READONLY
 26 .stdin_dev    00000006  00000000  00000000  000382aa  2**0
                  CONTENTS, READONLY
 27 .stdout_dev   00000006  00000000  00000000  000382b0  2**0
                  CONTENTS, READONLY
 28 .sopc_system_name 0000000d  00000000  00000000  000382b6  2**0
                  CONTENTS, READONLY
 29 .sopcinfo     00047820  00000000  00000000  000382c3  2**0
                  CONTENTS, READONLY
SYMBOL TABLE:
02000000 l    d  .entry	00000000 .entry
02000020 l    d  .exceptions	00000000 .exceptions
02000244 l    d  .text	00000000 .text
020066f0 l    d  .rodata	00000000 .rodata
02006780 l    d  .rwdata	00000000 .rwdata
02007fc0 l    d  .bss	00000000 .bss
0200810c l    d  .sdram	00000000 .sdram
04000800 l    d  .epcs_flash_controller	00000000 .epcs_flash_controller
00000000 l    d  .comment	00000000 .comment
00000000 l    d  .debug_aranges	00000000 .debug_aranges
00000000 l    d  .debug_info	00000000 .debug_info
00000000 l    d  .debug_abbrev	00000000 .debug_abbrev
00000000 l    d  .debug_line	00000000 .debug_line
00000000 l    d  .debug_frame	00000000 .debug_frame
00000000 l    d  .debug_str	00000000 .debug_str
00000000 l    d  .debug_loc	00000000 .debug_loc
00000000 l    d  .debug_alt_sim_info	00000000 .debug_alt_sim_info
00000000 l    d  .debug_ranges	00000000 .debug_ranges
00000000 l    df *ABS*	00000000 ../impl/nios_bsp//obj/HAL/src/crt0.o
0200028c l       .text	00000000 alt_after_alt_main
00000000 l    df *ABS*	00000000 alt_irq_handler.c
00000000 l    df *ABS*	00000000 alt_instruction_exception_entry.c
00000000 l    df *ABS*	00000000 main.c
00000000 l    df *ABS*	00000000 puts.c
00000000 l    df *ABS*	00000000 strlen.c
00000000 l    df *ABS*	00000000 findfp.c
02000430 l     F .text	00000008 __fp_unlock
02000444 l     F .text	0000019c __sinit.part.1
020005e0 l     F .text	00000008 __fp_lock
00000000 l    df *ABS*	00000000 fvwrite.c
00000000 l    df *ABS*	00000000 fwalk.c
00000000 l    df *ABS*	00000000 impure.c
02006780 l     O .rwdata	00000424 impure_data
00000000 l    df *ABS*	00000000 mallocr.c
00000000 l    df *ABS*	00000000 memchr.c
00000000 l    df *ABS*	00000000 memcpy.c
00000000 l    df *ABS*	00000000 memmove.c
00000000 l    df *ABS*	00000000 memset.c
00000000 l    df *ABS*	00000000 mallocr.c
00000000 l    df *ABS*	00000000 sbrkr.c
00000000 l    df *ABS*	00000000 stdio.c
00000000 l    df *ABS*	00000000 writer.c
00000000 l    df *ABS*	00000000 wsetup.c
00000000 l    df *ABS*	00000000 closer.c
00000000 l    df *ABS*	00000000 fclose.c
00000000 l    df *ABS*	00000000 fflush.c
00000000 l    df *ABS*	00000000 mallocr.c
00000000 l    df *ABS*	00000000 int_errno.c
00000000 l    df *ABS*	00000000 lseekr.c
00000000 l    df *ABS*	00000000 makebuf.c
00000000 l    df *ABS*	00000000 readr.c
00000000 l    df *ABS*	00000000 fstatr.c
00000000 l    df *ABS*	00000000 isattyr.c
00000000 l    df *ABS*	00000000 lib2-divmod.c
00000000 l    df *ABS*	00000000 alt_close.c
0200308c l     F .text	0000003c alt_get_errno
00000000 l    df *ABS*	00000000 alt_dev.c
02003198 l     F .text	0000002c alt_dev_null_write
00000000 l    df *ABS*	00000000 alt_errno.c
00000000 l    df *ABS*	00000000 alt_fstat.c
020031c4 l     F .text	0000003c alt_get_errno
00000000 l    df *ABS*	00000000 alt_isatty.c
020032b0 l     F .text	0000003c alt_get_errno
00000000 l    df *ABS*	00000000 alt_load.c
02003390 l     F .text	00000068 alt_load_section
00000000 l    df *ABS*	00000000 alt_lseek.c
0200347c l     F .text	0000003c alt_get_errno
00000000 l    df *ABS*	00000000 alt_main.c
00000000 l    df *ABS*	00000000 alt_malloc_lock.c
00000000 l    df *ABS*	00000000 alt_read.c
02003650 l     F .text	0000003c alt_get_errno
00000000 l    df *ABS*	00000000 alt_release_fd.c
00000000 l    df *ABS*	00000000 alt_sbrk.c
02007390 l     O .rwdata	00000004 heap_end
00000000 l    df *ABS*	00000000 alt_write.c
0200389c l     F .text	0000003c alt_get_errno
00000000 l    df *ABS*	00000000 alt_sys_init.c
020039d0 l     F .text	00000034 alt_dev_reg
02007154 l     O .rwdata	000000cc epcs_flash_controller
02007220 l     O .rwdata	000000c4 uart_0
020072e4 l     O .rwdata	0000002c buttons_pi
02007310 l     O .rwdata	0000002c led_po
0200733c l     O .rwdata	0000002c switch_pi
00000000 l    df *ABS*	00000000 altera_avalon_epcs_flash_controller.c
02003ab8 l     F .text	00000034 alt_flash_device_register
02003b40 l     F .text	000003f8 alt_epcs_flash_query
02003f38 l     F .text	000000ec alt_epcs_flash_memcmp
02004310 l     F .text	00000094 alt_epcs_test_address
00000000 l    df *ABS*	00000000 altera_avalon_uart_fd.c
00000000 l    df *ABS*	00000000 altera_avalon_uart_init.c
02004770 l     F .text	0000009c altera_avalon_uart_irq
0200480c l     F .text	000000e4 altera_avalon_uart_rxirq
020048f0 l     F .text	00000148 altera_avalon_uart_txirq
00000000 l    df *ABS*	00000000 altera_avalon_uart_read.c
02004a8c l     F .text	0000003c alt_get_errno
00000000 l    df *ABS*	00000000 altera_avalon_uart_write.c
02004ca4 l     F .text	0000003c alt_get_errno
00000000 l    df *ABS*	00000000 epcs_commands.c
02004ee8 l     F .text	00000038 epcs_test_wip
02004f20 l     F .text	0000003c epcs_await_wip_released
00000000 l    df *ABS*	00000000 alt_dcache_flush_all.c
00000000 l    df *ABS*	00000000 alt_dev_llist_insert.c
02005510 l     F .text	0000003c alt_get_errno
00000000 l    df *ABS*	00000000 alt_do_ctors.c
00000000 l    df *ABS*	00000000 alt_do_dtors.c
00000000 l    df *ABS*	00000000 alt_flash_dev.c
00000000 l    df *ABS*	00000000 alt_icache_flush_all.c
00000000 l    df *ABS*	00000000 alt_iic.c
00000000 l    df *ABS*	00000000 alt_iic_isr_register.c
00000000 l    df *ABS*	00000000 alt_io_redirect.c
02005a40 l     F .text	000000c4 alt_open_fd
00000000 l    df *ABS*	00000000 alt_irq_vars.c
00000000 l    df *ABS*	00000000 alt_open.c
02005b80 l     F .text	0000003c alt_get_errno
02005bbc l     F .text	000000c4 alt_file_locked
00000000 l    df *ABS*	00000000 altera_nios2_gen2_irq.c
00000000 l    df *ABS*	00000000 altera_avalon_spi.c
00000000 l    df *ABS*	00000000 alt_find_dev.c
00000000 l    df *ABS*	00000000 alt_find_file.c
00000000 l    df *ABS*	00000000 alt_get_fd.c
00000000 l    df *ABS*	00000000 alt_icache_flush.c
00000000 l    df *ABS*	00000000 atexit.c
00000000 l    df *ABS*	00000000 exit.c
00000000 l    df *ABS*	00000000 memcmp.c
00000000 l    df *ABS*	00000000 __atexit.c
00000000 l    df *ABS*	00000000 __call_atexit.c
00000000 l    df *ABS*	00000000 alt_exit.c
02007fe0 g     O .bss	00000004 alt_instruction_exception_handler
02004284 g     F .text	0000008c alt_epcs_flash_get_info
02002e84 g     F .text	00000054 _isatty_r
0200358c g     F .text	0000007c alt_main
020002c4 g     F .text	000000c0 _puts_r
0200800c g     O .bss	00000100 alt_irq
02002bac g     F .text	00000060 _lseek_r
020073a0 g       *ABS*	00000000 __flash_rwdata_start
0200810c g       *ABS*	00000000 __alt_heap_start
02002160 g     F .text	0000005c __sseek
02000780 g     F .text	00000010 __sinit
020005e8 g     F .text	00000068 __sfmoreglue
0200362c g     F .text	00000024 __malloc_unlock
0200184c g     F .text	0000015c memmove
02000768 g     F .text	00000018 _cleanup
02005dd4 g     F .text	00000024 altera_nios2_gen2_irq_init
02004f5c g     F .text	000000fc epcs_sector_erase
02000000 g     F .entry	0000001c __reset
02000020 g       *ABS*	00000000 __flash_exceptions_start
02002e28 g     F .text	0000005c _fstat_r
02007fcc g     O .bss	00000004 errno
020020dc g     F .text	00000008 __seofread
02007fd4 g     O .bss	00000004 alt_argv
0200f368 g       *ABS*	00000000 _gp
02006fd4 g     O .rwdata	00000180 alt_fd_list
020051a0 g     F .text	0000006c epcs_write_status_register
02005ff4 g     F .text	00000090 alt_find_dev
02001704 g     F .text	00000148 memcpy
02000438 g     F .text	0000000c _cleanup_r
02005b04 g     F .text	0000007c alt_io_redirect
020066f0 g       *ABS*	00000000 __DTOR_END__
02000384 g     F .text	00000014 puts
020062c0 g     F .text	0000009c alt_exception_cause_generated_bad_addr
0200441c g     F .text	00000100 alt_epcs_flash_write_block
02002fd0 g     F .text	00000064 .hidden __udivsi3
020032ec g     F .text	000000a4 isatty
02006230 g     F .text	00000090 alt_icache_flush
02007fc8 g     O .bss	00000004 __malloc_top_pad
020007d0 g     F .text	000004bc __sfvwrite_r
02002034 g     F .text	00000054 _sbrk_r
02002dc8 g     F .text	00000060 _read_r
02007388 g     O .rwdata	00000004 alt_max_fd
020023cc g     F .text	000000f0 _fclose_r
02002748 g     F .text	00000030 fflush
02007fc4 g     O .bss	00000004 __malloc_max_sbrked_mem
020043a4 g     F .text	00000078 alt_epcs_flash_erase_block
020034b8 g     F .text	000000d4 lseek
02007368 g     O .rwdata	00000004 _global_impure_ptr
0200546c g     F .text	0000005c epcs_exit_4_bytes_mode
02001ad0 g     F .text	00000564 _realloc_r
0200810c g       *ABS*	00000000 __bss_end
02005950 g     F .text	000000f0 alt_iic_isr_register
020046c4 g     F .text	000000ac altera_avalon_uart_init
020007a0 g     F .text	00000018 __fp_lock_all
02005904 g     F .text	0000004c alt_ic_irq_enabled
02007fdc g     O .bss	00000004 alt_irq_active
020000fc g     F .exceptions	000000d4 alt_irq_handler
02006fac g     O .rwdata	00000028 alt_dev_null
020054c8 g     F .text	00000048 alt_dcache_flush_all
020073a0 g       *ABS*	00000000 __ram_rwdata_end
02007380 g     O .rwdata	00000008 alt_dev_list
020038d8 g     F .text	000000f8 write
02006780 g       *ABS*	00000000 __ram_rodata_end
02003200 g     F .text	000000b0 fstat
02003034 g     F .text	00000058 .hidden __umodsi3
02005328 g     F .text	00000068 epcs_read_electronic_signature
0200810c g       *ABS*	00000000 end
02004ce0 g     F .text	000001ac altera_avalon_uart_write
020001d0 g     F .exceptions	00000074 alt_instruction_exception_entry
020066f0 g       *ABS*	00000000 __CTOR_LIST__
04000000 g       *ABS*	00000000 __alt_stack_pointer
02004614 g     F .text	00000060 altera_avalon_uart_write_fd
02004674 g     F .text	00000050 altera_avalon_uart_close_fd
02000790 g     F .text	00000004 __sfp_lock_acquire
02001620 g     F .text	000000e4 memchr
0200289c g     F .text	00000310 _free_r
0200653c g     F .text	00000180 __call_exitprocs
02007370 g     O .rwdata	00000004 __malloc_sbrk_base
02000244 g     F .text	0000004c _start
02005df8 g     F .text	000001fc alt_avalon_spi_command
0200368c g     F .text	000000fc read
02003a3c g     F .text	0000007c alt_sys_init
02006424 g     F .text	00000118 __register_exitproc
02006780 g       *ABS*	00000000 __ram_rwdata_start
020066f0 g       *ABS*	00000000 __ram_rodata_start
02007fe4 g     O .bss	00000028 __malloc_current_mallinfo
02004e8c g     F .text	0000005c epcs_read_status_register
0200618c g     F .text	000000a4 alt_get_fd
02002378 g     F .text	00000054 _close_r
02005390 g     F .text	00000080 epcs_read_device_id
020063a8 g     F .text	0000007c memcmp
0200810c g       *ABS*	00000000 __alt_stack_base
02002224 g     F .text	00000154 __swsetup_r
02000650 g     F .text	00000118 __sfp
02006ba4 g     O .rwdata	00000408 __malloc_av_
0200079c g     F .text	00000004 __sinit_lock_release
04000800 g       *ABS*	00000000 __alt_mem_epcs_flash_controller
02002088 g     F .text	00000054 __sread
02006084 g     F .text	00000108 alt_find_file
0200554c g     F .text	000000a4 alt_dev_llist_insert
02003608 g     F .text	00000024 __malloc_lock
020037ec g     F .text	000000b0 sbrk
020026ec g     F .text	0000005c _fflush_r
02007394 g     O .rwdata	00000008 alt_flash_dev_list
02007fc0 g       *ABS*	00000000 __bss_start
020019a8 g     F .text	00000128 memset
02000290 g     F .text	00000034 main
02007fd8 g     O .bss	00000004 alt_envp
02007fc0 g     O .bss	00000004 __malloc_max_total_mem
020021bc g     F .text	00000008 __sclose
04000000 g       *ABS*	00000000 __alt_heap_limit
020024bc g     F .text	00000014 fclose
02000e14 g     F .text	0000080c _malloc_r
0200738c g     O .rwdata	00000004 alt_errno
02000c8c g     F .text	000000c4 _fwalk
02002ed8 g     F .text	00000084 .hidden __divsi3
02002778 g     F .text	00000124 _malloc_trim_r
020066f0 g       *ABS*	00000000 __CTOR_END__
02004024 g     F .text	00000260 alt_epcs_flash_write
020066f0 g       *ABS*	00000000 __flash_rodata_start
020066f0 g       *ABS*	00000000 __DTOR_LIST__
02003a04 g     F .text	00000038 alt_irq_init
02003788 g     F .text	00000064 alt_release_fd
0200635c g     F .text	00000014 atexit
020021c4 g     F .text	00000060 _write_r
0200736c g     O .rwdata	00000004 _impure_ptr
02007fd0 g     O .bss	00000004 alt_argc
020024d0 g     F .text	0000021c __sflush_r
02005650 g     F .text	00000060 _do_dtors
02000020 g       .exceptions	00000000 alt_irq_entry
020007b8 g     F .text	00000018 __fp_unlock_all
02007378 g     O .rwdata	00000008 alt_fs_list
02000020 g       *ABS*	00000000 __ram_exceptions_start
02005058 g     F .text	000000f4 epcs_read_buffer
02003aec g     F .text	00000054 alt_epcs_flash_init
020057a0 g     F .text	00000050 alt_ic_isr_register
020073a0 g       *ABS*	00000000 _edata
020045b4 g     F .text	00000060 altera_avalon_uart_read_fd
0200810c g       *ABS*	00000000 _end
020056b0 g     F .text	00000068 alt_flash_open_dev
02000244 g       *ABS*	00000000 __ram_exceptions_end
02005878 g     F .text	0000008c alt_ic_irq_disable
02005410 g     F .text	0000005c epcs_enter_4_bytes_mode
020020e4 g     F .text	0000007c __swrite
02007374 g     O .rwdata	00000004 __malloc_trim_threshold
02006370 g     F .text	00000038 exit
02000d50 g     F .text	000000c4 _fwalk_reent
02005718 g     F .text	00000054 alt_flash_close_dev
02002f5c g     F .text	00000074 .hidden __modsi3
04000000 g       *ABS*	00000000 __alt_data_end
02000020 g     F .exceptions	00000000 alt_exception
02000794 g     F .text	00000004 __sfp_lock_release
02000000 g       *ABS*	00000000 __alt_mem_sdram
02004a38 g     F .text	00000054 altera_avalon_uart_close
020066bc g     F .text	00000034 _exit
02002c0c g     F .text	000001bc __smakebuf_r
02000398 g     F .text	00000098 strlen
0200514c g     F .text	00000054 epcs_write_enable
02005c80 g     F .text	00000154 open
0200576c g     F .text	00000034 alt_icache_flush_all
0200739c g     O .rwdata	00000004 alt_priority_mask
020057f0 g     F .text	00000088 alt_ic_irq_enable
02004ac8 g     F .text	000001dc altera_avalon_uart_read
0200451c g     F .text	00000098 alt_epcs_flash_read
020055f0 g     F .text	00000060 _do_ctors
020030c8 g     F .text	000000d0 close
020033f8 g     F .text	00000084 alt_load
02000798 g     F .text	00000004 __sinit_lock_acquire
0200520c g     F .text	0000011c epcs_write_buffer



Disassembly of section .entry:

02000000 <__reset>:
 2000000:	00880014 	movui	r2,8192
 2000004:	1001483a 	initi	r2
 2000008:	10bff804 	addi	r2,r2,-32
 200000c:	00bffd16 	blt	zero,r2,2000004 <__alt_mem_epcs_flash_controller+0xfdfff804>
 2000010:	00408034 	movhi	at,512
 2000014:	08409114 	ori	at,at,580
 2000018:	0800683a 	jmp	at
 200001c:	00000000 	call	0 <__alt_mem_sdram-0x2000000>

Disassembly of section .exceptions:

02000020 <alt_exception>:
 2000020:	deffed04 	addi	sp,sp,-76
 2000024:	dfc00015 	stw	ra,0(sp)
 2000028:	d8400215 	stw	at,8(sp)
 200002c:	d8800315 	stw	r2,12(sp)
 2000030:	d8c00415 	stw	r3,16(sp)
 2000034:	d9000515 	stw	r4,20(sp)
 2000038:	d9400615 	stw	r5,24(sp)
 200003c:	d9800715 	stw	r6,28(sp)
 2000040:	d9c00815 	stw	r7,32(sp)
 2000044:	000b307a 	rdctl	r5,estatus
 2000048:	da000915 	stw	r8,36(sp)
 200004c:	da400a15 	stw	r9,40(sp)
 2000050:	da800b15 	stw	r10,44(sp)
 2000054:	dac00c15 	stw	r11,48(sp)
 2000058:	db000d15 	stw	r12,52(sp)
 200005c:	db400e15 	stw	r13,56(sp)
 2000060:	db800f15 	stw	r14,60(sp)
 2000064:	dbc01015 	stw	r15,64(sp)
 2000068:	d9401115 	stw	r5,68(sp)
 200006c:	ebffff04 	addi	r15,ea,-4
 2000070:	dbc01215 	stw	r15,72(sp)
 2000074:	0009313a 	rdctl	r4,ipending
 2000078:	2880004c 	andi	r2,r5,1
 200007c:	10000326 	beq	r2,zero,200008c <alt_exception+0x6c>
 2000080:	20000226 	beq	r4,zero,200008c <alt_exception+0x6c>
 2000084:	20000fc0 	call	20000fc <alt_irq_handler>
 2000088:	00000706 	br	20000a8 <alt_exception+0x88>
 200008c:	df401215 	stw	ea,72(sp)
 2000090:	e8bfff17 	ldw	r2,-4(ea)
 2000094:	e93fff04 	addi	r4,ea,-4
 2000098:	20001d00 	call	20001d0 <alt_instruction_exception_entry>
 200009c:	1000021e 	bne	r2,zero,20000a8 <alt_exception+0x88>
 20000a0:	ebffff04 	addi	r15,ea,-4
 20000a4:	dbc01215 	stw	r15,72(sp)
 20000a8:	d9401117 	ldw	r5,68(sp)
 20000ac:	df401217 	ldw	ea,72(sp)
 20000b0:	dfc00017 	ldw	ra,0(sp)
 20000b4:	2801707a 	wrctl	estatus,r5
 20000b8:	d8400217 	ldw	at,8(sp)
 20000bc:	d8800317 	ldw	r2,12(sp)
 20000c0:	d8c00417 	ldw	r3,16(sp)
 20000c4:	d9000517 	ldw	r4,20(sp)
 20000c8:	d9400617 	ldw	r5,24(sp)
 20000cc:	d9800717 	ldw	r6,28(sp)
 20000d0:	d9c00817 	ldw	r7,32(sp)
 20000d4:	da000917 	ldw	r8,36(sp)
 20000d8:	da400a17 	ldw	r9,40(sp)
 20000dc:	da800b17 	ldw	r10,44(sp)
 20000e0:	dac00c17 	ldw	r11,48(sp)
 20000e4:	db000d17 	ldw	r12,52(sp)
 20000e8:	db400e17 	ldw	r13,56(sp)
 20000ec:	db800f17 	ldw	r14,60(sp)
 20000f0:	dbc01017 	ldw	r15,64(sp)
 20000f4:	dec01304 	addi	sp,sp,76
 20000f8:	ef80083a 	eret

020000fc <alt_irq_handler>:
 20000fc:	defff904 	addi	sp,sp,-28
 2000100:	dfc00615 	stw	ra,24(sp)
 2000104:	df000515 	stw	fp,20(sp)
 2000108:	df000504 	addi	fp,sp,20
 200010c:	0001883a 	nop
 2000110:	0005313a 	rdctl	r2,ipending
 2000114:	e0bffe15 	stw	r2,-8(fp)
 2000118:	e0bffe17 	ldw	r2,-8(fp)
 200011c:	e0bffb15 	stw	r2,-20(fp)
 2000120:	e03ffd15 	stw	zero,-12(fp)
 2000124:	00800044 	movi	r2,1
 2000128:	e0bffc15 	stw	r2,-16(fp)
 200012c:	e0fffb17 	ldw	r3,-20(fp)
 2000130:	e0bffc17 	ldw	r2,-16(fp)
 2000134:	1884703a 	and	r2,r3,r2
 2000138:	10001426 	beq	r2,zero,200018c <alt_irq_handler+0x90>
 200013c:	00808074 	movhi	r2,513
 2000140:	10a00304 	addi	r2,r2,-32756
 2000144:	e0fffd17 	ldw	r3,-12(fp)
 2000148:	180690fa 	slli	r3,r3,3
 200014c:	10c5883a 	add	r2,r2,r3
 2000150:	10c00017 	ldw	r3,0(r2)
 2000154:	00808074 	movhi	r2,513
 2000158:	10a00304 	addi	r2,r2,-32756
 200015c:	e13ffd17 	ldw	r4,-12(fp)
 2000160:	200890fa 	slli	r4,r4,3
 2000164:	1105883a 	add	r2,r2,r4
 2000168:	10800104 	addi	r2,r2,4
 200016c:	10800017 	ldw	r2,0(r2)
 2000170:	1009883a 	mov	r4,r2
 2000174:	183ee83a 	callr	r3
 2000178:	0001883a 	nop
 200017c:	0005313a 	rdctl	r2,ipending
 2000180:	e0bfff15 	stw	r2,-4(fp)
 2000184:	e0bfff17 	ldw	r2,-4(fp)
 2000188:	00000706 	br	20001a8 <alt_irq_handler+0xac>
 200018c:	e0bffc17 	ldw	r2,-16(fp)
 2000190:	1085883a 	add	r2,r2,r2
 2000194:	e0bffc15 	stw	r2,-16(fp)
 2000198:	e0bffd17 	ldw	r2,-12(fp)
 200019c:	10800044 	addi	r2,r2,1
 20001a0:	e0bffd15 	stw	r2,-12(fp)
 20001a4:	003fe106 	br	200012c <__alt_mem_epcs_flash_controller+0xfdfff92c>
 20001a8:	e0bffb15 	stw	r2,-20(fp)
 20001ac:	e0bffb17 	ldw	r2,-20(fp)
 20001b0:	103fdb1e 	bne	r2,zero,2000120 <__alt_mem_epcs_flash_controller+0xfdfff920>
 20001b4:	0001883a 	nop
 20001b8:	0001883a 	nop
 20001bc:	e037883a 	mov	sp,fp
 20001c0:	dfc00117 	ldw	ra,4(sp)
 20001c4:	df000017 	ldw	fp,0(sp)
 20001c8:	dec00204 	addi	sp,sp,8
 20001cc:	f800283a 	ret

020001d0 <alt_instruction_exception_entry>:
 20001d0:	defffb04 	addi	sp,sp,-20
 20001d4:	dfc00415 	stw	ra,16(sp)
 20001d8:	df000315 	stw	fp,12(sp)
 20001dc:	df000304 	addi	fp,sp,12
 20001e0:	e13fff15 	stw	r4,-4(fp)
 20001e4:	000531fa 	rdctl	r2,exception
 20001e8:	e0bffd15 	stw	r2,-12(fp)
 20001ec:	e0bffd17 	ldw	r2,-12(fp)
 20001f0:	10801f0c 	andi	r2,r2,124
 20001f4:	1004d0ba 	srli	r2,r2,2
 20001f8:	e0bffd15 	stw	r2,-12(fp)
 20001fc:	0005333a 	rdctl	r2,badaddr
 2000200:	e0bffe15 	stw	r2,-8(fp)
 2000204:	d0a31e17 	ldw	r2,-29576(gp)
 2000208:	10000726 	beq	r2,zero,2000228 <alt_instruction_exception_entry+0x58>
 200020c:	d0a31e17 	ldw	r2,-29576(gp)
 2000210:	e0fffd17 	ldw	r3,-12(fp)
 2000214:	e1bffe17 	ldw	r6,-8(fp)
 2000218:	e17fff17 	ldw	r5,-4(fp)
 200021c:	1809883a 	mov	r4,r3
 2000220:	103ee83a 	callr	r2
 2000224:	00000206 	br	2000230 <alt_instruction_exception_entry+0x60>
 2000228:	003da03a 	break	0
 200022c:	0005883a 	mov	r2,zero
 2000230:	e037883a 	mov	sp,fp
 2000234:	dfc00117 	ldw	ra,4(sp)
 2000238:	df000017 	ldw	fp,0(sp)
 200023c:	dec00204 	addi	sp,sp,8
 2000240:	f800283a 	ret

Disassembly of section .text:

02000244 <_start>:
 2000244:	00840014 	movui	r2,4096
 2000248:	10000033 	initd	0(r2)
 200024c:	10bff804 	addi	r2,r2,-32
 2000250:	00bffd16 	blt	zero,r2,2000248 <__alt_mem_epcs_flash_controller+0xfdfffa48>
 2000254:	06c10034 	movhi	sp,1024
 2000258:	dec00014 	ori	sp,sp,0
 200025c:	06808034 	movhi	gp,512
 2000260:	d6bcda14 	ori	gp,gp,62312
 2000264:	00808034 	movhi	r2,512
 2000268:	109ff014 	ori	r2,r2,32704
 200026c:	00c08034 	movhi	r3,512
 2000270:	18e04314 	ori	r3,r3,33036
 2000274:	10c00326 	beq	r2,r3,2000284 <_start+0x40>
 2000278:	10000015 	stw	zero,0(r2)
 200027c:	10800104 	addi	r2,r2,4
 2000280:	10fffd36 	bltu	r2,r3,2000278 <__alt_mem_epcs_flash_controller+0xfdfffa78>
 2000284:	20033f80 	call	20033f8 <alt_load>
 2000288:	200358c0 	call	200358c <alt_main>

0200028c <alt_after_alt_main>:
 200028c:	003fff06 	br	200028c <__alt_mem_epcs_flash_controller+0xfdfffa8c>

02000290 <main>:
 2000290:	defffe04 	addi	sp,sp,-8
 2000294:	dfc00115 	stw	ra,4(sp)
 2000298:	df000015 	stw	fp,0(sp)
 200029c:	d839883a 	mov	fp,sp
 20002a0:	01008034 	movhi	r4,512
 20002a4:	2119bc04 	addi	r4,r4,26352
 20002a8:	20003840 	call	2000384 <puts>
 20002ac:	0005883a 	mov	r2,zero
 20002b0:	e037883a 	mov	sp,fp
 20002b4:	dfc00117 	ldw	ra,4(sp)
 20002b8:	df000017 	ldw	fp,0(sp)
 20002bc:	dec00204 	addi	sp,sp,8
 20002c0:	f800283a 	ret

020002c4 <_puts_r>:
 20002c4:	defff604 	addi	sp,sp,-40
 20002c8:	dc000715 	stw	r16,28(sp)
 20002cc:	2021883a 	mov	r16,r4
 20002d0:	2809883a 	mov	r4,r5
 20002d4:	dc400815 	stw	r17,32(sp)
 20002d8:	dfc00915 	stw	ra,36(sp)
 20002dc:	2823883a 	mov	r17,r5
 20002e0:	20003980 	call	2000398 <strlen>
 20002e4:	10c00044 	addi	r3,r2,1
 20002e8:	d8800115 	stw	r2,4(sp)
 20002ec:	00808034 	movhi	r2,512
 20002f0:	1099c304 	addi	r2,r2,26380
 20002f4:	d8800215 	stw	r2,8(sp)
 20002f8:	00800044 	movi	r2,1
 20002fc:	d8800315 	stw	r2,12(sp)
 2000300:	00800084 	movi	r2,2
 2000304:	dc400015 	stw	r17,0(sp)
 2000308:	d8c00615 	stw	r3,24(sp)
 200030c:	dec00415 	stw	sp,16(sp)
 2000310:	d8800515 	stw	r2,20(sp)
 2000314:	80000226 	beq	r16,zero,2000320 <_puts_r+0x5c>
 2000318:	80800e17 	ldw	r2,56(r16)
 200031c:	10001426 	beq	r2,zero,2000370 <_puts_r+0xac>
 2000320:	81400217 	ldw	r5,8(r16)
 2000324:	2880030b 	ldhu	r2,12(r5)
 2000328:	10c8000c 	andi	r3,r2,8192
 200032c:	1800061e 	bne	r3,zero,2000348 <_puts_r+0x84>
 2000330:	29001917 	ldw	r4,100(r5)
 2000334:	00f7ffc4 	movi	r3,-8193
 2000338:	10880014 	ori	r2,r2,8192
 200033c:	20c6703a 	and	r3,r4,r3
 2000340:	2880030d 	sth	r2,12(r5)
 2000344:	28c01915 	stw	r3,100(r5)
 2000348:	d9800404 	addi	r6,sp,16
 200034c:	8009883a 	mov	r4,r16
 2000350:	20007d00 	call	20007d0 <__sfvwrite_r>
 2000354:	1000091e 	bne	r2,zero,200037c <_puts_r+0xb8>
 2000358:	00800284 	movi	r2,10
 200035c:	dfc00917 	ldw	ra,36(sp)
 2000360:	dc400817 	ldw	r17,32(sp)
 2000364:	dc000717 	ldw	r16,28(sp)
 2000368:	dec00a04 	addi	sp,sp,40
 200036c:	f800283a 	ret
 2000370:	8009883a 	mov	r4,r16
 2000374:	20007800 	call	2000780 <__sinit>
 2000378:	003fe906 	br	2000320 <__alt_mem_epcs_flash_controller+0xfdfffb20>
 200037c:	00bfffc4 	movi	r2,-1
 2000380:	003ff606 	br	200035c <__alt_mem_epcs_flash_controller+0xfdfffb5c>

02000384 <puts>:
 2000384:	00808034 	movhi	r2,512
 2000388:	109cdb04 	addi	r2,r2,29548
 200038c:	200b883a 	mov	r5,r4
 2000390:	11000017 	ldw	r4,0(r2)
 2000394:	20002c41 	jmpi	20002c4 <_puts_r>

02000398 <strlen>:
 2000398:	208000cc 	andi	r2,r4,3
 200039c:	10002026 	beq	r2,zero,2000420 <strlen+0x88>
 20003a0:	20800007 	ldb	r2,0(r4)
 20003a4:	10002026 	beq	r2,zero,2000428 <strlen+0x90>
 20003a8:	2005883a 	mov	r2,r4
 20003ac:	00000206 	br	20003b8 <strlen+0x20>
 20003b0:	10c00007 	ldb	r3,0(r2)
 20003b4:	18001826 	beq	r3,zero,2000418 <strlen+0x80>
 20003b8:	10800044 	addi	r2,r2,1
 20003bc:	10c000cc 	andi	r3,r2,3
 20003c0:	183ffb1e 	bne	r3,zero,20003b0 <__alt_mem_epcs_flash_controller+0xfdfffbb0>
 20003c4:	10c00017 	ldw	r3,0(r2)
 20003c8:	01ffbff4 	movhi	r7,65279
 20003cc:	39ffbfc4 	addi	r7,r7,-257
 20003d0:	00ca303a 	nor	r5,zero,r3
 20003d4:	01a02074 	movhi	r6,32897
 20003d8:	19c7883a 	add	r3,r3,r7
 20003dc:	31a02004 	addi	r6,r6,-32640
 20003e0:	1946703a 	and	r3,r3,r5
 20003e4:	1986703a 	and	r3,r3,r6
 20003e8:	1800091e 	bne	r3,zero,2000410 <strlen+0x78>
 20003ec:	10800104 	addi	r2,r2,4
 20003f0:	10c00017 	ldw	r3,0(r2)
 20003f4:	19cb883a 	add	r5,r3,r7
 20003f8:	00c6303a 	nor	r3,zero,r3
 20003fc:	28c6703a 	and	r3,r5,r3
 2000400:	1986703a 	and	r3,r3,r6
 2000404:	183ff926 	beq	r3,zero,20003ec <__alt_mem_epcs_flash_controller+0xfdfffbec>
 2000408:	00000106 	br	2000410 <strlen+0x78>
 200040c:	10800044 	addi	r2,r2,1
 2000410:	10c00007 	ldb	r3,0(r2)
 2000414:	183ffd1e 	bne	r3,zero,200040c <__alt_mem_epcs_flash_controller+0xfdfffc0c>
 2000418:	1105c83a 	sub	r2,r2,r4
 200041c:	f800283a 	ret
 2000420:	2005883a 	mov	r2,r4
 2000424:	003fe706 	br	20003c4 <__alt_mem_epcs_flash_controller+0xfdfffbc4>
 2000428:	0005883a 	mov	r2,zero
 200042c:	f800283a 	ret

02000430 <__fp_unlock>:
 2000430:	0005883a 	mov	r2,zero
 2000434:	f800283a 	ret

02000438 <_cleanup_r>:
 2000438:	01408034 	movhi	r5,512
 200043c:	2948f304 	addi	r5,r5,9164
 2000440:	2000d501 	jmpi	2000d50 <_fwalk_reent>

02000444 <__sinit.part.1>:
 2000444:	defff704 	addi	sp,sp,-36
 2000448:	00c08034 	movhi	r3,512
 200044c:	dfc00815 	stw	ra,32(sp)
 2000450:	ddc00715 	stw	r23,28(sp)
 2000454:	dd800615 	stw	r22,24(sp)
 2000458:	dd400515 	stw	r21,20(sp)
 200045c:	dd000415 	stw	r20,16(sp)
 2000460:	dcc00315 	stw	r19,12(sp)
 2000464:	dc800215 	stw	r18,8(sp)
 2000468:	dc400115 	stw	r17,4(sp)
 200046c:	dc000015 	stw	r16,0(sp)
 2000470:	18c10e04 	addi	r3,r3,1080
 2000474:	24000117 	ldw	r16,4(r4)
 2000478:	20c00f15 	stw	r3,60(r4)
 200047c:	2080bb04 	addi	r2,r4,748
 2000480:	00c000c4 	movi	r3,3
 2000484:	20c0b915 	stw	r3,740(r4)
 2000488:	2080ba15 	stw	r2,744(r4)
 200048c:	2000b815 	stw	zero,736(r4)
 2000490:	05c00204 	movi	r23,8
 2000494:	00800104 	movi	r2,4
 2000498:	2025883a 	mov	r18,r4
 200049c:	b80d883a 	mov	r6,r23
 20004a0:	81001704 	addi	r4,r16,92
 20004a4:	000b883a 	mov	r5,zero
 20004a8:	80000015 	stw	zero,0(r16)
 20004ac:	80000115 	stw	zero,4(r16)
 20004b0:	80000215 	stw	zero,8(r16)
 20004b4:	8080030d 	sth	r2,12(r16)
 20004b8:	80001915 	stw	zero,100(r16)
 20004bc:	8000038d 	sth	zero,14(r16)
 20004c0:	80000415 	stw	zero,16(r16)
 20004c4:	80000515 	stw	zero,20(r16)
 20004c8:	80000615 	stw	zero,24(r16)
 20004cc:	20019a80 	call	20019a8 <memset>
 20004d0:	05808034 	movhi	r22,512
 20004d4:	94400217 	ldw	r17,8(r18)
 20004d8:	05408034 	movhi	r21,512
 20004dc:	05008034 	movhi	r20,512
 20004e0:	04c08034 	movhi	r19,512
 20004e4:	b5882204 	addi	r22,r22,8328
 20004e8:	ad483904 	addi	r21,r21,8420
 20004ec:	a5085804 	addi	r20,r20,8544
 20004f0:	9cc86f04 	addi	r19,r19,8636
 20004f4:	85800815 	stw	r22,32(r16)
 20004f8:	85400915 	stw	r21,36(r16)
 20004fc:	85000a15 	stw	r20,40(r16)
 2000500:	84c00b15 	stw	r19,44(r16)
 2000504:	84000715 	stw	r16,28(r16)
 2000508:	00800284 	movi	r2,10
 200050c:	8880030d 	sth	r2,12(r17)
 2000510:	00800044 	movi	r2,1
 2000514:	b80d883a 	mov	r6,r23
 2000518:	89001704 	addi	r4,r17,92
 200051c:	000b883a 	mov	r5,zero
 2000520:	88000015 	stw	zero,0(r17)
 2000524:	88000115 	stw	zero,4(r17)
 2000528:	88000215 	stw	zero,8(r17)
 200052c:	88001915 	stw	zero,100(r17)
 2000530:	8880038d 	sth	r2,14(r17)
 2000534:	88000415 	stw	zero,16(r17)
 2000538:	88000515 	stw	zero,20(r17)
 200053c:	88000615 	stw	zero,24(r17)
 2000540:	20019a80 	call	20019a8 <memset>
 2000544:	94000317 	ldw	r16,12(r18)
 2000548:	00800484 	movi	r2,18
 200054c:	8c400715 	stw	r17,28(r17)
 2000550:	8d800815 	stw	r22,32(r17)
 2000554:	8d400915 	stw	r21,36(r17)
 2000558:	8d000a15 	stw	r20,40(r17)
 200055c:	8cc00b15 	stw	r19,44(r17)
 2000560:	8080030d 	sth	r2,12(r16)
 2000564:	00800084 	movi	r2,2
 2000568:	80000015 	stw	zero,0(r16)
 200056c:	80000115 	stw	zero,4(r16)
 2000570:	80000215 	stw	zero,8(r16)
 2000574:	80001915 	stw	zero,100(r16)
 2000578:	8080038d 	sth	r2,14(r16)
 200057c:	80000415 	stw	zero,16(r16)
 2000580:	80000515 	stw	zero,20(r16)
 2000584:	80000615 	stw	zero,24(r16)
 2000588:	b80d883a 	mov	r6,r23
 200058c:	000b883a 	mov	r5,zero
 2000590:	81001704 	addi	r4,r16,92
 2000594:	20019a80 	call	20019a8 <memset>
 2000598:	00800044 	movi	r2,1
 200059c:	84000715 	stw	r16,28(r16)
 20005a0:	85800815 	stw	r22,32(r16)
 20005a4:	85400915 	stw	r21,36(r16)
 20005a8:	85000a15 	stw	r20,40(r16)
 20005ac:	84c00b15 	stw	r19,44(r16)
 20005b0:	90800e15 	stw	r2,56(r18)
 20005b4:	dfc00817 	ldw	ra,32(sp)
 20005b8:	ddc00717 	ldw	r23,28(sp)
 20005bc:	dd800617 	ldw	r22,24(sp)
 20005c0:	dd400517 	ldw	r21,20(sp)
 20005c4:	dd000417 	ldw	r20,16(sp)
 20005c8:	dcc00317 	ldw	r19,12(sp)
 20005cc:	dc800217 	ldw	r18,8(sp)
 20005d0:	dc400117 	ldw	r17,4(sp)
 20005d4:	dc000017 	ldw	r16,0(sp)
 20005d8:	dec00904 	addi	sp,sp,36
 20005dc:	f800283a 	ret

020005e0 <__fp_lock>:
 20005e0:	0005883a 	mov	r2,zero
 20005e4:	f800283a 	ret

020005e8 <__sfmoreglue>:
 20005e8:	defffc04 	addi	sp,sp,-16
 20005ec:	dc400115 	stw	r17,4(sp)
 20005f0:	2c7fffc4 	addi	r17,r5,-1
 20005f4:	8c401a24 	muli	r17,r17,104
 20005f8:	dc800215 	stw	r18,8(sp)
 20005fc:	2825883a 	mov	r18,r5
 2000600:	89401d04 	addi	r5,r17,116
 2000604:	dc000015 	stw	r16,0(sp)
 2000608:	dfc00315 	stw	ra,12(sp)
 200060c:	2000e140 	call	2000e14 <_malloc_r>
 2000610:	1021883a 	mov	r16,r2
 2000614:	10000726 	beq	r2,zero,2000634 <__sfmoreglue+0x4c>
 2000618:	11000304 	addi	r4,r2,12
 200061c:	10000015 	stw	zero,0(r2)
 2000620:	14800115 	stw	r18,4(r2)
 2000624:	11000215 	stw	r4,8(r2)
 2000628:	89801a04 	addi	r6,r17,104
 200062c:	000b883a 	mov	r5,zero
 2000630:	20019a80 	call	20019a8 <memset>
 2000634:	8005883a 	mov	r2,r16
 2000638:	dfc00317 	ldw	ra,12(sp)
 200063c:	dc800217 	ldw	r18,8(sp)
 2000640:	dc400117 	ldw	r17,4(sp)
 2000644:	dc000017 	ldw	r16,0(sp)
 2000648:	dec00404 	addi	sp,sp,16
 200064c:	f800283a 	ret

02000650 <__sfp>:
 2000650:	defffb04 	addi	sp,sp,-20
 2000654:	dc000015 	stw	r16,0(sp)
 2000658:	04008034 	movhi	r16,512
 200065c:	841cda04 	addi	r16,r16,29544
 2000660:	dcc00315 	stw	r19,12(sp)
 2000664:	2027883a 	mov	r19,r4
 2000668:	81000017 	ldw	r4,0(r16)
 200066c:	dfc00415 	stw	ra,16(sp)
 2000670:	dc800215 	stw	r18,8(sp)
 2000674:	20800e17 	ldw	r2,56(r4)
 2000678:	dc400115 	stw	r17,4(sp)
 200067c:	1000021e 	bne	r2,zero,2000688 <__sfp+0x38>
 2000680:	20004440 	call	2000444 <__sinit.part.1>
 2000684:	81000017 	ldw	r4,0(r16)
 2000688:	2480b804 	addi	r18,r4,736
 200068c:	047fffc4 	movi	r17,-1
 2000690:	91000117 	ldw	r4,4(r18)
 2000694:	94000217 	ldw	r16,8(r18)
 2000698:	213fffc4 	addi	r4,r4,-1
 200069c:	20000a16 	blt	r4,zero,20006c8 <__sfp+0x78>
 20006a0:	8080030f 	ldh	r2,12(r16)
 20006a4:	10000c26 	beq	r2,zero,20006d8 <__sfp+0x88>
 20006a8:	80c01d04 	addi	r3,r16,116
 20006ac:	00000206 	br	20006b8 <__sfp+0x68>
 20006b0:	18bfe60f 	ldh	r2,-104(r3)
 20006b4:	10000826 	beq	r2,zero,20006d8 <__sfp+0x88>
 20006b8:	213fffc4 	addi	r4,r4,-1
 20006bc:	1c3ffd04 	addi	r16,r3,-12
 20006c0:	18c01a04 	addi	r3,r3,104
 20006c4:	247ffa1e 	bne	r4,r17,20006b0 <__alt_mem_epcs_flash_controller+0xfdfffeb0>
 20006c8:	90800017 	ldw	r2,0(r18)
 20006cc:	10001d26 	beq	r2,zero,2000744 <__sfp+0xf4>
 20006d0:	1025883a 	mov	r18,r2
 20006d4:	003fee06 	br	2000690 <__alt_mem_epcs_flash_controller+0xfdfffe90>
 20006d8:	00bfffc4 	movi	r2,-1
 20006dc:	8080038d 	sth	r2,14(r16)
 20006e0:	00800044 	movi	r2,1
 20006e4:	8080030d 	sth	r2,12(r16)
 20006e8:	80001915 	stw	zero,100(r16)
 20006ec:	80000015 	stw	zero,0(r16)
 20006f0:	80000215 	stw	zero,8(r16)
 20006f4:	80000115 	stw	zero,4(r16)
 20006f8:	80000415 	stw	zero,16(r16)
 20006fc:	80000515 	stw	zero,20(r16)
 2000700:	80000615 	stw	zero,24(r16)
 2000704:	01800204 	movi	r6,8
 2000708:	000b883a 	mov	r5,zero
 200070c:	81001704 	addi	r4,r16,92
 2000710:	20019a80 	call	20019a8 <memset>
 2000714:	8005883a 	mov	r2,r16
 2000718:	80000c15 	stw	zero,48(r16)
 200071c:	80000d15 	stw	zero,52(r16)
 2000720:	80001115 	stw	zero,68(r16)
 2000724:	80001215 	stw	zero,72(r16)
 2000728:	dfc00417 	ldw	ra,16(sp)
 200072c:	dcc00317 	ldw	r19,12(sp)
 2000730:	dc800217 	ldw	r18,8(sp)
 2000734:	dc400117 	ldw	r17,4(sp)
 2000738:	dc000017 	ldw	r16,0(sp)
 200073c:	dec00504 	addi	sp,sp,20
 2000740:	f800283a 	ret
 2000744:	01400104 	movi	r5,4
 2000748:	9809883a 	mov	r4,r19
 200074c:	20005e80 	call	20005e8 <__sfmoreglue>
 2000750:	90800015 	stw	r2,0(r18)
 2000754:	103fde1e 	bne	r2,zero,20006d0 <__alt_mem_epcs_flash_controller+0xfdfffed0>
 2000758:	00800304 	movi	r2,12
 200075c:	98800015 	stw	r2,0(r19)
 2000760:	0005883a 	mov	r2,zero
 2000764:	003ff006 	br	2000728 <__alt_mem_epcs_flash_controller+0xfdffff28>

02000768 <_cleanup>:
 2000768:	00808034 	movhi	r2,512
 200076c:	109cda04 	addi	r2,r2,29544
 2000770:	11000017 	ldw	r4,0(r2)
 2000774:	01408034 	movhi	r5,512
 2000778:	2948f304 	addi	r5,r5,9164
 200077c:	2000d501 	jmpi	2000d50 <_fwalk_reent>

02000780 <__sinit>:
 2000780:	20800e17 	ldw	r2,56(r4)
 2000784:	10000126 	beq	r2,zero,200078c <__sinit+0xc>
 2000788:	f800283a 	ret
 200078c:	20004441 	jmpi	2000444 <__sinit.part.1>

02000790 <__sfp_lock_acquire>:
 2000790:	f800283a 	ret

02000794 <__sfp_lock_release>:
 2000794:	f800283a 	ret

02000798 <__sinit_lock_acquire>:
 2000798:	f800283a 	ret

0200079c <__sinit_lock_release>:
 200079c:	f800283a 	ret

020007a0 <__fp_lock_all>:
 20007a0:	00808034 	movhi	r2,512
 20007a4:	109cdb04 	addi	r2,r2,29548
 20007a8:	11000017 	ldw	r4,0(r2)
 20007ac:	01408034 	movhi	r5,512
 20007b0:	29417804 	addi	r5,r5,1504
 20007b4:	2000c8c1 	jmpi	2000c8c <_fwalk>

020007b8 <__fp_unlock_all>:
 20007b8:	00808034 	movhi	r2,512
 20007bc:	109cdb04 	addi	r2,r2,29548
 20007c0:	11000017 	ldw	r4,0(r2)
 20007c4:	01408034 	movhi	r5,512
 20007c8:	29410c04 	addi	r5,r5,1072
 20007cc:	2000c8c1 	jmpi	2000c8c <_fwalk>

020007d0 <__sfvwrite_r>:
 20007d0:	30800217 	ldw	r2,8(r6)
 20007d4:	10006726 	beq	r2,zero,2000974 <__sfvwrite_r+0x1a4>
 20007d8:	28c0030b 	ldhu	r3,12(r5)
 20007dc:	defff404 	addi	sp,sp,-48
 20007e0:	dd400715 	stw	r21,28(sp)
 20007e4:	dd000615 	stw	r20,24(sp)
 20007e8:	dc000215 	stw	r16,8(sp)
 20007ec:	dfc00b15 	stw	ra,44(sp)
 20007f0:	df000a15 	stw	fp,40(sp)
 20007f4:	ddc00915 	stw	r23,36(sp)
 20007f8:	dd800815 	stw	r22,32(sp)
 20007fc:	dcc00515 	stw	r19,20(sp)
 2000800:	dc800415 	stw	r18,16(sp)
 2000804:	dc400315 	stw	r17,12(sp)
 2000808:	1880020c 	andi	r2,r3,8
 200080c:	2821883a 	mov	r16,r5
 2000810:	202b883a 	mov	r21,r4
 2000814:	3029883a 	mov	r20,r6
 2000818:	10002726 	beq	r2,zero,20008b8 <__sfvwrite_r+0xe8>
 200081c:	28800417 	ldw	r2,16(r5)
 2000820:	10002526 	beq	r2,zero,20008b8 <__sfvwrite_r+0xe8>
 2000824:	1880008c 	andi	r2,r3,2
 2000828:	a4400017 	ldw	r17,0(r20)
 200082c:	10002a26 	beq	r2,zero,20008d8 <__sfvwrite_r+0x108>
 2000830:	05a00034 	movhi	r22,32768
 2000834:	0027883a 	mov	r19,zero
 2000838:	0025883a 	mov	r18,zero
 200083c:	b5bf0004 	addi	r22,r22,-1024
 2000840:	980d883a 	mov	r6,r19
 2000844:	a809883a 	mov	r4,r21
 2000848:	90004626 	beq	r18,zero,2000964 <__sfvwrite_r+0x194>
 200084c:	900f883a 	mov	r7,r18
 2000850:	b480022e 	bgeu	r22,r18,200085c <__sfvwrite_r+0x8c>
 2000854:	01e00034 	movhi	r7,32768
 2000858:	39ff0004 	addi	r7,r7,-1024
 200085c:	80800917 	ldw	r2,36(r16)
 2000860:	81400717 	ldw	r5,28(r16)
 2000864:	103ee83a 	callr	r2
 2000868:	0080570e 	bge	zero,r2,20009c8 <__sfvwrite_r+0x1f8>
 200086c:	a0c00217 	ldw	r3,8(r20)
 2000870:	98a7883a 	add	r19,r19,r2
 2000874:	90a5c83a 	sub	r18,r18,r2
 2000878:	1885c83a 	sub	r2,r3,r2
 200087c:	a0800215 	stw	r2,8(r20)
 2000880:	103fef1e 	bne	r2,zero,2000840 <__alt_mem_epcs_flash_controller+0xfe000040>
 2000884:	0005883a 	mov	r2,zero
 2000888:	dfc00b17 	ldw	ra,44(sp)
 200088c:	df000a17 	ldw	fp,40(sp)
 2000890:	ddc00917 	ldw	r23,36(sp)
 2000894:	dd800817 	ldw	r22,32(sp)
 2000898:	dd400717 	ldw	r21,28(sp)
 200089c:	dd000617 	ldw	r20,24(sp)
 20008a0:	dcc00517 	ldw	r19,20(sp)
 20008a4:	dc800417 	ldw	r18,16(sp)
 20008a8:	dc400317 	ldw	r17,12(sp)
 20008ac:	dc000217 	ldw	r16,8(sp)
 20008b0:	dec00c04 	addi	sp,sp,48
 20008b4:	f800283a 	ret
 20008b8:	800b883a 	mov	r5,r16
 20008bc:	a809883a 	mov	r4,r21
 20008c0:	20022240 	call	2002224 <__swsetup_r>
 20008c4:	1000eb1e 	bne	r2,zero,2000c74 <__sfvwrite_r+0x4a4>
 20008c8:	80c0030b 	ldhu	r3,12(r16)
 20008cc:	a4400017 	ldw	r17,0(r20)
 20008d0:	1880008c 	andi	r2,r3,2
 20008d4:	103fd61e 	bne	r2,zero,2000830 <__alt_mem_epcs_flash_controller+0xfe000030>
 20008d8:	1880004c 	andi	r2,r3,1
 20008dc:	10003f1e 	bne	r2,zero,20009dc <__sfvwrite_r+0x20c>
 20008e0:	0039883a 	mov	fp,zero
 20008e4:	0025883a 	mov	r18,zero
 20008e8:	90001a26 	beq	r18,zero,2000954 <__sfvwrite_r+0x184>
 20008ec:	1880800c 	andi	r2,r3,512
 20008f0:	84c00217 	ldw	r19,8(r16)
 20008f4:	10002126 	beq	r2,zero,200097c <__sfvwrite_r+0x1ac>
 20008f8:	982f883a 	mov	r23,r19
 20008fc:	94c09336 	bltu	r18,r19,2000b4c <__sfvwrite_r+0x37c>
 2000900:	1881200c 	andi	r2,r3,1152
 2000904:	10009e1e 	bne	r2,zero,2000b80 <__sfvwrite_r+0x3b0>
 2000908:	81000017 	ldw	r4,0(r16)
 200090c:	b80d883a 	mov	r6,r23
 2000910:	e00b883a 	mov	r5,fp
 2000914:	200184c0 	call	200184c <memmove>
 2000918:	80c00217 	ldw	r3,8(r16)
 200091c:	81000017 	ldw	r4,0(r16)
 2000920:	9005883a 	mov	r2,r18
 2000924:	1ce7c83a 	sub	r19,r3,r19
 2000928:	25cf883a 	add	r7,r4,r23
 200092c:	84c00215 	stw	r19,8(r16)
 2000930:	81c00015 	stw	r7,0(r16)
 2000934:	a0c00217 	ldw	r3,8(r20)
 2000938:	e0b9883a 	add	fp,fp,r2
 200093c:	90a5c83a 	sub	r18,r18,r2
 2000940:	18a7c83a 	sub	r19,r3,r2
 2000944:	a4c00215 	stw	r19,8(r20)
 2000948:	983fce26 	beq	r19,zero,2000884 <__alt_mem_epcs_flash_controller+0xfe000084>
 200094c:	80c0030b 	ldhu	r3,12(r16)
 2000950:	903fe61e 	bne	r18,zero,20008ec <__alt_mem_epcs_flash_controller+0xfe0000ec>
 2000954:	8f000017 	ldw	fp,0(r17)
 2000958:	8c800117 	ldw	r18,4(r17)
 200095c:	8c400204 	addi	r17,r17,8
 2000960:	003fe106 	br	20008e8 <__alt_mem_epcs_flash_controller+0xfe0000e8>
 2000964:	8cc00017 	ldw	r19,0(r17)
 2000968:	8c800117 	ldw	r18,4(r17)
 200096c:	8c400204 	addi	r17,r17,8
 2000970:	003fb306 	br	2000840 <__alt_mem_epcs_flash_controller+0xfe000040>
 2000974:	0005883a 	mov	r2,zero
 2000978:	f800283a 	ret
 200097c:	81000017 	ldw	r4,0(r16)
 2000980:	80800417 	ldw	r2,16(r16)
 2000984:	11005736 	bltu	r2,r4,2000ae4 <__sfvwrite_r+0x314>
 2000988:	85c00517 	ldw	r23,20(r16)
 200098c:	95c05536 	bltu	r18,r23,2000ae4 <__sfvwrite_r+0x314>
 2000990:	00a00034 	movhi	r2,32768
 2000994:	10bfffc4 	addi	r2,r2,-1
 2000998:	9009883a 	mov	r4,r18
 200099c:	1480012e 	bgeu	r2,r18,20009a4 <__sfvwrite_r+0x1d4>
 20009a0:	1009883a 	mov	r4,r2
 20009a4:	b80b883a 	mov	r5,r23
 20009a8:	2002ed80 	call	2002ed8 <__divsi3>
 20009ac:	15cf383a 	mul	r7,r2,r23
 20009b0:	81400717 	ldw	r5,28(r16)
 20009b4:	80800917 	ldw	r2,36(r16)
 20009b8:	e00d883a 	mov	r6,fp
 20009bc:	a809883a 	mov	r4,r21
 20009c0:	103ee83a 	callr	r2
 20009c4:	00bfdb16 	blt	zero,r2,2000934 <__alt_mem_epcs_flash_controller+0xfe000134>
 20009c8:	8080030b 	ldhu	r2,12(r16)
 20009cc:	10801014 	ori	r2,r2,64
 20009d0:	8080030d 	sth	r2,12(r16)
 20009d4:	00bfffc4 	movi	r2,-1
 20009d8:	003fab06 	br	2000888 <__alt_mem_epcs_flash_controller+0xfe000088>
 20009dc:	0027883a 	mov	r19,zero
 20009e0:	0011883a 	mov	r8,zero
 20009e4:	0039883a 	mov	fp,zero
 20009e8:	0025883a 	mov	r18,zero
 20009ec:	90001f26 	beq	r18,zero,2000a6c <__sfvwrite_r+0x29c>
 20009f0:	40005a26 	beq	r8,zero,2000b5c <__sfvwrite_r+0x38c>
 20009f4:	982d883a 	mov	r22,r19
 20009f8:	94c0012e 	bgeu	r18,r19,2000a00 <__sfvwrite_r+0x230>
 20009fc:	902d883a 	mov	r22,r18
 2000a00:	81000017 	ldw	r4,0(r16)
 2000a04:	80800417 	ldw	r2,16(r16)
 2000a08:	b02f883a 	mov	r23,r22
 2000a0c:	81c00517 	ldw	r7,20(r16)
 2000a10:	1100032e 	bgeu	r2,r4,2000a20 <__sfvwrite_r+0x250>
 2000a14:	80c00217 	ldw	r3,8(r16)
 2000a18:	38c7883a 	add	r3,r7,r3
 2000a1c:	1d801816 	blt	r3,r22,2000a80 <__sfvwrite_r+0x2b0>
 2000a20:	b1c03e16 	blt	r22,r7,2000b1c <__sfvwrite_r+0x34c>
 2000a24:	80800917 	ldw	r2,36(r16)
 2000a28:	81400717 	ldw	r5,28(r16)
 2000a2c:	e00d883a 	mov	r6,fp
 2000a30:	da000115 	stw	r8,4(sp)
 2000a34:	a809883a 	mov	r4,r21
 2000a38:	103ee83a 	callr	r2
 2000a3c:	102f883a 	mov	r23,r2
 2000a40:	da000117 	ldw	r8,4(sp)
 2000a44:	00bfe00e 	bge	zero,r2,20009c8 <__alt_mem_epcs_flash_controller+0xfe0001c8>
 2000a48:	9de7c83a 	sub	r19,r19,r23
 2000a4c:	98001f26 	beq	r19,zero,2000acc <__sfvwrite_r+0x2fc>
 2000a50:	a0800217 	ldw	r2,8(r20)
 2000a54:	e5f9883a 	add	fp,fp,r23
 2000a58:	95e5c83a 	sub	r18,r18,r23
 2000a5c:	15efc83a 	sub	r23,r2,r23
 2000a60:	a5c00215 	stw	r23,8(r20)
 2000a64:	b83f8726 	beq	r23,zero,2000884 <__alt_mem_epcs_flash_controller+0xfe000084>
 2000a68:	903fe11e 	bne	r18,zero,20009f0 <__alt_mem_epcs_flash_controller+0xfe0001f0>
 2000a6c:	8f000017 	ldw	fp,0(r17)
 2000a70:	8c800117 	ldw	r18,4(r17)
 2000a74:	0011883a 	mov	r8,zero
 2000a78:	8c400204 	addi	r17,r17,8
 2000a7c:	003fdb06 	br	20009ec <__alt_mem_epcs_flash_controller+0xfe0001ec>
 2000a80:	180d883a 	mov	r6,r3
 2000a84:	e00b883a 	mov	r5,fp
 2000a88:	da000115 	stw	r8,4(sp)
 2000a8c:	d8c00015 	stw	r3,0(sp)
 2000a90:	200184c0 	call	200184c <memmove>
 2000a94:	d8c00017 	ldw	r3,0(sp)
 2000a98:	80800017 	ldw	r2,0(r16)
 2000a9c:	800b883a 	mov	r5,r16
 2000aa0:	a809883a 	mov	r4,r21
 2000aa4:	10c5883a 	add	r2,r2,r3
 2000aa8:	80800015 	stw	r2,0(r16)
 2000aac:	d8c00015 	stw	r3,0(sp)
 2000ab0:	20026ec0 	call	20026ec <_fflush_r>
 2000ab4:	d8c00017 	ldw	r3,0(sp)
 2000ab8:	da000117 	ldw	r8,4(sp)
 2000abc:	103fc21e 	bne	r2,zero,20009c8 <__alt_mem_epcs_flash_controller+0xfe0001c8>
 2000ac0:	182f883a 	mov	r23,r3
 2000ac4:	9de7c83a 	sub	r19,r19,r23
 2000ac8:	983fe11e 	bne	r19,zero,2000a50 <__alt_mem_epcs_flash_controller+0xfe000250>
 2000acc:	800b883a 	mov	r5,r16
 2000ad0:	a809883a 	mov	r4,r21
 2000ad4:	20026ec0 	call	20026ec <_fflush_r>
 2000ad8:	103fbb1e 	bne	r2,zero,20009c8 <__alt_mem_epcs_flash_controller+0xfe0001c8>
 2000adc:	0011883a 	mov	r8,zero
 2000ae0:	003fdb06 	br	2000a50 <__alt_mem_epcs_flash_controller+0xfe000250>
 2000ae4:	94c0012e 	bgeu	r18,r19,2000aec <__sfvwrite_r+0x31c>
 2000ae8:	9027883a 	mov	r19,r18
 2000aec:	980d883a 	mov	r6,r19
 2000af0:	e00b883a 	mov	r5,fp
 2000af4:	200184c0 	call	200184c <memmove>
 2000af8:	80800217 	ldw	r2,8(r16)
 2000afc:	80c00017 	ldw	r3,0(r16)
 2000b00:	14c5c83a 	sub	r2,r2,r19
 2000b04:	1cc7883a 	add	r3,r3,r19
 2000b08:	80800215 	stw	r2,8(r16)
 2000b0c:	80c00015 	stw	r3,0(r16)
 2000b10:	10004326 	beq	r2,zero,2000c20 <__sfvwrite_r+0x450>
 2000b14:	9805883a 	mov	r2,r19
 2000b18:	003f8606 	br	2000934 <__alt_mem_epcs_flash_controller+0xfe000134>
 2000b1c:	b00d883a 	mov	r6,r22
 2000b20:	e00b883a 	mov	r5,fp
 2000b24:	da000115 	stw	r8,4(sp)
 2000b28:	200184c0 	call	200184c <memmove>
 2000b2c:	80800217 	ldw	r2,8(r16)
 2000b30:	80c00017 	ldw	r3,0(r16)
 2000b34:	da000117 	ldw	r8,4(sp)
 2000b38:	1585c83a 	sub	r2,r2,r22
 2000b3c:	1dad883a 	add	r22,r3,r22
 2000b40:	80800215 	stw	r2,8(r16)
 2000b44:	85800015 	stw	r22,0(r16)
 2000b48:	003fbf06 	br	2000a48 <__alt_mem_epcs_flash_controller+0xfe000248>
 2000b4c:	81000017 	ldw	r4,0(r16)
 2000b50:	9027883a 	mov	r19,r18
 2000b54:	902f883a 	mov	r23,r18
 2000b58:	003f6c06 	br	200090c <__alt_mem_epcs_flash_controller+0xfe00010c>
 2000b5c:	900d883a 	mov	r6,r18
 2000b60:	01400284 	movi	r5,10
 2000b64:	e009883a 	mov	r4,fp
 2000b68:	20016200 	call	2001620 <memchr>
 2000b6c:	10003e26 	beq	r2,zero,2000c68 <__sfvwrite_r+0x498>
 2000b70:	10800044 	addi	r2,r2,1
 2000b74:	1727c83a 	sub	r19,r2,fp
 2000b78:	02000044 	movi	r8,1
 2000b7c:	003f9d06 	br	20009f4 <__alt_mem_epcs_flash_controller+0xfe0001f4>
 2000b80:	80800517 	ldw	r2,20(r16)
 2000b84:	81400417 	ldw	r5,16(r16)
 2000b88:	81c00017 	ldw	r7,0(r16)
 2000b8c:	10a7883a 	add	r19,r2,r2
 2000b90:	9885883a 	add	r2,r19,r2
 2000b94:	1026d7fa 	srli	r19,r2,31
 2000b98:	396dc83a 	sub	r22,r7,r5
 2000b9c:	b1000044 	addi	r4,r22,1
 2000ba0:	9885883a 	add	r2,r19,r2
 2000ba4:	1027d07a 	srai	r19,r2,1
 2000ba8:	2485883a 	add	r2,r4,r18
 2000bac:	980d883a 	mov	r6,r19
 2000bb0:	9880022e 	bgeu	r19,r2,2000bbc <__sfvwrite_r+0x3ec>
 2000bb4:	1027883a 	mov	r19,r2
 2000bb8:	100d883a 	mov	r6,r2
 2000bbc:	18c1000c 	andi	r3,r3,1024
 2000bc0:	18001c26 	beq	r3,zero,2000c34 <__sfvwrite_r+0x464>
 2000bc4:	300b883a 	mov	r5,r6
 2000bc8:	a809883a 	mov	r4,r21
 2000bcc:	2000e140 	call	2000e14 <_malloc_r>
 2000bd0:	102f883a 	mov	r23,r2
 2000bd4:	10002926 	beq	r2,zero,2000c7c <__sfvwrite_r+0x4ac>
 2000bd8:	81400417 	ldw	r5,16(r16)
 2000bdc:	b00d883a 	mov	r6,r22
 2000be0:	1009883a 	mov	r4,r2
 2000be4:	20017040 	call	2001704 <memcpy>
 2000be8:	8080030b 	ldhu	r2,12(r16)
 2000bec:	00fedfc4 	movi	r3,-1153
 2000bf0:	10c4703a 	and	r2,r2,r3
 2000bf4:	10802014 	ori	r2,r2,128
 2000bf8:	8080030d 	sth	r2,12(r16)
 2000bfc:	bd89883a 	add	r4,r23,r22
 2000c00:	9d8fc83a 	sub	r7,r19,r22
 2000c04:	85c00415 	stw	r23,16(r16)
 2000c08:	84c00515 	stw	r19,20(r16)
 2000c0c:	81000015 	stw	r4,0(r16)
 2000c10:	9027883a 	mov	r19,r18
 2000c14:	81c00215 	stw	r7,8(r16)
 2000c18:	902f883a 	mov	r23,r18
 2000c1c:	003f3b06 	br	200090c <__alt_mem_epcs_flash_controller+0xfe00010c>
 2000c20:	800b883a 	mov	r5,r16
 2000c24:	a809883a 	mov	r4,r21
 2000c28:	20026ec0 	call	20026ec <_fflush_r>
 2000c2c:	103fb926 	beq	r2,zero,2000b14 <__alt_mem_epcs_flash_controller+0xfe000314>
 2000c30:	003f6506 	br	20009c8 <__alt_mem_epcs_flash_controller+0xfe0001c8>
 2000c34:	a809883a 	mov	r4,r21
 2000c38:	2001ad00 	call	2001ad0 <_realloc_r>
 2000c3c:	102f883a 	mov	r23,r2
 2000c40:	103fee1e 	bne	r2,zero,2000bfc <__alt_mem_epcs_flash_controller+0xfe0003fc>
 2000c44:	81400417 	ldw	r5,16(r16)
 2000c48:	a809883a 	mov	r4,r21
 2000c4c:	200289c0 	call	200289c <_free_r>
 2000c50:	8080030b 	ldhu	r2,12(r16)
 2000c54:	00ffdfc4 	movi	r3,-129
 2000c58:	1884703a 	and	r2,r3,r2
 2000c5c:	00c00304 	movi	r3,12
 2000c60:	a8c00015 	stw	r3,0(r21)
 2000c64:	003f5906 	br	20009cc <__alt_mem_epcs_flash_controller+0xfe0001cc>
 2000c68:	94c00044 	addi	r19,r18,1
 2000c6c:	02000044 	movi	r8,1
 2000c70:	003f6006 	br	20009f4 <__alt_mem_epcs_flash_controller+0xfe0001f4>
 2000c74:	00bfffc4 	movi	r2,-1
 2000c78:	003f0306 	br	2000888 <__alt_mem_epcs_flash_controller+0xfe000088>
 2000c7c:	00800304 	movi	r2,12
 2000c80:	a8800015 	stw	r2,0(r21)
 2000c84:	8080030b 	ldhu	r2,12(r16)
 2000c88:	003f5006 	br	20009cc <__alt_mem_epcs_flash_controller+0xfe0001cc>

02000c8c <_fwalk>:
 2000c8c:	defff704 	addi	sp,sp,-36
 2000c90:	dd000415 	stw	r20,16(sp)
 2000c94:	dfc00815 	stw	ra,32(sp)
 2000c98:	ddc00715 	stw	r23,28(sp)
 2000c9c:	dd800615 	stw	r22,24(sp)
 2000ca0:	dd400515 	stw	r21,20(sp)
 2000ca4:	dcc00315 	stw	r19,12(sp)
 2000ca8:	dc800215 	stw	r18,8(sp)
 2000cac:	dc400115 	stw	r17,4(sp)
 2000cb0:	dc000015 	stw	r16,0(sp)
 2000cb4:	2500b804 	addi	r20,r4,736
 2000cb8:	a0002326 	beq	r20,zero,2000d48 <_fwalk+0xbc>
 2000cbc:	282b883a 	mov	r21,r5
 2000cc0:	002f883a 	mov	r23,zero
 2000cc4:	05800044 	movi	r22,1
 2000cc8:	04ffffc4 	movi	r19,-1
 2000ccc:	a4400117 	ldw	r17,4(r20)
 2000cd0:	a4800217 	ldw	r18,8(r20)
 2000cd4:	8c7fffc4 	addi	r17,r17,-1
 2000cd8:	88000d16 	blt	r17,zero,2000d10 <_fwalk+0x84>
 2000cdc:	94000304 	addi	r16,r18,12
 2000ce0:	94800384 	addi	r18,r18,14
 2000ce4:	8080000b 	ldhu	r2,0(r16)
 2000ce8:	8c7fffc4 	addi	r17,r17,-1
 2000cec:	813ffd04 	addi	r4,r16,-12
 2000cf0:	b080042e 	bgeu	r22,r2,2000d04 <_fwalk+0x78>
 2000cf4:	9080000f 	ldh	r2,0(r18)
 2000cf8:	14c00226 	beq	r2,r19,2000d04 <_fwalk+0x78>
 2000cfc:	a83ee83a 	callr	r21
 2000d00:	b8aeb03a 	or	r23,r23,r2
 2000d04:	84001a04 	addi	r16,r16,104
 2000d08:	94801a04 	addi	r18,r18,104
 2000d0c:	8cfff51e 	bne	r17,r19,2000ce4 <__alt_mem_epcs_flash_controller+0xfe0004e4>
 2000d10:	a5000017 	ldw	r20,0(r20)
 2000d14:	a03fed1e 	bne	r20,zero,2000ccc <__alt_mem_epcs_flash_controller+0xfe0004cc>
 2000d18:	b805883a 	mov	r2,r23
 2000d1c:	dfc00817 	ldw	ra,32(sp)
 2000d20:	ddc00717 	ldw	r23,28(sp)
 2000d24:	dd800617 	ldw	r22,24(sp)
 2000d28:	dd400517 	ldw	r21,20(sp)
 2000d2c:	dd000417 	ldw	r20,16(sp)
 2000d30:	dcc00317 	ldw	r19,12(sp)
 2000d34:	dc800217 	ldw	r18,8(sp)
 2000d38:	dc400117 	ldw	r17,4(sp)
 2000d3c:	dc000017 	ldw	r16,0(sp)
 2000d40:	dec00904 	addi	sp,sp,36
 2000d44:	f800283a 	ret
 2000d48:	002f883a 	mov	r23,zero
 2000d4c:	003ff206 	br	2000d18 <__alt_mem_epcs_flash_controller+0xfe000518>

02000d50 <_fwalk_reent>:
 2000d50:	defff704 	addi	sp,sp,-36
 2000d54:	dd000415 	stw	r20,16(sp)
 2000d58:	dfc00815 	stw	ra,32(sp)
 2000d5c:	ddc00715 	stw	r23,28(sp)
 2000d60:	dd800615 	stw	r22,24(sp)
 2000d64:	dd400515 	stw	r21,20(sp)
 2000d68:	dcc00315 	stw	r19,12(sp)
 2000d6c:	dc800215 	stw	r18,8(sp)
 2000d70:	dc400115 	stw	r17,4(sp)
 2000d74:	dc000015 	stw	r16,0(sp)
 2000d78:	2500b804 	addi	r20,r4,736
 2000d7c:	a0002326 	beq	r20,zero,2000e0c <_fwalk_reent+0xbc>
 2000d80:	282b883a 	mov	r21,r5
 2000d84:	2027883a 	mov	r19,r4
 2000d88:	002f883a 	mov	r23,zero
 2000d8c:	05800044 	movi	r22,1
 2000d90:	04bfffc4 	movi	r18,-1
 2000d94:	a4400117 	ldw	r17,4(r20)
 2000d98:	a4000217 	ldw	r16,8(r20)
 2000d9c:	8c7fffc4 	addi	r17,r17,-1
 2000da0:	88000c16 	blt	r17,zero,2000dd4 <_fwalk_reent+0x84>
 2000da4:	84000304 	addi	r16,r16,12
 2000da8:	8080000b 	ldhu	r2,0(r16)
 2000dac:	8c7fffc4 	addi	r17,r17,-1
 2000db0:	817ffd04 	addi	r5,r16,-12
 2000db4:	b080052e 	bgeu	r22,r2,2000dcc <_fwalk_reent+0x7c>
 2000db8:	8080008f 	ldh	r2,2(r16)
 2000dbc:	9809883a 	mov	r4,r19
 2000dc0:	14800226 	beq	r2,r18,2000dcc <_fwalk_reent+0x7c>
 2000dc4:	a83ee83a 	callr	r21
 2000dc8:	b8aeb03a 	or	r23,r23,r2
 2000dcc:	84001a04 	addi	r16,r16,104
 2000dd0:	8cbff51e 	bne	r17,r18,2000da8 <__alt_mem_epcs_flash_controller+0xfe0005a8>
 2000dd4:	a5000017 	ldw	r20,0(r20)
 2000dd8:	a03fee1e 	bne	r20,zero,2000d94 <__alt_mem_epcs_flash_controller+0xfe000594>
 2000ddc:	b805883a 	mov	r2,r23
 2000de0:	dfc00817 	ldw	ra,32(sp)
 2000de4:	ddc00717 	ldw	r23,28(sp)
 2000de8:	dd800617 	ldw	r22,24(sp)
 2000dec:	dd400517 	ldw	r21,20(sp)
 2000df0:	dd000417 	ldw	r20,16(sp)
 2000df4:	dcc00317 	ldw	r19,12(sp)
 2000df8:	dc800217 	ldw	r18,8(sp)
 2000dfc:	dc400117 	ldw	r17,4(sp)
 2000e00:	dc000017 	ldw	r16,0(sp)
 2000e04:	dec00904 	addi	sp,sp,36
 2000e08:	f800283a 	ret
 2000e0c:	002f883a 	mov	r23,zero
 2000e10:	003ff206 	br	2000ddc <__alt_mem_epcs_flash_controller+0xfe0005dc>

02000e14 <_malloc_r>:
 2000e14:	defff504 	addi	sp,sp,-44
 2000e18:	dc800315 	stw	r18,12(sp)
 2000e1c:	dfc00a15 	stw	ra,40(sp)
 2000e20:	df000915 	stw	fp,36(sp)
 2000e24:	ddc00815 	stw	r23,32(sp)
 2000e28:	dd800715 	stw	r22,28(sp)
 2000e2c:	dd400615 	stw	r21,24(sp)
 2000e30:	dd000515 	stw	r20,20(sp)
 2000e34:	dcc00415 	stw	r19,16(sp)
 2000e38:	dc400215 	stw	r17,8(sp)
 2000e3c:	dc000115 	stw	r16,4(sp)
 2000e40:	288002c4 	addi	r2,r5,11
 2000e44:	00c00584 	movi	r3,22
 2000e48:	2025883a 	mov	r18,r4
 2000e4c:	18807f2e 	bgeu	r3,r2,200104c <_malloc_r+0x238>
 2000e50:	047ffe04 	movi	r17,-8
 2000e54:	1462703a 	and	r17,r2,r17
 2000e58:	8800a316 	blt	r17,zero,20010e8 <_malloc_r+0x2d4>
 2000e5c:	8940a236 	bltu	r17,r5,20010e8 <_malloc_r+0x2d4>
 2000e60:	20036080 	call	2003608 <__malloc_lock>
 2000e64:	00807dc4 	movi	r2,503
 2000e68:	1441e92e 	bgeu	r2,r17,2001610 <_malloc_r+0x7fc>
 2000e6c:	8804d27a 	srli	r2,r17,9
 2000e70:	1000a126 	beq	r2,zero,20010f8 <_malloc_r+0x2e4>
 2000e74:	00c00104 	movi	r3,4
 2000e78:	18811e36 	bltu	r3,r2,20012f4 <_malloc_r+0x4e0>
 2000e7c:	8804d1ba 	srli	r2,r17,6
 2000e80:	12000e44 	addi	r8,r2,57
 2000e84:	11c00e04 	addi	r7,r2,56
 2000e88:	4209883a 	add	r4,r8,r8
 2000e8c:	04c08034 	movhi	r19,512
 2000e90:	2109883a 	add	r4,r4,r4
 2000e94:	9cdae904 	addi	r19,r19,27556
 2000e98:	2109883a 	add	r4,r4,r4
 2000e9c:	9909883a 	add	r4,r19,r4
 2000ea0:	24000117 	ldw	r16,4(r4)
 2000ea4:	213ffe04 	addi	r4,r4,-8
 2000ea8:	24009726 	beq	r4,r16,2001108 <_malloc_r+0x2f4>
 2000eac:	80800117 	ldw	r2,4(r16)
 2000eb0:	01bfff04 	movi	r6,-4
 2000eb4:	014003c4 	movi	r5,15
 2000eb8:	1184703a 	and	r2,r2,r6
 2000ebc:	1447c83a 	sub	r3,r2,r17
 2000ec0:	28c00716 	blt	r5,r3,2000ee0 <_malloc_r+0xcc>
 2000ec4:	1800920e 	bge	r3,zero,2001110 <_malloc_r+0x2fc>
 2000ec8:	84000317 	ldw	r16,12(r16)
 2000ecc:	24008e26 	beq	r4,r16,2001108 <_malloc_r+0x2f4>
 2000ed0:	80800117 	ldw	r2,4(r16)
 2000ed4:	1184703a 	and	r2,r2,r6
 2000ed8:	1447c83a 	sub	r3,r2,r17
 2000edc:	28fff90e 	bge	r5,r3,2000ec4 <__alt_mem_epcs_flash_controller+0xfe0006c4>
 2000ee0:	3809883a 	mov	r4,r7
 2000ee4:	01808034 	movhi	r6,512
 2000ee8:	9c000417 	ldw	r16,16(r19)
 2000eec:	319ae904 	addi	r6,r6,27556
 2000ef0:	32000204 	addi	r8,r6,8
 2000ef4:	82013426 	beq	r16,r8,20013c8 <_malloc_r+0x5b4>
 2000ef8:	80c00117 	ldw	r3,4(r16)
 2000efc:	00bfff04 	movi	r2,-4
 2000f00:	188e703a 	and	r7,r3,r2
 2000f04:	3c45c83a 	sub	r2,r7,r17
 2000f08:	00c003c4 	movi	r3,15
 2000f0c:	18811f16 	blt	r3,r2,200138c <_malloc_r+0x578>
 2000f10:	32000515 	stw	r8,20(r6)
 2000f14:	32000415 	stw	r8,16(r6)
 2000f18:	10007f0e 	bge	r2,zero,2001118 <_malloc_r+0x304>
 2000f1c:	00807fc4 	movi	r2,511
 2000f20:	11c0fd36 	bltu	r2,r7,2001318 <_malloc_r+0x504>
 2000f24:	3806d0fa 	srli	r3,r7,3
 2000f28:	01c00044 	movi	r7,1
 2000f2c:	30800117 	ldw	r2,4(r6)
 2000f30:	19400044 	addi	r5,r3,1
 2000f34:	294b883a 	add	r5,r5,r5
 2000f38:	1807d0ba 	srai	r3,r3,2
 2000f3c:	294b883a 	add	r5,r5,r5
 2000f40:	294b883a 	add	r5,r5,r5
 2000f44:	298b883a 	add	r5,r5,r6
 2000f48:	38c6983a 	sll	r3,r7,r3
 2000f4c:	29c00017 	ldw	r7,0(r5)
 2000f50:	2a7ffe04 	addi	r9,r5,-8
 2000f54:	1886b03a 	or	r3,r3,r2
 2000f58:	82400315 	stw	r9,12(r16)
 2000f5c:	81c00215 	stw	r7,8(r16)
 2000f60:	30c00115 	stw	r3,4(r6)
 2000f64:	2c000015 	stw	r16,0(r5)
 2000f68:	3c000315 	stw	r16,12(r7)
 2000f6c:	2005d0ba 	srai	r2,r4,2
 2000f70:	01400044 	movi	r5,1
 2000f74:	288a983a 	sll	r5,r5,r2
 2000f78:	19406f36 	bltu	r3,r5,2001138 <_malloc_r+0x324>
 2000f7c:	28c4703a 	and	r2,r5,r3
 2000f80:	10000a1e 	bne	r2,zero,2000fac <_malloc_r+0x198>
 2000f84:	00bfff04 	movi	r2,-4
 2000f88:	294b883a 	add	r5,r5,r5
 2000f8c:	2088703a 	and	r4,r4,r2
 2000f90:	28c4703a 	and	r2,r5,r3
 2000f94:	21000104 	addi	r4,r4,4
 2000f98:	1000041e 	bne	r2,zero,2000fac <_malloc_r+0x198>
 2000f9c:	294b883a 	add	r5,r5,r5
 2000fa0:	28c4703a 	and	r2,r5,r3
 2000fa4:	21000104 	addi	r4,r4,4
 2000fa8:	103ffc26 	beq	r2,zero,2000f9c <__alt_mem_epcs_flash_controller+0xfe00079c>
 2000fac:	02bfff04 	movi	r10,-4
 2000fb0:	024003c4 	movi	r9,15
 2000fb4:	21800044 	addi	r6,r4,1
 2000fb8:	318d883a 	add	r6,r6,r6
 2000fbc:	318d883a 	add	r6,r6,r6
 2000fc0:	318d883a 	add	r6,r6,r6
 2000fc4:	998d883a 	add	r6,r19,r6
 2000fc8:	333ffe04 	addi	r12,r6,-8
 2000fcc:	2017883a 	mov	r11,r4
 2000fd0:	31800104 	addi	r6,r6,4
 2000fd4:	34000017 	ldw	r16,0(r6)
 2000fd8:	31fffd04 	addi	r7,r6,-12
 2000fdc:	81c0041e 	bne	r16,r7,2000ff0 <_malloc_r+0x1dc>
 2000fe0:	0000fb06 	br	20013d0 <_malloc_r+0x5bc>
 2000fe4:	1801030e 	bge	r3,zero,20013f4 <_malloc_r+0x5e0>
 2000fe8:	84000317 	ldw	r16,12(r16)
 2000fec:	81c0f826 	beq	r16,r7,20013d0 <_malloc_r+0x5bc>
 2000ff0:	80800117 	ldw	r2,4(r16)
 2000ff4:	1284703a 	and	r2,r2,r10
 2000ff8:	1447c83a 	sub	r3,r2,r17
 2000ffc:	48fff90e 	bge	r9,r3,2000fe4 <__alt_mem_epcs_flash_controller+0xfe0007e4>
 2001000:	80800317 	ldw	r2,12(r16)
 2001004:	81000217 	ldw	r4,8(r16)
 2001008:	89400054 	ori	r5,r17,1
 200100c:	81400115 	stw	r5,4(r16)
 2001010:	20800315 	stw	r2,12(r4)
 2001014:	11000215 	stw	r4,8(r2)
 2001018:	8463883a 	add	r17,r16,r17
 200101c:	9c400515 	stw	r17,20(r19)
 2001020:	9c400415 	stw	r17,16(r19)
 2001024:	18800054 	ori	r2,r3,1
 2001028:	88800115 	stw	r2,4(r17)
 200102c:	8a000315 	stw	r8,12(r17)
 2001030:	8a000215 	stw	r8,8(r17)
 2001034:	88e3883a 	add	r17,r17,r3
 2001038:	88c00015 	stw	r3,0(r17)
 200103c:	9009883a 	mov	r4,r18
 2001040:	200362c0 	call	200362c <__malloc_unlock>
 2001044:	80800204 	addi	r2,r16,8
 2001048:	00001b06 	br	20010b8 <_malloc_r+0x2a4>
 200104c:	04400404 	movi	r17,16
 2001050:	89402536 	bltu	r17,r5,20010e8 <_malloc_r+0x2d4>
 2001054:	20036080 	call	2003608 <__malloc_lock>
 2001058:	00800184 	movi	r2,6
 200105c:	01000084 	movi	r4,2
 2001060:	04c08034 	movhi	r19,512
 2001064:	1085883a 	add	r2,r2,r2
 2001068:	9cdae904 	addi	r19,r19,27556
 200106c:	1085883a 	add	r2,r2,r2
 2001070:	9885883a 	add	r2,r19,r2
 2001074:	14000117 	ldw	r16,4(r2)
 2001078:	10fffe04 	addi	r3,r2,-8
 200107c:	80c0d926 	beq	r16,r3,20013e4 <_malloc_r+0x5d0>
 2001080:	80c00117 	ldw	r3,4(r16)
 2001084:	81000317 	ldw	r4,12(r16)
 2001088:	00bfff04 	movi	r2,-4
 200108c:	1884703a 	and	r2,r3,r2
 2001090:	81400217 	ldw	r5,8(r16)
 2001094:	8085883a 	add	r2,r16,r2
 2001098:	10c00117 	ldw	r3,4(r2)
 200109c:	29000315 	stw	r4,12(r5)
 20010a0:	21400215 	stw	r5,8(r4)
 20010a4:	18c00054 	ori	r3,r3,1
 20010a8:	10c00115 	stw	r3,4(r2)
 20010ac:	9009883a 	mov	r4,r18
 20010b0:	200362c0 	call	200362c <__malloc_unlock>
 20010b4:	80800204 	addi	r2,r16,8
 20010b8:	dfc00a17 	ldw	ra,40(sp)
 20010bc:	df000917 	ldw	fp,36(sp)
 20010c0:	ddc00817 	ldw	r23,32(sp)
 20010c4:	dd800717 	ldw	r22,28(sp)
 20010c8:	dd400617 	ldw	r21,24(sp)
 20010cc:	dd000517 	ldw	r20,20(sp)
 20010d0:	dcc00417 	ldw	r19,16(sp)
 20010d4:	dc800317 	ldw	r18,12(sp)
 20010d8:	dc400217 	ldw	r17,8(sp)
 20010dc:	dc000117 	ldw	r16,4(sp)
 20010e0:	dec00b04 	addi	sp,sp,44
 20010e4:	f800283a 	ret
 20010e8:	00800304 	movi	r2,12
 20010ec:	90800015 	stw	r2,0(r18)
 20010f0:	0005883a 	mov	r2,zero
 20010f4:	003ff006 	br	20010b8 <__alt_mem_epcs_flash_controller+0xfe0008b8>
 20010f8:	01002004 	movi	r4,128
 20010fc:	02001004 	movi	r8,64
 2001100:	01c00fc4 	movi	r7,63
 2001104:	003f6106 	br	2000e8c <__alt_mem_epcs_flash_controller+0xfe00068c>
 2001108:	4009883a 	mov	r4,r8
 200110c:	003f7506 	br	2000ee4 <__alt_mem_epcs_flash_controller+0xfe0006e4>
 2001110:	81000317 	ldw	r4,12(r16)
 2001114:	003fde06 	br	2001090 <__alt_mem_epcs_flash_controller+0xfe000890>
 2001118:	81c5883a 	add	r2,r16,r7
 200111c:	11400117 	ldw	r5,4(r2)
 2001120:	9009883a 	mov	r4,r18
 2001124:	29400054 	ori	r5,r5,1
 2001128:	11400115 	stw	r5,4(r2)
 200112c:	200362c0 	call	200362c <__malloc_unlock>
 2001130:	80800204 	addi	r2,r16,8
 2001134:	003fe006 	br	20010b8 <__alt_mem_epcs_flash_controller+0xfe0008b8>
 2001138:	9c000217 	ldw	r16,8(r19)
 200113c:	00bfff04 	movi	r2,-4
 2001140:	85800117 	ldw	r22,4(r16)
 2001144:	b0ac703a 	and	r22,r22,r2
 2001148:	b4400336 	bltu	r22,r17,2001158 <_malloc_r+0x344>
 200114c:	b445c83a 	sub	r2,r22,r17
 2001150:	00c003c4 	movi	r3,15
 2001154:	18805d16 	blt	r3,r2,20012cc <_malloc_r+0x4b8>
 2001158:	05c08034 	movhi	r23,512
 200115c:	00808034 	movhi	r2,512
 2001160:	109ff204 	addi	r2,r2,32712
 2001164:	bddcdc04 	addi	r23,r23,29552
 2001168:	15400017 	ldw	r21,0(r2)
 200116c:	b8c00017 	ldw	r3,0(r23)
 2001170:	00bfffc4 	movi	r2,-1
 2001174:	858d883a 	add	r6,r16,r22
 2001178:	8d6b883a 	add	r21,r17,r21
 200117c:	1880ea26 	beq	r3,r2,2001528 <_malloc_r+0x714>
 2001180:	ad4403c4 	addi	r21,r21,4111
 2001184:	00bc0004 	movi	r2,-4096
 2001188:	a8aa703a 	and	r21,r21,r2
 200118c:	a80b883a 	mov	r5,r21
 2001190:	9009883a 	mov	r4,r18
 2001194:	d9800015 	stw	r6,0(sp)
 2001198:	20020340 	call	2002034 <_sbrk_r>
 200119c:	1029883a 	mov	r20,r2
 20011a0:	00bfffc4 	movi	r2,-1
 20011a4:	d9800017 	ldw	r6,0(sp)
 20011a8:	a080e826 	beq	r20,r2,200154c <_malloc_r+0x738>
 20011ac:	a180a636 	bltu	r20,r6,2001448 <_malloc_r+0x634>
 20011b0:	07008034 	movhi	fp,512
 20011b4:	e71ff904 	addi	fp,fp,32740
 20011b8:	e0800017 	ldw	r2,0(fp)
 20011bc:	a887883a 	add	r3,r21,r2
 20011c0:	e0c00015 	stw	r3,0(fp)
 20011c4:	3500e626 	beq	r6,r20,2001560 <_malloc_r+0x74c>
 20011c8:	b9000017 	ldw	r4,0(r23)
 20011cc:	00bfffc4 	movi	r2,-1
 20011d0:	2080ee26 	beq	r4,r2,200158c <_malloc_r+0x778>
 20011d4:	a185c83a 	sub	r2,r20,r6
 20011d8:	10c5883a 	add	r2,r2,r3
 20011dc:	e0800015 	stw	r2,0(fp)
 20011e0:	a0c001cc 	andi	r3,r20,7
 20011e4:	1800bc26 	beq	r3,zero,20014d8 <_malloc_r+0x6c4>
 20011e8:	a0e9c83a 	sub	r20,r20,r3
 20011ec:	00840204 	movi	r2,4104
 20011f0:	a5000204 	addi	r20,r20,8
 20011f4:	10c7c83a 	sub	r3,r2,r3
 20011f8:	a545883a 	add	r2,r20,r21
 20011fc:	1083ffcc 	andi	r2,r2,4095
 2001200:	18abc83a 	sub	r21,r3,r2
 2001204:	a80b883a 	mov	r5,r21
 2001208:	9009883a 	mov	r4,r18
 200120c:	20020340 	call	2002034 <_sbrk_r>
 2001210:	00ffffc4 	movi	r3,-1
 2001214:	10c0e126 	beq	r2,r3,200159c <_malloc_r+0x788>
 2001218:	1505c83a 	sub	r2,r2,r20
 200121c:	1545883a 	add	r2,r2,r21
 2001220:	10800054 	ori	r2,r2,1
 2001224:	e0c00017 	ldw	r3,0(fp)
 2001228:	9d000215 	stw	r20,8(r19)
 200122c:	a0800115 	stw	r2,4(r20)
 2001230:	a8c7883a 	add	r3,r21,r3
 2001234:	e0c00015 	stw	r3,0(fp)
 2001238:	84c00e26 	beq	r16,r19,2001274 <_malloc_r+0x460>
 200123c:	018003c4 	movi	r6,15
 2001240:	3580a72e 	bgeu	r6,r22,20014e0 <_malloc_r+0x6cc>
 2001244:	81400117 	ldw	r5,4(r16)
 2001248:	013ffe04 	movi	r4,-8
 200124c:	b0bffd04 	addi	r2,r22,-12
 2001250:	1104703a 	and	r2,r2,r4
 2001254:	2900004c 	andi	r4,r5,1
 2001258:	2088b03a 	or	r4,r4,r2
 200125c:	81000115 	stw	r4,4(r16)
 2001260:	01400144 	movi	r5,5
 2001264:	8089883a 	add	r4,r16,r2
 2001268:	21400115 	stw	r5,4(r4)
 200126c:	21400215 	stw	r5,8(r4)
 2001270:	3080cd36 	bltu	r6,r2,20015a8 <_malloc_r+0x794>
 2001274:	00808034 	movhi	r2,512
 2001278:	109ff104 	addi	r2,r2,32708
 200127c:	11000017 	ldw	r4,0(r2)
 2001280:	20c0012e 	bgeu	r4,r3,2001288 <_malloc_r+0x474>
 2001284:	10c00015 	stw	r3,0(r2)
 2001288:	00808034 	movhi	r2,512
 200128c:	109ff004 	addi	r2,r2,32704
 2001290:	11000017 	ldw	r4,0(r2)
 2001294:	9c000217 	ldw	r16,8(r19)
 2001298:	20c0012e 	bgeu	r4,r3,20012a0 <_malloc_r+0x48c>
 200129c:	10c00015 	stw	r3,0(r2)
 20012a0:	80c00117 	ldw	r3,4(r16)
 20012a4:	00bfff04 	movi	r2,-4
 20012a8:	1886703a 	and	r3,r3,r2
 20012ac:	1c45c83a 	sub	r2,r3,r17
 20012b0:	1c400236 	bltu	r3,r17,20012bc <_malloc_r+0x4a8>
 20012b4:	00c003c4 	movi	r3,15
 20012b8:	18800416 	blt	r3,r2,20012cc <_malloc_r+0x4b8>
 20012bc:	9009883a 	mov	r4,r18
 20012c0:	200362c0 	call	200362c <__malloc_unlock>
 20012c4:	0005883a 	mov	r2,zero
 20012c8:	003f7b06 	br	20010b8 <__alt_mem_epcs_flash_controller+0xfe0008b8>
 20012cc:	88c00054 	ori	r3,r17,1
 20012d0:	80c00115 	stw	r3,4(r16)
 20012d4:	8463883a 	add	r17,r16,r17
 20012d8:	10800054 	ori	r2,r2,1
 20012dc:	9c400215 	stw	r17,8(r19)
 20012e0:	88800115 	stw	r2,4(r17)
 20012e4:	9009883a 	mov	r4,r18
 20012e8:	200362c0 	call	200362c <__malloc_unlock>
 20012ec:	80800204 	addi	r2,r16,8
 20012f0:	003f7106 	br	20010b8 <__alt_mem_epcs_flash_controller+0xfe0008b8>
 20012f4:	00c00504 	movi	r3,20
 20012f8:	18804a2e 	bgeu	r3,r2,2001424 <_malloc_r+0x610>
 20012fc:	00c01504 	movi	r3,84
 2001300:	18806e36 	bltu	r3,r2,20014bc <_malloc_r+0x6a8>
 2001304:	8804d33a 	srli	r2,r17,12
 2001308:	12001bc4 	addi	r8,r2,111
 200130c:	11c01b84 	addi	r7,r2,110
 2001310:	4209883a 	add	r4,r8,r8
 2001314:	003edd06 	br	2000e8c <__alt_mem_epcs_flash_controller+0xfe00068c>
 2001318:	3804d27a 	srli	r2,r7,9
 200131c:	00c00104 	movi	r3,4
 2001320:	1880442e 	bgeu	r3,r2,2001434 <_malloc_r+0x620>
 2001324:	00c00504 	movi	r3,20
 2001328:	18808136 	bltu	r3,r2,2001530 <_malloc_r+0x71c>
 200132c:	11401704 	addi	r5,r2,92
 2001330:	10c016c4 	addi	r3,r2,91
 2001334:	294b883a 	add	r5,r5,r5
 2001338:	294b883a 	add	r5,r5,r5
 200133c:	294b883a 	add	r5,r5,r5
 2001340:	994b883a 	add	r5,r19,r5
 2001344:	28800017 	ldw	r2,0(r5)
 2001348:	01808034 	movhi	r6,512
 200134c:	297ffe04 	addi	r5,r5,-8
 2001350:	319ae904 	addi	r6,r6,27556
 2001354:	28806526 	beq	r5,r2,20014ec <_malloc_r+0x6d8>
 2001358:	01bfff04 	movi	r6,-4
 200135c:	10c00117 	ldw	r3,4(r2)
 2001360:	1986703a 	and	r3,r3,r6
 2001364:	38c0022e 	bgeu	r7,r3,2001370 <_malloc_r+0x55c>
 2001368:	10800217 	ldw	r2,8(r2)
 200136c:	28bffb1e 	bne	r5,r2,200135c <__alt_mem_epcs_flash_controller+0xfe000b5c>
 2001370:	11400317 	ldw	r5,12(r2)
 2001374:	98c00117 	ldw	r3,4(r19)
 2001378:	81400315 	stw	r5,12(r16)
 200137c:	80800215 	stw	r2,8(r16)
 2001380:	2c000215 	stw	r16,8(r5)
 2001384:	14000315 	stw	r16,12(r2)
 2001388:	003ef806 	br	2000f6c <__alt_mem_epcs_flash_controller+0xfe00076c>
 200138c:	88c00054 	ori	r3,r17,1
 2001390:	80c00115 	stw	r3,4(r16)
 2001394:	8463883a 	add	r17,r16,r17
 2001398:	34400515 	stw	r17,20(r6)
 200139c:	34400415 	stw	r17,16(r6)
 20013a0:	10c00054 	ori	r3,r2,1
 20013a4:	8a000315 	stw	r8,12(r17)
 20013a8:	8a000215 	stw	r8,8(r17)
 20013ac:	88c00115 	stw	r3,4(r17)
 20013b0:	88a3883a 	add	r17,r17,r2
 20013b4:	88800015 	stw	r2,0(r17)
 20013b8:	9009883a 	mov	r4,r18
 20013bc:	200362c0 	call	200362c <__malloc_unlock>
 20013c0:	80800204 	addi	r2,r16,8
 20013c4:	003f3c06 	br	20010b8 <__alt_mem_epcs_flash_controller+0xfe0008b8>
 20013c8:	30c00117 	ldw	r3,4(r6)
 20013cc:	003ee706 	br	2000f6c <__alt_mem_epcs_flash_controller+0xfe00076c>
 20013d0:	5ac00044 	addi	r11,r11,1
 20013d4:	588000cc 	andi	r2,r11,3
 20013d8:	31800204 	addi	r6,r6,8
 20013dc:	103efd1e 	bne	r2,zero,2000fd4 <__alt_mem_epcs_flash_controller+0xfe0007d4>
 20013e0:	00002406 	br	2001474 <_malloc_r+0x660>
 20013e4:	14000317 	ldw	r16,12(r2)
 20013e8:	143f251e 	bne	r2,r16,2001080 <__alt_mem_epcs_flash_controller+0xfe000880>
 20013ec:	21000084 	addi	r4,r4,2
 20013f0:	003ebc06 	br	2000ee4 <__alt_mem_epcs_flash_controller+0xfe0006e4>
 20013f4:	8085883a 	add	r2,r16,r2
 20013f8:	10c00117 	ldw	r3,4(r2)
 20013fc:	81000317 	ldw	r4,12(r16)
 2001400:	81400217 	ldw	r5,8(r16)
 2001404:	18c00054 	ori	r3,r3,1
 2001408:	10c00115 	stw	r3,4(r2)
 200140c:	29000315 	stw	r4,12(r5)
 2001410:	21400215 	stw	r5,8(r4)
 2001414:	9009883a 	mov	r4,r18
 2001418:	200362c0 	call	200362c <__malloc_unlock>
 200141c:	80800204 	addi	r2,r16,8
 2001420:	003f2506 	br	20010b8 <__alt_mem_epcs_flash_controller+0xfe0008b8>
 2001424:	12001704 	addi	r8,r2,92
 2001428:	11c016c4 	addi	r7,r2,91
 200142c:	4209883a 	add	r4,r8,r8
 2001430:	003e9606 	br	2000e8c <__alt_mem_epcs_flash_controller+0xfe00068c>
 2001434:	3804d1ba 	srli	r2,r7,6
 2001438:	11400e44 	addi	r5,r2,57
 200143c:	10c00e04 	addi	r3,r2,56
 2001440:	294b883a 	add	r5,r5,r5
 2001444:	003fbc06 	br	2001338 <__alt_mem_epcs_flash_controller+0xfe000b38>
 2001448:	84ff5926 	beq	r16,r19,20011b0 <__alt_mem_epcs_flash_controller+0xfe0009b0>
 200144c:	00808034 	movhi	r2,512
 2001450:	109ae904 	addi	r2,r2,27556
 2001454:	14000217 	ldw	r16,8(r2)
 2001458:	00bfff04 	movi	r2,-4
 200145c:	80c00117 	ldw	r3,4(r16)
 2001460:	1886703a 	and	r3,r3,r2
 2001464:	003f9106 	br	20012ac <__alt_mem_epcs_flash_controller+0xfe000aac>
 2001468:	60800217 	ldw	r2,8(r12)
 200146c:	213fffc4 	addi	r4,r4,-1
 2001470:	1300651e 	bne	r2,r12,2001608 <_malloc_r+0x7f4>
 2001474:	208000cc 	andi	r2,r4,3
 2001478:	633ffe04 	addi	r12,r12,-8
 200147c:	103ffa1e 	bne	r2,zero,2001468 <__alt_mem_epcs_flash_controller+0xfe000c68>
 2001480:	98800117 	ldw	r2,4(r19)
 2001484:	0146303a 	nor	r3,zero,r5
 2001488:	1884703a 	and	r2,r3,r2
 200148c:	98800115 	stw	r2,4(r19)
 2001490:	294b883a 	add	r5,r5,r5
 2001494:	117f2836 	bltu	r2,r5,2001138 <__alt_mem_epcs_flash_controller+0xfe000938>
 2001498:	283f2726 	beq	r5,zero,2001138 <__alt_mem_epcs_flash_controller+0xfe000938>
 200149c:	2886703a 	and	r3,r5,r2
 20014a0:	5809883a 	mov	r4,r11
 20014a4:	183ec31e 	bne	r3,zero,2000fb4 <__alt_mem_epcs_flash_controller+0xfe0007b4>
 20014a8:	294b883a 	add	r5,r5,r5
 20014ac:	2886703a 	and	r3,r5,r2
 20014b0:	21000104 	addi	r4,r4,4
 20014b4:	183ffc26 	beq	r3,zero,20014a8 <__alt_mem_epcs_flash_controller+0xfe000ca8>
 20014b8:	003ebe06 	br	2000fb4 <__alt_mem_epcs_flash_controller+0xfe0007b4>
 20014bc:	00c05504 	movi	r3,340
 20014c0:	18801236 	bltu	r3,r2,200150c <_malloc_r+0x6f8>
 20014c4:	8804d3fa 	srli	r2,r17,15
 20014c8:	12001e04 	addi	r8,r2,120
 20014cc:	11c01dc4 	addi	r7,r2,119
 20014d0:	4209883a 	add	r4,r8,r8
 20014d4:	003e6d06 	br	2000e8c <__alt_mem_epcs_flash_controller+0xfe00068c>
 20014d8:	00c40004 	movi	r3,4096
 20014dc:	003f4606 	br	20011f8 <__alt_mem_epcs_flash_controller+0xfe0009f8>
 20014e0:	00800044 	movi	r2,1
 20014e4:	a0800115 	stw	r2,4(r20)
 20014e8:	003f7406 	br	20012bc <__alt_mem_epcs_flash_controller+0xfe000abc>
 20014ec:	1805d0ba 	srai	r2,r3,2
 20014f0:	01c00044 	movi	r7,1
 20014f4:	30c00117 	ldw	r3,4(r6)
 20014f8:	388e983a 	sll	r7,r7,r2
 20014fc:	2805883a 	mov	r2,r5
 2001500:	38c6b03a 	or	r3,r7,r3
 2001504:	30c00115 	stw	r3,4(r6)
 2001508:	003f9b06 	br	2001378 <__alt_mem_epcs_flash_controller+0xfe000b78>
 200150c:	00c15504 	movi	r3,1364
 2001510:	18801a36 	bltu	r3,r2,200157c <_malloc_r+0x768>
 2001514:	8804d4ba 	srli	r2,r17,18
 2001518:	12001f44 	addi	r8,r2,125
 200151c:	11c01f04 	addi	r7,r2,124
 2001520:	4209883a 	add	r4,r8,r8
 2001524:	003e5906 	br	2000e8c <__alt_mem_epcs_flash_controller+0xfe00068c>
 2001528:	ad400404 	addi	r21,r21,16
 200152c:	003f1706 	br	200118c <__alt_mem_epcs_flash_controller+0xfe00098c>
 2001530:	00c01504 	movi	r3,84
 2001534:	18802336 	bltu	r3,r2,20015c4 <_malloc_r+0x7b0>
 2001538:	3804d33a 	srli	r2,r7,12
 200153c:	11401bc4 	addi	r5,r2,111
 2001540:	10c01b84 	addi	r3,r2,110
 2001544:	294b883a 	add	r5,r5,r5
 2001548:	003f7b06 	br	2001338 <__alt_mem_epcs_flash_controller+0xfe000b38>
 200154c:	9c000217 	ldw	r16,8(r19)
 2001550:	00bfff04 	movi	r2,-4
 2001554:	80c00117 	ldw	r3,4(r16)
 2001558:	1886703a 	and	r3,r3,r2
 200155c:	003f5306 	br	20012ac <__alt_mem_epcs_flash_controller+0xfe000aac>
 2001560:	3083ffcc 	andi	r2,r6,4095
 2001564:	103f181e 	bne	r2,zero,20011c8 <__alt_mem_epcs_flash_controller+0xfe0009c8>
 2001568:	99000217 	ldw	r4,8(r19)
 200156c:	b545883a 	add	r2,r22,r21
 2001570:	10800054 	ori	r2,r2,1
 2001574:	20800115 	stw	r2,4(r4)
 2001578:	003f3e06 	br	2001274 <__alt_mem_epcs_flash_controller+0xfe000a74>
 200157c:	01003f84 	movi	r4,254
 2001580:	02001fc4 	movi	r8,127
 2001584:	01c01f84 	movi	r7,126
 2001588:	003e4006 	br	2000e8c <__alt_mem_epcs_flash_controller+0xfe00068c>
 200158c:	00808034 	movhi	r2,512
 2001590:	109cdc04 	addi	r2,r2,29552
 2001594:	15000015 	stw	r20,0(r2)
 2001598:	003f1106 	br	20011e0 <__alt_mem_epcs_flash_controller+0xfe0009e0>
 200159c:	00800044 	movi	r2,1
 20015a0:	002b883a 	mov	r21,zero
 20015a4:	003f1f06 	br	2001224 <__alt_mem_epcs_flash_controller+0xfe000a24>
 20015a8:	81400204 	addi	r5,r16,8
 20015ac:	9009883a 	mov	r4,r18
 20015b0:	200289c0 	call	200289c <_free_r>
 20015b4:	00808034 	movhi	r2,512
 20015b8:	109ff904 	addi	r2,r2,32740
 20015bc:	10c00017 	ldw	r3,0(r2)
 20015c0:	003f2c06 	br	2001274 <__alt_mem_epcs_flash_controller+0xfe000a74>
 20015c4:	00c05504 	movi	r3,340
 20015c8:	18800536 	bltu	r3,r2,20015e0 <_malloc_r+0x7cc>
 20015cc:	3804d3fa 	srli	r2,r7,15
 20015d0:	11401e04 	addi	r5,r2,120
 20015d4:	10c01dc4 	addi	r3,r2,119
 20015d8:	294b883a 	add	r5,r5,r5
 20015dc:	003f5606 	br	2001338 <__alt_mem_epcs_flash_controller+0xfe000b38>
 20015e0:	00c15504 	movi	r3,1364
 20015e4:	18800536 	bltu	r3,r2,20015fc <_malloc_r+0x7e8>
 20015e8:	3804d4ba 	srli	r2,r7,18
 20015ec:	11401f44 	addi	r5,r2,125
 20015f0:	10c01f04 	addi	r3,r2,124
 20015f4:	294b883a 	add	r5,r5,r5
 20015f8:	003f4f06 	br	2001338 <__alt_mem_epcs_flash_controller+0xfe000b38>
 20015fc:	01403f84 	movi	r5,254
 2001600:	00c01f84 	movi	r3,126
 2001604:	003f4c06 	br	2001338 <__alt_mem_epcs_flash_controller+0xfe000b38>
 2001608:	98800117 	ldw	r2,4(r19)
 200160c:	003fa006 	br	2001490 <__alt_mem_epcs_flash_controller+0xfe000c90>
 2001610:	8808d0fa 	srli	r4,r17,3
 2001614:	20800044 	addi	r2,r4,1
 2001618:	1085883a 	add	r2,r2,r2
 200161c:	003e9006 	br	2001060 <__alt_mem_epcs_flash_controller+0xfe000860>

02001620 <memchr>:
 2001620:	208000cc 	andi	r2,r4,3
 2001624:	280f883a 	mov	r7,r5
 2001628:	10003426 	beq	r2,zero,20016fc <memchr+0xdc>
 200162c:	30bfffc4 	addi	r2,r6,-1
 2001630:	30001a26 	beq	r6,zero,200169c <memchr+0x7c>
 2001634:	20c00003 	ldbu	r3,0(r4)
 2001638:	29803fcc 	andi	r6,r5,255
 200163c:	30c0051e 	bne	r6,r3,2001654 <memchr+0x34>
 2001640:	00001806 	br	20016a4 <memchr+0x84>
 2001644:	10001526 	beq	r2,zero,200169c <memchr+0x7c>
 2001648:	20c00003 	ldbu	r3,0(r4)
 200164c:	10bfffc4 	addi	r2,r2,-1
 2001650:	30c01426 	beq	r6,r3,20016a4 <memchr+0x84>
 2001654:	21000044 	addi	r4,r4,1
 2001658:	20c000cc 	andi	r3,r4,3
 200165c:	183ff91e 	bne	r3,zero,2001644 <__alt_mem_epcs_flash_controller+0xfe000e44>
 2001660:	020000c4 	movi	r8,3
 2001664:	40801136 	bltu	r8,r2,20016ac <memchr+0x8c>
 2001668:	10000c26 	beq	r2,zero,200169c <memchr+0x7c>
 200166c:	20c00003 	ldbu	r3,0(r4)
 2001670:	29403fcc 	andi	r5,r5,255
 2001674:	28c00b26 	beq	r5,r3,20016a4 <memchr+0x84>
 2001678:	20c00044 	addi	r3,r4,1
 200167c:	39803fcc 	andi	r6,r7,255
 2001680:	2089883a 	add	r4,r4,r2
 2001684:	00000306 	br	2001694 <memchr+0x74>
 2001688:	18c00044 	addi	r3,r3,1
 200168c:	197fffc3 	ldbu	r5,-1(r3)
 2001690:	31400526 	beq	r6,r5,20016a8 <memchr+0x88>
 2001694:	1805883a 	mov	r2,r3
 2001698:	20fffb1e 	bne	r4,r3,2001688 <__alt_mem_epcs_flash_controller+0xfe000e88>
 200169c:	0005883a 	mov	r2,zero
 20016a0:	f800283a 	ret
 20016a4:	2005883a 	mov	r2,r4
 20016a8:	f800283a 	ret
 20016ac:	28c03fcc 	andi	r3,r5,255
 20016b0:	1812923a 	slli	r9,r3,8
 20016b4:	02ffbff4 	movhi	r11,65279
 20016b8:	02a02074 	movhi	r10,32897
 20016bc:	48d2b03a 	or	r9,r9,r3
 20016c0:	4806943a 	slli	r3,r9,16
 20016c4:	5affbfc4 	addi	r11,r11,-257
 20016c8:	52a02004 	addi	r10,r10,-32640
 20016cc:	48d2b03a 	or	r9,r9,r3
 20016d0:	20c00017 	ldw	r3,0(r4)
 20016d4:	48c6f03a 	xor	r3,r9,r3
 20016d8:	1acd883a 	add	r6,r3,r11
 20016dc:	00c6303a 	nor	r3,zero,r3
 20016e0:	30c6703a 	and	r3,r6,r3
 20016e4:	1a86703a 	and	r3,r3,r10
 20016e8:	183fe01e 	bne	r3,zero,200166c <__alt_mem_epcs_flash_controller+0xfe000e6c>
 20016ec:	10bfff04 	addi	r2,r2,-4
 20016f0:	21000104 	addi	r4,r4,4
 20016f4:	40bff636 	bltu	r8,r2,20016d0 <__alt_mem_epcs_flash_controller+0xfe000ed0>
 20016f8:	003fdb06 	br	2001668 <__alt_mem_epcs_flash_controller+0xfe000e68>
 20016fc:	3005883a 	mov	r2,r6
 2001700:	003fd706 	br	2001660 <__alt_mem_epcs_flash_controller+0xfe000e60>

02001704 <memcpy>:
 2001704:	defffd04 	addi	sp,sp,-12
 2001708:	dfc00215 	stw	ra,8(sp)
 200170c:	dc400115 	stw	r17,4(sp)
 2001710:	dc000015 	stw	r16,0(sp)
 2001714:	00c003c4 	movi	r3,15
 2001718:	2005883a 	mov	r2,r4
 200171c:	1980452e 	bgeu	r3,r6,2001834 <memcpy+0x130>
 2001720:	2906b03a 	or	r3,r5,r4
 2001724:	18c000cc 	andi	r3,r3,3
 2001728:	1800441e 	bne	r3,zero,200183c <memcpy+0x138>
 200172c:	347ffc04 	addi	r17,r6,-16
 2001730:	8822d13a 	srli	r17,r17,4
 2001734:	28c00104 	addi	r3,r5,4
 2001738:	23400104 	addi	r13,r4,4
 200173c:	8820913a 	slli	r16,r17,4
 2001740:	2b000204 	addi	r12,r5,8
 2001744:	22c00204 	addi	r11,r4,8
 2001748:	84000504 	addi	r16,r16,20
 200174c:	2a800304 	addi	r10,r5,12
 2001750:	22400304 	addi	r9,r4,12
 2001754:	2c21883a 	add	r16,r5,r16
 2001758:	2811883a 	mov	r8,r5
 200175c:	200f883a 	mov	r7,r4
 2001760:	41000017 	ldw	r4,0(r8)
 2001764:	1fc00017 	ldw	ra,0(r3)
 2001768:	63c00017 	ldw	r15,0(r12)
 200176c:	39000015 	stw	r4,0(r7)
 2001770:	53800017 	ldw	r14,0(r10)
 2001774:	6fc00015 	stw	ra,0(r13)
 2001778:	5bc00015 	stw	r15,0(r11)
 200177c:	4b800015 	stw	r14,0(r9)
 2001780:	18c00404 	addi	r3,r3,16
 2001784:	39c00404 	addi	r7,r7,16
 2001788:	42000404 	addi	r8,r8,16
 200178c:	6b400404 	addi	r13,r13,16
 2001790:	63000404 	addi	r12,r12,16
 2001794:	5ac00404 	addi	r11,r11,16
 2001798:	52800404 	addi	r10,r10,16
 200179c:	4a400404 	addi	r9,r9,16
 20017a0:	1c3fef1e 	bne	r3,r16,2001760 <__alt_mem_epcs_flash_controller+0xfe000f60>
 20017a4:	89c00044 	addi	r7,r17,1
 20017a8:	380e913a 	slli	r7,r7,4
 20017ac:	310003cc 	andi	r4,r6,15
 20017b0:	02c000c4 	movi	r11,3
 20017b4:	11c7883a 	add	r3,r2,r7
 20017b8:	29cb883a 	add	r5,r5,r7
 20017bc:	5900212e 	bgeu	r11,r4,2001844 <memcpy+0x140>
 20017c0:	1813883a 	mov	r9,r3
 20017c4:	2811883a 	mov	r8,r5
 20017c8:	200f883a 	mov	r7,r4
 20017cc:	42800017 	ldw	r10,0(r8)
 20017d0:	4a400104 	addi	r9,r9,4
 20017d4:	39ffff04 	addi	r7,r7,-4
 20017d8:	4abfff15 	stw	r10,-4(r9)
 20017dc:	42000104 	addi	r8,r8,4
 20017e0:	59fffa36 	bltu	r11,r7,20017cc <__alt_mem_epcs_flash_controller+0xfe000fcc>
 20017e4:	213fff04 	addi	r4,r4,-4
 20017e8:	2008d0ba 	srli	r4,r4,2
 20017ec:	318000cc 	andi	r6,r6,3
 20017f0:	21000044 	addi	r4,r4,1
 20017f4:	2109883a 	add	r4,r4,r4
 20017f8:	2109883a 	add	r4,r4,r4
 20017fc:	1907883a 	add	r3,r3,r4
 2001800:	290b883a 	add	r5,r5,r4
 2001804:	30000626 	beq	r6,zero,2001820 <memcpy+0x11c>
 2001808:	198d883a 	add	r6,r3,r6
 200180c:	29c00003 	ldbu	r7,0(r5)
 2001810:	18c00044 	addi	r3,r3,1
 2001814:	29400044 	addi	r5,r5,1
 2001818:	19ffffc5 	stb	r7,-1(r3)
 200181c:	19bffb1e 	bne	r3,r6,200180c <__alt_mem_epcs_flash_controller+0xfe00100c>
 2001820:	dfc00217 	ldw	ra,8(sp)
 2001824:	dc400117 	ldw	r17,4(sp)
 2001828:	dc000017 	ldw	r16,0(sp)
 200182c:	dec00304 	addi	sp,sp,12
 2001830:	f800283a 	ret
 2001834:	2007883a 	mov	r3,r4
 2001838:	003ff206 	br	2001804 <__alt_mem_epcs_flash_controller+0xfe001004>
 200183c:	2007883a 	mov	r3,r4
 2001840:	003ff106 	br	2001808 <__alt_mem_epcs_flash_controller+0xfe001008>
 2001844:	200d883a 	mov	r6,r4
 2001848:	003fee06 	br	2001804 <__alt_mem_epcs_flash_controller+0xfe001004>

0200184c <memmove>:
 200184c:	2005883a 	mov	r2,r4
 2001850:	29000b2e 	bgeu	r5,r4,2001880 <memmove+0x34>
 2001854:	298f883a 	add	r7,r5,r6
 2001858:	21c0092e 	bgeu	r4,r7,2001880 <memmove+0x34>
 200185c:	2187883a 	add	r3,r4,r6
 2001860:	198bc83a 	sub	r5,r3,r6
 2001864:	30004826 	beq	r6,zero,2001988 <memmove+0x13c>
 2001868:	39ffffc4 	addi	r7,r7,-1
 200186c:	39000003 	ldbu	r4,0(r7)
 2001870:	18ffffc4 	addi	r3,r3,-1
 2001874:	19000005 	stb	r4,0(r3)
 2001878:	28fffb1e 	bne	r5,r3,2001868 <__alt_mem_epcs_flash_controller+0xfe001068>
 200187c:	f800283a 	ret
 2001880:	00c003c4 	movi	r3,15
 2001884:	1980412e 	bgeu	r3,r6,200198c <memmove+0x140>
 2001888:	2886b03a 	or	r3,r5,r2
 200188c:	18c000cc 	andi	r3,r3,3
 2001890:	1800401e 	bne	r3,zero,2001994 <memmove+0x148>
 2001894:	33fffc04 	addi	r15,r6,-16
 2001898:	781ed13a 	srli	r15,r15,4
 200189c:	28c00104 	addi	r3,r5,4
 20018a0:	13400104 	addi	r13,r2,4
 20018a4:	781c913a 	slli	r14,r15,4
 20018a8:	2b000204 	addi	r12,r5,8
 20018ac:	12c00204 	addi	r11,r2,8
 20018b0:	73800504 	addi	r14,r14,20
 20018b4:	2a800304 	addi	r10,r5,12
 20018b8:	12400304 	addi	r9,r2,12
 20018bc:	2b9d883a 	add	r14,r5,r14
 20018c0:	2811883a 	mov	r8,r5
 20018c4:	100f883a 	mov	r7,r2
 20018c8:	41000017 	ldw	r4,0(r8)
 20018cc:	39c00404 	addi	r7,r7,16
 20018d0:	18c00404 	addi	r3,r3,16
 20018d4:	393ffc15 	stw	r4,-16(r7)
 20018d8:	193ffc17 	ldw	r4,-16(r3)
 20018dc:	6b400404 	addi	r13,r13,16
 20018e0:	5ac00404 	addi	r11,r11,16
 20018e4:	693ffc15 	stw	r4,-16(r13)
 20018e8:	61000017 	ldw	r4,0(r12)
 20018ec:	4a400404 	addi	r9,r9,16
 20018f0:	42000404 	addi	r8,r8,16
 20018f4:	593ffc15 	stw	r4,-16(r11)
 20018f8:	51000017 	ldw	r4,0(r10)
 20018fc:	63000404 	addi	r12,r12,16
 2001900:	52800404 	addi	r10,r10,16
 2001904:	493ffc15 	stw	r4,-16(r9)
 2001908:	1bbfef1e 	bne	r3,r14,20018c8 <__alt_mem_epcs_flash_controller+0xfe0010c8>
 200190c:	79000044 	addi	r4,r15,1
 2001910:	2008913a 	slli	r4,r4,4
 2001914:	328003cc 	andi	r10,r6,15
 2001918:	02c000c4 	movi	r11,3
 200191c:	1107883a 	add	r3,r2,r4
 2001920:	290b883a 	add	r5,r5,r4
 2001924:	5a801e2e 	bgeu	r11,r10,20019a0 <memmove+0x154>
 2001928:	1813883a 	mov	r9,r3
 200192c:	2811883a 	mov	r8,r5
 2001930:	500f883a 	mov	r7,r10
 2001934:	41000017 	ldw	r4,0(r8)
 2001938:	4a400104 	addi	r9,r9,4
 200193c:	39ffff04 	addi	r7,r7,-4
 2001940:	493fff15 	stw	r4,-4(r9)
 2001944:	42000104 	addi	r8,r8,4
 2001948:	59fffa36 	bltu	r11,r7,2001934 <__alt_mem_epcs_flash_controller+0xfe001134>
 200194c:	513fff04 	addi	r4,r10,-4
 2001950:	2008d0ba 	srli	r4,r4,2
 2001954:	318000cc 	andi	r6,r6,3
 2001958:	21000044 	addi	r4,r4,1
 200195c:	2109883a 	add	r4,r4,r4
 2001960:	2109883a 	add	r4,r4,r4
 2001964:	1907883a 	add	r3,r3,r4
 2001968:	290b883a 	add	r5,r5,r4
 200196c:	30000b26 	beq	r6,zero,200199c <memmove+0x150>
 2001970:	198d883a 	add	r6,r3,r6
 2001974:	29c00003 	ldbu	r7,0(r5)
 2001978:	18c00044 	addi	r3,r3,1
 200197c:	29400044 	addi	r5,r5,1
 2001980:	19ffffc5 	stb	r7,-1(r3)
 2001984:	19bffb1e 	bne	r3,r6,2001974 <__alt_mem_epcs_flash_controller+0xfe001174>
 2001988:	f800283a 	ret
 200198c:	1007883a 	mov	r3,r2
 2001990:	003ff606 	br	200196c <__alt_mem_epcs_flash_controller+0xfe00116c>
 2001994:	1007883a 	mov	r3,r2
 2001998:	003ff506 	br	2001970 <__alt_mem_epcs_flash_controller+0xfe001170>
 200199c:	f800283a 	ret
 20019a0:	500d883a 	mov	r6,r10
 20019a4:	003ff106 	br	200196c <__alt_mem_epcs_flash_controller+0xfe00116c>

020019a8 <memset>:
 20019a8:	20c000cc 	andi	r3,r4,3
 20019ac:	2005883a 	mov	r2,r4
 20019b0:	18004426 	beq	r3,zero,2001ac4 <memset+0x11c>
 20019b4:	31ffffc4 	addi	r7,r6,-1
 20019b8:	30004026 	beq	r6,zero,2001abc <memset+0x114>
 20019bc:	2813883a 	mov	r9,r5
 20019c0:	200d883a 	mov	r6,r4
 20019c4:	2007883a 	mov	r3,r4
 20019c8:	00000406 	br	20019dc <memset+0x34>
 20019cc:	3a3fffc4 	addi	r8,r7,-1
 20019d0:	31800044 	addi	r6,r6,1
 20019d4:	38003926 	beq	r7,zero,2001abc <memset+0x114>
 20019d8:	400f883a 	mov	r7,r8
 20019dc:	18c00044 	addi	r3,r3,1
 20019e0:	32400005 	stb	r9,0(r6)
 20019e4:	1a0000cc 	andi	r8,r3,3
 20019e8:	403ff81e 	bne	r8,zero,20019cc <__alt_mem_epcs_flash_controller+0xfe0011cc>
 20019ec:	010000c4 	movi	r4,3
 20019f0:	21c02d2e 	bgeu	r4,r7,2001aa8 <memset+0x100>
 20019f4:	29003fcc 	andi	r4,r5,255
 20019f8:	200c923a 	slli	r6,r4,8
 20019fc:	3108b03a 	or	r4,r6,r4
 2001a00:	200c943a 	slli	r6,r4,16
 2001a04:	218cb03a 	or	r6,r4,r6
 2001a08:	010003c4 	movi	r4,15
 2001a0c:	21c0182e 	bgeu	r4,r7,2001a70 <memset+0xc8>
 2001a10:	3b3ffc04 	addi	r12,r7,-16
 2001a14:	6018d13a 	srli	r12,r12,4
 2001a18:	1a000104 	addi	r8,r3,4
 2001a1c:	1ac00204 	addi	r11,r3,8
 2001a20:	6008913a 	slli	r4,r12,4
 2001a24:	1a800304 	addi	r10,r3,12
 2001a28:	1813883a 	mov	r9,r3
 2001a2c:	21000504 	addi	r4,r4,20
 2001a30:	1909883a 	add	r4,r3,r4
 2001a34:	49800015 	stw	r6,0(r9)
 2001a38:	41800015 	stw	r6,0(r8)
 2001a3c:	59800015 	stw	r6,0(r11)
 2001a40:	51800015 	stw	r6,0(r10)
 2001a44:	42000404 	addi	r8,r8,16
 2001a48:	4a400404 	addi	r9,r9,16
 2001a4c:	5ac00404 	addi	r11,r11,16
 2001a50:	52800404 	addi	r10,r10,16
 2001a54:	413ff71e 	bne	r8,r4,2001a34 <__alt_mem_epcs_flash_controller+0xfe001234>
 2001a58:	63000044 	addi	r12,r12,1
 2001a5c:	6018913a 	slli	r12,r12,4
 2001a60:	39c003cc 	andi	r7,r7,15
 2001a64:	010000c4 	movi	r4,3
 2001a68:	1b07883a 	add	r3,r3,r12
 2001a6c:	21c00e2e 	bgeu	r4,r7,2001aa8 <memset+0x100>
 2001a70:	1813883a 	mov	r9,r3
 2001a74:	3811883a 	mov	r8,r7
 2001a78:	010000c4 	movi	r4,3
 2001a7c:	49800015 	stw	r6,0(r9)
 2001a80:	423fff04 	addi	r8,r8,-4
 2001a84:	4a400104 	addi	r9,r9,4
 2001a88:	223ffc36 	bltu	r4,r8,2001a7c <__alt_mem_epcs_flash_controller+0xfe00127c>
 2001a8c:	393fff04 	addi	r4,r7,-4
 2001a90:	2008d0ba 	srli	r4,r4,2
 2001a94:	39c000cc 	andi	r7,r7,3
 2001a98:	21000044 	addi	r4,r4,1
 2001a9c:	2109883a 	add	r4,r4,r4
 2001aa0:	2109883a 	add	r4,r4,r4
 2001aa4:	1907883a 	add	r3,r3,r4
 2001aa8:	38000526 	beq	r7,zero,2001ac0 <memset+0x118>
 2001aac:	19cf883a 	add	r7,r3,r7
 2001ab0:	19400005 	stb	r5,0(r3)
 2001ab4:	18c00044 	addi	r3,r3,1
 2001ab8:	38fffd1e 	bne	r7,r3,2001ab0 <__alt_mem_epcs_flash_controller+0xfe0012b0>
 2001abc:	f800283a 	ret
 2001ac0:	f800283a 	ret
 2001ac4:	2007883a 	mov	r3,r4
 2001ac8:	300f883a 	mov	r7,r6
 2001acc:	003fc706 	br	20019ec <__alt_mem_epcs_flash_controller+0xfe0011ec>

02001ad0 <_realloc_r>:
 2001ad0:	defff604 	addi	sp,sp,-40
 2001ad4:	dc800215 	stw	r18,8(sp)
 2001ad8:	dfc00915 	stw	ra,36(sp)
 2001adc:	df000815 	stw	fp,32(sp)
 2001ae0:	ddc00715 	stw	r23,28(sp)
 2001ae4:	dd800615 	stw	r22,24(sp)
 2001ae8:	dd400515 	stw	r21,20(sp)
 2001aec:	dd000415 	stw	r20,16(sp)
 2001af0:	dcc00315 	stw	r19,12(sp)
 2001af4:	dc400115 	stw	r17,4(sp)
 2001af8:	dc000015 	stw	r16,0(sp)
 2001afc:	3025883a 	mov	r18,r6
 2001b00:	2800b726 	beq	r5,zero,2001de0 <_realloc_r+0x310>
 2001b04:	282b883a 	mov	r21,r5
 2001b08:	2029883a 	mov	r20,r4
 2001b0c:	20036080 	call	2003608 <__malloc_lock>
 2001b10:	a8bfff17 	ldw	r2,-4(r21)
 2001b14:	043fff04 	movi	r16,-4
 2001b18:	90c002c4 	addi	r3,r18,11
 2001b1c:	01000584 	movi	r4,22
 2001b20:	acfffe04 	addi	r19,r21,-8
 2001b24:	1420703a 	and	r16,r2,r16
 2001b28:	20c0332e 	bgeu	r4,r3,2001bf8 <_realloc_r+0x128>
 2001b2c:	047ffe04 	movi	r17,-8
 2001b30:	1c62703a 	and	r17,r3,r17
 2001b34:	8807883a 	mov	r3,r17
 2001b38:	88005816 	blt	r17,zero,2001c9c <_realloc_r+0x1cc>
 2001b3c:	8c805736 	bltu	r17,r18,2001c9c <_realloc_r+0x1cc>
 2001b40:	80c0300e 	bge	r16,r3,2001c04 <_realloc_r+0x134>
 2001b44:	07008034 	movhi	fp,512
 2001b48:	e71ae904 	addi	fp,fp,27556
 2001b4c:	e1c00217 	ldw	r7,8(fp)
 2001b50:	9c09883a 	add	r4,r19,r16
 2001b54:	22000117 	ldw	r8,4(r4)
 2001b58:	21c06326 	beq	r4,r7,2001ce8 <_realloc_r+0x218>
 2001b5c:	017fff84 	movi	r5,-2
 2001b60:	414a703a 	and	r5,r8,r5
 2001b64:	214b883a 	add	r5,r4,r5
 2001b68:	29800117 	ldw	r6,4(r5)
 2001b6c:	3180004c 	andi	r6,r6,1
 2001b70:	30003f26 	beq	r6,zero,2001c70 <_realloc_r+0x1a0>
 2001b74:	1080004c 	andi	r2,r2,1
 2001b78:	10008326 	beq	r2,zero,2001d88 <_realloc_r+0x2b8>
 2001b7c:	900b883a 	mov	r5,r18
 2001b80:	a009883a 	mov	r4,r20
 2001b84:	2000e140 	call	2000e14 <_malloc_r>
 2001b88:	1025883a 	mov	r18,r2
 2001b8c:	10011e26 	beq	r2,zero,2002008 <_realloc_r+0x538>
 2001b90:	a93fff17 	ldw	r4,-4(r21)
 2001b94:	10fffe04 	addi	r3,r2,-8
 2001b98:	00bfff84 	movi	r2,-2
 2001b9c:	2084703a 	and	r2,r4,r2
 2001ba0:	9885883a 	add	r2,r19,r2
 2001ba4:	1880ee26 	beq	r3,r2,2001f60 <_realloc_r+0x490>
 2001ba8:	81bfff04 	addi	r6,r16,-4
 2001bac:	00800904 	movi	r2,36
 2001bb0:	1180b836 	bltu	r2,r6,2001e94 <_realloc_r+0x3c4>
 2001bb4:	00c004c4 	movi	r3,19
 2001bb8:	19809636 	bltu	r3,r6,2001e14 <_realloc_r+0x344>
 2001bbc:	9005883a 	mov	r2,r18
 2001bc0:	a807883a 	mov	r3,r21
 2001bc4:	19000017 	ldw	r4,0(r3)
 2001bc8:	11000015 	stw	r4,0(r2)
 2001bcc:	19000117 	ldw	r4,4(r3)
 2001bd0:	11000115 	stw	r4,4(r2)
 2001bd4:	18c00217 	ldw	r3,8(r3)
 2001bd8:	10c00215 	stw	r3,8(r2)
 2001bdc:	a80b883a 	mov	r5,r21
 2001be0:	a009883a 	mov	r4,r20
 2001be4:	200289c0 	call	200289c <_free_r>
 2001be8:	a009883a 	mov	r4,r20
 2001bec:	200362c0 	call	200362c <__malloc_unlock>
 2001bf0:	9005883a 	mov	r2,r18
 2001bf4:	00001206 	br	2001c40 <_realloc_r+0x170>
 2001bf8:	00c00404 	movi	r3,16
 2001bfc:	1823883a 	mov	r17,r3
 2001c00:	003fce06 	br	2001b3c <__alt_mem_epcs_flash_controller+0xfe00133c>
 2001c04:	a825883a 	mov	r18,r21
 2001c08:	8445c83a 	sub	r2,r16,r17
 2001c0c:	00c003c4 	movi	r3,15
 2001c10:	18802636 	bltu	r3,r2,2001cac <_realloc_r+0x1dc>
 2001c14:	99800117 	ldw	r6,4(r19)
 2001c18:	9c07883a 	add	r3,r19,r16
 2001c1c:	3180004c 	andi	r6,r6,1
 2001c20:	3420b03a 	or	r16,r6,r16
 2001c24:	9c000115 	stw	r16,4(r19)
 2001c28:	18800117 	ldw	r2,4(r3)
 2001c2c:	10800054 	ori	r2,r2,1
 2001c30:	18800115 	stw	r2,4(r3)
 2001c34:	a009883a 	mov	r4,r20
 2001c38:	200362c0 	call	200362c <__malloc_unlock>
 2001c3c:	9005883a 	mov	r2,r18
 2001c40:	dfc00917 	ldw	ra,36(sp)
 2001c44:	df000817 	ldw	fp,32(sp)
 2001c48:	ddc00717 	ldw	r23,28(sp)
 2001c4c:	dd800617 	ldw	r22,24(sp)
 2001c50:	dd400517 	ldw	r21,20(sp)
 2001c54:	dd000417 	ldw	r20,16(sp)
 2001c58:	dcc00317 	ldw	r19,12(sp)
 2001c5c:	dc800217 	ldw	r18,8(sp)
 2001c60:	dc400117 	ldw	r17,4(sp)
 2001c64:	dc000017 	ldw	r16,0(sp)
 2001c68:	dec00a04 	addi	sp,sp,40
 2001c6c:	f800283a 	ret
 2001c70:	017fff04 	movi	r5,-4
 2001c74:	414a703a 	and	r5,r8,r5
 2001c78:	814d883a 	add	r6,r16,r5
 2001c7c:	30c01f16 	blt	r6,r3,2001cfc <_realloc_r+0x22c>
 2001c80:	20800317 	ldw	r2,12(r4)
 2001c84:	20c00217 	ldw	r3,8(r4)
 2001c88:	a825883a 	mov	r18,r21
 2001c8c:	3021883a 	mov	r16,r6
 2001c90:	18800315 	stw	r2,12(r3)
 2001c94:	10c00215 	stw	r3,8(r2)
 2001c98:	003fdb06 	br	2001c08 <__alt_mem_epcs_flash_controller+0xfe001408>
 2001c9c:	00800304 	movi	r2,12
 2001ca0:	a0800015 	stw	r2,0(r20)
 2001ca4:	0005883a 	mov	r2,zero
 2001ca8:	003fe506 	br	2001c40 <__alt_mem_epcs_flash_controller+0xfe001440>
 2001cac:	98c00117 	ldw	r3,4(r19)
 2001cb0:	9c4b883a 	add	r5,r19,r17
 2001cb4:	11000054 	ori	r4,r2,1
 2001cb8:	18c0004c 	andi	r3,r3,1
 2001cbc:	1c62b03a 	or	r17,r3,r17
 2001cc0:	9c400115 	stw	r17,4(r19)
 2001cc4:	29000115 	stw	r4,4(r5)
 2001cc8:	2885883a 	add	r2,r5,r2
 2001ccc:	10c00117 	ldw	r3,4(r2)
 2001cd0:	29400204 	addi	r5,r5,8
 2001cd4:	a009883a 	mov	r4,r20
 2001cd8:	18c00054 	ori	r3,r3,1
 2001cdc:	10c00115 	stw	r3,4(r2)
 2001ce0:	200289c0 	call	200289c <_free_r>
 2001ce4:	003fd306 	br	2001c34 <__alt_mem_epcs_flash_controller+0xfe001434>
 2001ce8:	017fff04 	movi	r5,-4
 2001cec:	414a703a 	and	r5,r8,r5
 2001cf0:	89800404 	addi	r6,r17,16
 2001cf4:	8151883a 	add	r8,r16,r5
 2001cf8:	4180590e 	bge	r8,r6,2001e60 <_realloc_r+0x390>
 2001cfc:	1080004c 	andi	r2,r2,1
 2001d00:	103f9e1e 	bne	r2,zero,2001b7c <__alt_mem_epcs_flash_controller+0xfe00137c>
 2001d04:	adbffe17 	ldw	r22,-8(r21)
 2001d08:	00bfff04 	movi	r2,-4
 2001d0c:	9dadc83a 	sub	r22,r19,r22
 2001d10:	b1800117 	ldw	r6,4(r22)
 2001d14:	3084703a 	and	r2,r6,r2
 2001d18:	20002026 	beq	r4,zero,2001d9c <_realloc_r+0x2cc>
 2001d1c:	80af883a 	add	r23,r16,r2
 2001d20:	b96f883a 	add	r23,r23,r5
 2001d24:	21c05f26 	beq	r4,r7,2001ea4 <_realloc_r+0x3d4>
 2001d28:	b8c01c16 	blt	r23,r3,2001d9c <_realloc_r+0x2cc>
 2001d2c:	20800317 	ldw	r2,12(r4)
 2001d30:	20c00217 	ldw	r3,8(r4)
 2001d34:	81bfff04 	addi	r6,r16,-4
 2001d38:	01000904 	movi	r4,36
 2001d3c:	18800315 	stw	r2,12(r3)
 2001d40:	10c00215 	stw	r3,8(r2)
 2001d44:	b0c00217 	ldw	r3,8(r22)
 2001d48:	b0800317 	ldw	r2,12(r22)
 2001d4c:	b4800204 	addi	r18,r22,8
 2001d50:	18800315 	stw	r2,12(r3)
 2001d54:	10c00215 	stw	r3,8(r2)
 2001d58:	21801b36 	bltu	r4,r6,2001dc8 <_realloc_r+0x2f8>
 2001d5c:	008004c4 	movi	r2,19
 2001d60:	1180352e 	bgeu	r2,r6,2001e38 <_realloc_r+0x368>
 2001d64:	a8800017 	ldw	r2,0(r21)
 2001d68:	b0800215 	stw	r2,8(r22)
 2001d6c:	a8800117 	ldw	r2,4(r21)
 2001d70:	b0800315 	stw	r2,12(r22)
 2001d74:	008006c4 	movi	r2,27
 2001d78:	11807f36 	bltu	r2,r6,2001f78 <_realloc_r+0x4a8>
 2001d7c:	b0800404 	addi	r2,r22,16
 2001d80:	ad400204 	addi	r21,r21,8
 2001d84:	00002d06 	br	2001e3c <_realloc_r+0x36c>
 2001d88:	adbffe17 	ldw	r22,-8(r21)
 2001d8c:	00bfff04 	movi	r2,-4
 2001d90:	9dadc83a 	sub	r22,r19,r22
 2001d94:	b1000117 	ldw	r4,4(r22)
 2001d98:	2084703a 	and	r2,r4,r2
 2001d9c:	b03f7726 	beq	r22,zero,2001b7c <__alt_mem_epcs_flash_controller+0xfe00137c>
 2001da0:	80af883a 	add	r23,r16,r2
 2001da4:	b8ff7516 	blt	r23,r3,2001b7c <__alt_mem_epcs_flash_controller+0xfe00137c>
 2001da8:	b0800317 	ldw	r2,12(r22)
 2001dac:	b0c00217 	ldw	r3,8(r22)
 2001db0:	81bfff04 	addi	r6,r16,-4
 2001db4:	01000904 	movi	r4,36
 2001db8:	18800315 	stw	r2,12(r3)
 2001dbc:	10c00215 	stw	r3,8(r2)
 2001dc0:	b4800204 	addi	r18,r22,8
 2001dc4:	21bfe52e 	bgeu	r4,r6,2001d5c <__alt_mem_epcs_flash_controller+0xfe00155c>
 2001dc8:	a80b883a 	mov	r5,r21
 2001dcc:	9009883a 	mov	r4,r18
 2001dd0:	200184c0 	call	200184c <memmove>
 2001dd4:	b821883a 	mov	r16,r23
 2001dd8:	b027883a 	mov	r19,r22
 2001ddc:	003f8a06 	br	2001c08 <__alt_mem_epcs_flash_controller+0xfe001408>
 2001de0:	300b883a 	mov	r5,r6
 2001de4:	dfc00917 	ldw	ra,36(sp)
 2001de8:	df000817 	ldw	fp,32(sp)
 2001dec:	ddc00717 	ldw	r23,28(sp)
 2001df0:	dd800617 	ldw	r22,24(sp)
 2001df4:	dd400517 	ldw	r21,20(sp)
 2001df8:	dd000417 	ldw	r20,16(sp)
 2001dfc:	dcc00317 	ldw	r19,12(sp)
 2001e00:	dc800217 	ldw	r18,8(sp)
 2001e04:	dc400117 	ldw	r17,4(sp)
 2001e08:	dc000017 	ldw	r16,0(sp)
 2001e0c:	dec00a04 	addi	sp,sp,40
 2001e10:	2000e141 	jmpi	2000e14 <_malloc_r>
 2001e14:	a8c00017 	ldw	r3,0(r21)
 2001e18:	90c00015 	stw	r3,0(r18)
 2001e1c:	a8c00117 	ldw	r3,4(r21)
 2001e20:	90c00115 	stw	r3,4(r18)
 2001e24:	00c006c4 	movi	r3,27
 2001e28:	19804536 	bltu	r3,r6,2001f40 <_realloc_r+0x470>
 2001e2c:	90800204 	addi	r2,r18,8
 2001e30:	a8c00204 	addi	r3,r21,8
 2001e34:	003f6306 	br	2001bc4 <__alt_mem_epcs_flash_controller+0xfe0013c4>
 2001e38:	9005883a 	mov	r2,r18
 2001e3c:	a8c00017 	ldw	r3,0(r21)
 2001e40:	b821883a 	mov	r16,r23
 2001e44:	b027883a 	mov	r19,r22
 2001e48:	10c00015 	stw	r3,0(r2)
 2001e4c:	a8c00117 	ldw	r3,4(r21)
 2001e50:	10c00115 	stw	r3,4(r2)
 2001e54:	a8c00217 	ldw	r3,8(r21)
 2001e58:	10c00215 	stw	r3,8(r2)
 2001e5c:	003f6a06 	br	2001c08 <__alt_mem_epcs_flash_controller+0xfe001408>
 2001e60:	9c67883a 	add	r19,r19,r17
 2001e64:	4445c83a 	sub	r2,r8,r17
 2001e68:	e4c00215 	stw	r19,8(fp)
 2001e6c:	10800054 	ori	r2,r2,1
 2001e70:	98800115 	stw	r2,4(r19)
 2001e74:	a8bfff17 	ldw	r2,-4(r21)
 2001e78:	a009883a 	mov	r4,r20
 2001e7c:	1080004c 	andi	r2,r2,1
 2001e80:	1462b03a 	or	r17,r2,r17
 2001e84:	ac7fff15 	stw	r17,-4(r21)
 2001e88:	200362c0 	call	200362c <__malloc_unlock>
 2001e8c:	a805883a 	mov	r2,r21
 2001e90:	003f6b06 	br	2001c40 <__alt_mem_epcs_flash_controller+0xfe001440>
 2001e94:	a80b883a 	mov	r5,r21
 2001e98:	9009883a 	mov	r4,r18
 2001e9c:	200184c0 	call	200184c <memmove>
 2001ea0:	003f4e06 	br	2001bdc <__alt_mem_epcs_flash_controller+0xfe0013dc>
 2001ea4:	89000404 	addi	r4,r17,16
 2001ea8:	b93fbc16 	blt	r23,r4,2001d9c <__alt_mem_epcs_flash_controller+0xfe00159c>
 2001eac:	b0800317 	ldw	r2,12(r22)
 2001eb0:	b0c00217 	ldw	r3,8(r22)
 2001eb4:	81bfff04 	addi	r6,r16,-4
 2001eb8:	01000904 	movi	r4,36
 2001ebc:	18800315 	stw	r2,12(r3)
 2001ec0:	10c00215 	stw	r3,8(r2)
 2001ec4:	b4800204 	addi	r18,r22,8
 2001ec8:	21804336 	bltu	r4,r6,2001fd8 <_realloc_r+0x508>
 2001ecc:	008004c4 	movi	r2,19
 2001ed0:	11803f2e 	bgeu	r2,r6,2001fd0 <_realloc_r+0x500>
 2001ed4:	a8800017 	ldw	r2,0(r21)
 2001ed8:	b0800215 	stw	r2,8(r22)
 2001edc:	a8800117 	ldw	r2,4(r21)
 2001ee0:	b0800315 	stw	r2,12(r22)
 2001ee4:	008006c4 	movi	r2,27
 2001ee8:	11803f36 	bltu	r2,r6,2001fe8 <_realloc_r+0x518>
 2001eec:	b0800404 	addi	r2,r22,16
 2001ef0:	ad400204 	addi	r21,r21,8
 2001ef4:	a8c00017 	ldw	r3,0(r21)
 2001ef8:	10c00015 	stw	r3,0(r2)
 2001efc:	a8c00117 	ldw	r3,4(r21)
 2001f00:	10c00115 	stw	r3,4(r2)
 2001f04:	a8c00217 	ldw	r3,8(r21)
 2001f08:	10c00215 	stw	r3,8(r2)
 2001f0c:	b447883a 	add	r3,r22,r17
 2001f10:	bc45c83a 	sub	r2,r23,r17
 2001f14:	e0c00215 	stw	r3,8(fp)
 2001f18:	10800054 	ori	r2,r2,1
 2001f1c:	18800115 	stw	r2,4(r3)
 2001f20:	b0800117 	ldw	r2,4(r22)
 2001f24:	a009883a 	mov	r4,r20
 2001f28:	1080004c 	andi	r2,r2,1
 2001f2c:	1462b03a 	or	r17,r2,r17
 2001f30:	b4400115 	stw	r17,4(r22)
 2001f34:	200362c0 	call	200362c <__malloc_unlock>
 2001f38:	9005883a 	mov	r2,r18
 2001f3c:	003f4006 	br	2001c40 <__alt_mem_epcs_flash_controller+0xfe001440>
 2001f40:	a8c00217 	ldw	r3,8(r21)
 2001f44:	90c00215 	stw	r3,8(r18)
 2001f48:	a8c00317 	ldw	r3,12(r21)
 2001f4c:	90c00315 	stw	r3,12(r18)
 2001f50:	30801126 	beq	r6,r2,2001f98 <_realloc_r+0x4c8>
 2001f54:	90800404 	addi	r2,r18,16
 2001f58:	a8c00404 	addi	r3,r21,16
 2001f5c:	003f1906 	br	2001bc4 <__alt_mem_epcs_flash_controller+0xfe0013c4>
 2001f60:	90ffff17 	ldw	r3,-4(r18)
 2001f64:	00bfff04 	movi	r2,-4
 2001f68:	a825883a 	mov	r18,r21
 2001f6c:	1884703a 	and	r2,r3,r2
 2001f70:	80a1883a 	add	r16,r16,r2
 2001f74:	003f2406 	br	2001c08 <__alt_mem_epcs_flash_controller+0xfe001408>
 2001f78:	a8800217 	ldw	r2,8(r21)
 2001f7c:	b0800415 	stw	r2,16(r22)
 2001f80:	a8800317 	ldw	r2,12(r21)
 2001f84:	b0800515 	stw	r2,20(r22)
 2001f88:	31000a26 	beq	r6,r4,2001fb4 <_realloc_r+0x4e4>
 2001f8c:	b0800604 	addi	r2,r22,24
 2001f90:	ad400404 	addi	r21,r21,16
 2001f94:	003fa906 	br	2001e3c <__alt_mem_epcs_flash_controller+0xfe00163c>
 2001f98:	a9000417 	ldw	r4,16(r21)
 2001f9c:	90800604 	addi	r2,r18,24
 2001fa0:	a8c00604 	addi	r3,r21,24
 2001fa4:	91000415 	stw	r4,16(r18)
 2001fa8:	a9000517 	ldw	r4,20(r21)
 2001fac:	91000515 	stw	r4,20(r18)
 2001fb0:	003f0406 	br	2001bc4 <__alt_mem_epcs_flash_controller+0xfe0013c4>
 2001fb4:	a8c00417 	ldw	r3,16(r21)
 2001fb8:	ad400604 	addi	r21,r21,24
 2001fbc:	b0800804 	addi	r2,r22,32
 2001fc0:	b0c00615 	stw	r3,24(r22)
 2001fc4:	a8ffff17 	ldw	r3,-4(r21)
 2001fc8:	b0c00715 	stw	r3,28(r22)
 2001fcc:	003f9b06 	br	2001e3c <__alt_mem_epcs_flash_controller+0xfe00163c>
 2001fd0:	9005883a 	mov	r2,r18
 2001fd4:	003fc706 	br	2001ef4 <__alt_mem_epcs_flash_controller+0xfe0016f4>
 2001fd8:	a80b883a 	mov	r5,r21
 2001fdc:	9009883a 	mov	r4,r18
 2001fe0:	200184c0 	call	200184c <memmove>
 2001fe4:	003fc906 	br	2001f0c <__alt_mem_epcs_flash_controller+0xfe00170c>
 2001fe8:	a8800217 	ldw	r2,8(r21)
 2001fec:	b0800415 	stw	r2,16(r22)
 2001ff0:	a8800317 	ldw	r2,12(r21)
 2001ff4:	b0800515 	stw	r2,20(r22)
 2001ff8:	31000726 	beq	r6,r4,2002018 <_realloc_r+0x548>
 2001ffc:	b0800604 	addi	r2,r22,24
 2002000:	ad400404 	addi	r21,r21,16
 2002004:	003fbb06 	br	2001ef4 <__alt_mem_epcs_flash_controller+0xfe0016f4>
 2002008:	a009883a 	mov	r4,r20
 200200c:	200362c0 	call	200362c <__malloc_unlock>
 2002010:	0005883a 	mov	r2,zero
 2002014:	003f0a06 	br	2001c40 <__alt_mem_epcs_flash_controller+0xfe001440>
 2002018:	a8c00417 	ldw	r3,16(r21)
 200201c:	ad400604 	addi	r21,r21,24
 2002020:	b0800804 	addi	r2,r22,32
 2002024:	b0c00615 	stw	r3,24(r22)
 2002028:	a8ffff17 	ldw	r3,-4(r21)
 200202c:	b0c00715 	stw	r3,28(r22)
 2002030:	003fb006 	br	2001ef4 <__alt_mem_epcs_flash_controller+0xfe0016f4>

02002034 <_sbrk_r>:
 2002034:	defffd04 	addi	sp,sp,-12
 2002038:	dc000015 	stw	r16,0(sp)
 200203c:	04008034 	movhi	r16,512
 2002040:	dc400115 	stw	r17,4(sp)
 2002044:	841ff304 	addi	r16,r16,32716
 2002048:	2023883a 	mov	r17,r4
 200204c:	2809883a 	mov	r4,r5
 2002050:	dfc00215 	stw	ra,8(sp)
 2002054:	80000015 	stw	zero,0(r16)
 2002058:	20037ec0 	call	20037ec <sbrk>
 200205c:	00ffffc4 	movi	r3,-1
 2002060:	10c00526 	beq	r2,r3,2002078 <_sbrk_r+0x44>
 2002064:	dfc00217 	ldw	ra,8(sp)
 2002068:	dc400117 	ldw	r17,4(sp)
 200206c:	dc000017 	ldw	r16,0(sp)
 2002070:	dec00304 	addi	sp,sp,12
 2002074:	f800283a 	ret
 2002078:	80c00017 	ldw	r3,0(r16)
 200207c:	183ff926 	beq	r3,zero,2002064 <__alt_mem_epcs_flash_controller+0xfe001864>
 2002080:	88c00015 	stw	r3,0(r17)
 2002084:	003ff706 	br	2002064 <__alt_mem_epcs_flash_controller+0xfe001864>

02002088 <__sread>:
 2002088:	defffe04 	addi	sp,sp,-8
 200208c:	dc000015 	stw	r16,0(sp)
 2002090:	2821883a 	mov	r16,r5
 2002094:	2940038f 	ldh	r5,14(r5)
 2002098:	dfc00115 	stw	ra,4(sp)
 200209c:	2002dc80 	call	2002dc8 <_read_r>
 20020a0:	10000716 	blt	r2,zero,20020c0 <__sread+0x38>
 20020a4:	80c01417 	ldw	r3,80(r16)
 20020a8:	1887883a 	add	r3,r3,r2
 20020ac:	80c01415 	stw	r3,80(r16)
 20020b0:	dfc00117 	ldw	ra,4(sp)
 20020b4:	dc000017 	ldw	r16,0(sp)
 20020b8:	dec00204 	addi	sp,sp,8
 20020bc:	f800283a 	ret
 20020c0:	80c0030b 	ldhu	r3,12(r16)
 20020c4:	18fbffcc 	andi	r3,r3,61439
 20020c8:	80c0030d 	sth	r3,12(r16)
 20020cc:	dfc00117 	ldw	ra,4(sp)
 20020d0:	dc000017 	ldw	r16,0(sp)
 20020d4:	dec00204 	addi	sp,sp,8
 20020d8:	f800283a 	ret

020020dc <__seofread>:
 20020dc:	0005883a 	mov	r2,zero
 20020e0:	f800283a 	ret

020020e4 <__swrite>:
 20020e4:	2880030b 	ldhu	r2,12(r5)
 20020e8:	defffb04 	addi	sp,sp,-20
 20020ec:	dcc00315 	stw	r19,12(sp)
 20020f0:	dc800215 	stw	r18,8(sp)
 20020f4:	dc400115 	stw	r17,4(sp)
 20020f8:	dc000015 	stw	r16,0(sp)
 20020fc:	dfc00415 	stw	ra,16(sp)
 2002100:	10c0400c 	andi	r3,r2,256
 2002104:	2821883a 	mov	r16,r5
 2002108:	2023883a 	mov	r17,r4
 200210c:	3025883a 	mov	r18,r6
 2002110:	3827883a 	mov	r19,r7
 2002114:	18000526 	beq	r3,zero,200212c <__swrite+0x48>
 2002118:	2940038f 	ldh	r5,14(r5)
 200211c:	01c00084 	movi	r7,2
 2002120:	000d883a 	mov	r6,zero
 2002124:	2002bac0 	call	2002bac <_lseek_r>
 2002128:	8080030b 	ldhu	r2,12(r16)
 200212c:	8140038f 	ldh	r5,14(r16)
 2002130:	10bbffcc 	andi	r2,r2,61439
 2002134:	980f883a 	mov	r7,r19
 2002138:	900d883a 	mov	r6,r18
 200213c:	8809883a 	mov	r4,r17
 2002140:	8080030d 	sth	r2,12(r16)
 2002144:	dfc00417 	ldw	ra,16(sp)
 2002148:	dcc00317 	ldw	r19,12(sp)
 200214c:	dc800217 	ldw	r18,8(sp)
 2002150:	dc400117 	ldw	r17,4(sp)
 2002154:	dc000017 	ldw	r16,0(sp)
 2002158:	dec00504 	addi	sp,sp,20
 200215c:	20021c41 	jmpi	20021c4 <_write_r>

02002160 <__sseek>:
 2002160:	defffe04 	addi	sp,sp,-8
 2002164:	dc000015 	stw	r16,0(sp)
 2002168:	2821883a 	mov	r16,r5
 200216c:	2940038f 	ldh	r5,14(r5)
 2002170:	dfc00115 	stw	ra,4(sp)
 2002174:	2002bac0 	call	2002bac <_lseek_r>
 2002178:	00ffffc4 	movi	r3,-1
 200217c:	10c00826 	beq	r2,r3,20021a0 <__sseek+0x40>
 2002180:	80c0030b 	ldhu	r3,12(r16)
 2002184:	80801415 	stw	r2,80(r16)
 2002188:	18c40014 	ori	r3,r3,4096
 200218c:	80c0030d 	sth	r3,12(r16)
 2002190:	dfc00117 	ldw	ra,4(sp)
 2002194:	dc000017 	ldw	r16,0(sp)
 2002198:	dec00204 	addi	sp,sp,8
 200219c:	f800283a 	ret
 20021a0:	80c0030b 	ldhu	r3,12(r16)
 20021a4:	18fbffcc 	andi	r3,r3,61439
 20021a8:	80c0030d 	sth	r3,12(r16)
 20021ac:	dfc00117 	ldw	ra,4(sp)
 20021b0:	dc000017 	ldw	r16,0(sp)
 20021b4:	dec00204 	addi	sp,sp,8
 20021b8:	f800283a 	ret

020021bc <__sclose>:
 20021bc:	2940038f 	ldh	r5,14(r5)
 20021c0:	20023781 	jmpi	2002378 <_close_r>

020021c4 <_write_r>:
 20021c4:	defffd04 	addi	sp,sp,-12
 20021c8:	2805883a 	mov	r2,r5
 20021cc:	dc000015 	stw	r16,0(sp)
 20021d0:	04008034 	movhi	r16,512
 20021d4:	dc400115 	stw	r17,4(sp)
 20021d8:	300b883a 	mov	r5,r6
 20021dc:	841ff304 	addi	r16,r16,32716
 20021e0:	2023883a 	mov	r17,r4
 20021e4:	380d883a 	mov	r6,r7
 20021e8:	1009883a 	mov	r4,r2
 20021ec:	dfc00215 	stw	ra,8(sp)
 20021f0:	80000015 	stw	zero,0(r16)
 20021f4:	20038d80 	call	20038d8 <write>
 20021f8:	00ffffc4 	movi	r3,-1
 20021fc:	10c00526 	beq	r2,r3,2002214 <_write_r+0x50>
 2002200:	dfc00217 	ldw	ra,8(sp)
 2002204:	dc400117 	ldw	r17,4(sp)
 2002208:	dc000017 	ldw	r16,0(sp)
 200220c:	dec00304 	addi	sp,sp,12
 2002210:	f800283a 	ret
 2002214:	80c00017 	ldw	r3,0(r16)
 2002218:	183ff926 	beq	r3,zero,2002200 <__alt_mem_epcs_flash_controller+0xfe001a00>
 200221c:	88c00015 	stw	r3,0(r17)
 2002220:	003ff706 	br	2002200 <__alt_mem_epcs_flash_controller+0xfe001a00>

02002224 <__swsetup_r>:
 2002224:	00808034 	movhi	r2,512
 2002228:	defffd04 	addi	sp,sp,-12
 200222c:	109cdb04 	addi	r2,r2,29548
 2002230:	dc400115 	stw	r17,4(sp)
 2002234:	2023883a 	mov	r17,r4
 2002238:	11000017 	ldw	r4,0(r2)
 200223c:	dc000015 	stw	r16,0(sp)
 2002240:	dfc00215 	stw	ra,8(sp)
 2002244:	2821883a 	mov	r16,r5
 2002248:	20000226 	beq	r4,zero,2002254 <__swsetup_r+0x30>
 200224c:	20800e17 	ldw	r2,56(r4)
 2002250:	10003126 	beq	r2,zero,2002318 <__swsetup_r+0xf4>
 2002254:	8080030b 	ldhu	r2,12(r16)
 2002258:	10c0020c 	andi	r3,r2,8
 200225c:	1009883a 	mov	r4,r2
 2002260:	18000f26 	beq	r3,zero,20022a0 <__swsetup_r+0x7c>
 2002264:	80c00417 	ldw	r3,16(r16)
 2002268:	18001526 	beq	r3,zero,20022c0 <__swsetup_r+0x9c>
 200226c:	1100004c 	andi	r4,r2,1
 2002270:	20001c1e 	bne	r4,zero,20022e4 <__swsetup_r+0xc0>
 2002274:	1080008c 	andi	r2,r2,2
 2002278:	1000291e 	bne	r2,zero,2002320 <__swsetup_r+0xfc>
 200227c:	80800517 	ldw	r2,20(r16)
 2002280:	80800215 	stw	r2,8(r16)
 2002284:	18001c26 	beq	r3,zero,20022f8 <__swsetup_r+0xd4>
 2002288:	0005883a 	mov	r2,zero
 200228c:	dfc00217 	ldw	ra,8(sp)
 2002290:	dc400117 	ldw	r17,4(sp)
 2002294:	dc000017 	ldw	r16,0(sp)
 2002298:	dec00304 	addi	sp,sp,12
 200229c:	f800283a 	ret
 20022a0:	2080040c 	andi	r2,r4,16
 20022a4:	10002e26 	beq	r2,zero,2002360 <__swsetup_r+0x13c>
 20022a8:	2080010c 	andi	r2,r4,4
 20022ac:	10001e1e 	bne	r2,zero,2002328 <__swsetup_r+0x104>
 20022b0:	80c00417 	ldw	r3,16(r16)
 20022b4:	20800214 	ori	r2,r4,8
 20022b8:	8080030d 	sth	r2,12(r16)
 20022bc:	183feb1e 	bne	r3,zero,200226c <__alt_mem_epcs_flash_controller+0xfe001a6c>
 20022c0:	1100a00c 	andi	r4,r2,640
 20022c4:	01408004 	movi	r5,512
 20022c8:	217fe826 	beq	r4,r5,200226c <__alt_mem_epcs_flash_controller+0xfe001a6c>
 20022cc:	800b883a 	mov	r5,r16
 20022d0:	8809883a 	mov	r4,r17
 20022d4:	2002c0c0 	call	2002c0c <__smakebuf_r>
 20022d8:	8080030b 	ldhu	r2,12(r16)
 20022dc:	80c00417 	ldw	r3,16(r16)
 20022e0:	003fe206 	br	200226c <__alt_mem_epcs_flash_controller+0xfe001a6c>
 20022e4:	80800517 	ldw	r2,20(r16)
 20022e8:	80000215 	stw	zero,8(r16)
 20022ec:	0085c83a 	sub	r2,zero,r2
 20022f0:	80800615 	stw	r2,24(r16)
 20022f4:	183fe41e 	bne	r3,zero,2002288 <__alt_mem_epcs_flash_controller+0xfe001a88>
 20022f8:	80c0030b 	ldhu	r3,12(r16)
 20022fc:	0005883a 	mov	r2,zero
 2002300:	1900200c 	andi	r4,r3,128
 2002304:	203fe126 	beq	r4,zero,200228c <__alt_mem_epcs_flash_controller+0xfe001a8c>
 2002308:	18c01014 	ori	r3,r3,64
 200230c:	80c0030d 	sth	r3,12(r16)
 2002310:	00bfffc4 	movi	r2,-1
 2002314:	003fdd06 	br	200228c <__alt_mem_epcs_flash_controller+0xfe001a8c>
 2002318:	20007800 	call	2000780 <__sinit>
 200231c:	003fcd06 	br	2002254 <__alt_mem_epcs_flash_controller+0xfe001a54>
 2002320:	0005883a 	mov	r2,zero
 2002324:	003fd606 	br	2002280 <__alt_mem_epcs_flash_controller+0xfe001a80>
 2002328:	81400c17 	ldw	r5,48(r16)
 200232c:	28000626 	beq	r5,zero,2002348 <__swsetup_r+0x124>
 2002330:	80801004 	addi	r2,r16,64
 2002334:	28800326 	beq	r5,r2,2002344 <__swsetup_r+0x120>
 2002338:	8809883a 	mov	r4,r17
 200233c:	200289c0 	call	200289c <_free_r>
 2002340:	8100030b 	ldhu	r4,12(r16)
 2002344:	80000c15 	stw	zero,48(r16)
 2002348:	80c00417 	ldw	r3,16(r16)
 200234c:	00bff6c4 	movi	r2,-37
 2002350:	1108703a 	and	r4,r2,r4
 2002354:	80000115 	stw	zero,4(r16)
 2002358:	80c00015 	stw	r3,0(r16)
 200235c:	003fd506 	br	20022b4 <__alt_mem_epcs_flash_controller+0xfe001ab4>
 2002360:	00800244 	movi	r2,9
 2002364:	88800015 	stw	r2,0(r17)
 2002368:	20801014 	ori	r2,r4,64
 200236c:	8080030d 	sth	r2,12(r16)
 2002370:	00bfffc4 	movi	r2,-1
 2002374:	003fc506 	br	200228c <__alt_mem_epcs_flash_controller+0xfe001a8c>

02002378 <_close_r>:
 2002378:	defffd04 	addi	sp,sp,-12
 200237c:	dc000015 	stw	r16,0(sp)
 2002380:	04008034 	movhi	r16,512
 2002384:	dc400115 	stw	r17,4(sp)
 2002388:	841ff304 	addi	r16,r16,32716
 200238c:	2023883a 	mov	r17,r4
 2002390:	2809883a 	mov	r4,r5
 2002394:	dfc00215 	stw	ra,8(sp)
 2002398:	80000015 	stw	zero,0(r16)
 200239c:	20030c80 	call	20030c8 <close>
 20023a0:	00ffffc4 	movi	r3,-1
 20023a4:	10c00526 	beq	r2,r3,20023bc <_close_r+0x44>
 20023a8:	dfc00217 	ldw	ra,8(sp)
 20023ac:	dc400117 	ldw	r17,4(sp)
 20023b0:	dc000017 	ldw	r16,0(sp)
 20023b4:	dec00304 	addi	sp,sp,12
 20023b8:	f800283a 	ret
 20023bc:	80c00017 	ldw	r3,0(r16)
 20023c0:	183ff926 	beq	r3,zero,20023a8 <__alt_mem_epcs_flash_controller+0xfe001ba8>
 20023c4:	88c00015 	stw	r3,0(r17)
 20023c8:	003ff706 	br	20023a8 <__alt_mem_epcs_flash_controller+0xfe001ba8>

020023cc <_fclose_r>:
 20023cc:	28003926 	beq	r5,zero,20024b4 <_fclose_r+0xe8>
 20023d0:	defffc04 	addi	sp,sp,-16
 20023d4:	dc400115 	stw	r17,4(sp)
 20023d8:	dc000015 	stw	r16,0(sp)
 20023dc:	dfc00315 	stw	ra,12(sp)
 20023e0:	dc800215 	stw	r18,8(sp)
 20023e4:	2023883a 	mov	r17,r4
 20023e8:	2821883a 	mov	r16,r5
 20023ec:	20000226 	beq	r4,zero,20023f8 <_fclose_r+0x2c>
 20023f0:	20800e17 	ldw	r2,56(r4)
 20023f4:	10002726 	beq	r2,zero,2002494 <_fclose_r+0xc8>
 20023f8:	8080030f 	ldh	r2,12(r16)
 20023fc:	1000071e 	bne	r2,zero,200241c <_fclose_r+0x50>
 2002400:	0005883a 	mov	r2,zero
 2002404:	dfc00317 	ldw	ra,12(sp)
 2002408:	dc800217 	ldw	r18,8(sp)
 200240c:	dc400117 	ldw	r17,4(sp)
 2002410:	dc000017 	ldw	r16,0(sp)
 2002414:	dec00404 	addi	sp,sp,16
 2002418:	f800283a 	ret
 200241c:	800b883a 	mov	r5,r16
 2002420:	8809883a 	mov	r4,r17
 2002424:	20024d00 	call	20024d0 <__sflush_r>
 2002428:	1025883a 	mov	r18,r2
 200242c:	80800b17 	ldw	r2,44(r16)
 2002430:	10000426 	beq	r2,zero,2002444 <_fclose_r+0x78>
 2002434:	81400717 	ldw	r5,28(r16)
 2002438:	8809883a 	mov	r4,r17
 200243c:	103ee83a 	callr	r2
 2002440:	10001616 	blt	r2,zero,200249c <_fclose_r+0xd0>
 2002444:	8080030b 	ldhu	r2,12(r16)
 2002448:	1080200c 	andi	r2,r2,128
 200244c:	1000151e 	bne	r2,zero,20024a4 <_fclose_r+0xd8>
 2002450:	81400c17 	ldw	r5,48(r16)
 2002454:	28000526 	beq	r5,zero,200246c <_fclose_r+0xa0>
 2002458:	80801004 	addi	r2,r16,64
 200245c:	28800226 	beq	r5,r2,2002468 <_fclose_r+0x9c>
 2002460:	8809883a 	mov	r4,r17
 2002464:	200289c0 	call	200289c <_free_r>
 2002468:	80000c15 	stw	zero,48(r16)
 200246c:	81401117 	ldw	r5,68(r16)
 2002470:	28000326 	beq	r5,zero,2002480 <_fclose_r+0xb4>
 2002474:	8809883a 	mov	r4,r17
 2002478:	200289c0 	call	200289c <_free_r>
 200247c:	80001115 	stw	zero,68(r16)
 2002480:	20007900 	call	2000790 <__sfp_lock_acquire>
 2002484:	8000030d 	sth	zero,12(r16)
 2002488:	20007940 	call	2000794 <__sfp_lock_release>
 200248c:	9005883a 	mov	r2,r18
 2002490:	003fdc06 	br	2002404 <__alt_mem_epcs_flash_controller+0xfe001c04>
 2002494:	20007800 	call	2000780 <__sinit>
 2002498:	003fd706 	br	20023f8 <__alt_mem_epcs_flash_controller+0xfe001bf8>
 200249c:	04bfffc4 	movi	r18,-1
 20024a0:	003fe806 	br	2002444 <__alt_mem_epcs_flash_controller+0xfe001c44>
 20024a4:	81400417 	ldw	r5,16(r16)
 20024a8:	8809883a 	mov	r4,r17
 20024ac:	200289c0 	call	200289c <_free_r>
 20024b0:	003fe706 	br	2002450 <__alt_mem_epcs_flash_controller+0xfe001c50>
 20024b4:	0005883a 	mov	r2,zero
 20024b8:	f800283a 	ret

020024bc <fclose>:
 20024bc:	00808034 	movhi	r2,512
 20024c0:	109cdb04 	addi	r2,r2,29548
 20024c4:	200b883a 	mov	r5,r4
 20024c8:	11000017 	ldw	r4,0(r2)
 20024cc:	20023cc1 	jmpi	20023cc <_fclose_r>

020024d0 <__sflush_r>:
 20024d0:	2880030b 	ldhu	r2,12(r5)
 20024d4:	defffb04 	addi	sp,sp,-20
 20024d8:	dcc00315 	stw	r19,12(sp)
 20024dc:	dc400115 	stw	r17,4(sp)
 20024e0:	dfc00415 	stw	ra,16(sp)
 20024e4:	dc800215 	stw	r18,8(sp)
 20024e8:	dc000015 	stw	r16,0(sp)
 20024ec:	10c0020c 	andi	r3,r2,8
 20024f0:	2823883a 	mov	r17,r5
 20024f4:	2027883a 	mov	r19,r4
 20024f8:	1800311e 	bne	r3,zero,20025c0 <__sflush_r+0xf0>
 20024fc:	28c00117 	ldw	r3,4(r5)
 2002500:	10820014 	ori	r2,r2,2048
 2002504:	2880030d 	sth	r2,12(r5)
 2002508:	00c04b0e 	bge	zero,r3,2002638 <__sflush_r+0x168>
 200250c:	8a000a17 	ldw	r8,40(r17)
 2002510:	40002326 	beq	r8,zero,20025a0 <__sflush_r+0xd0>
 2002514:	9c000017 	ldw	r16,0(r19)
 2002518:	10c4000c 	andi	r3,r2,4096
 200251c:	98000015 	stw	zero,0(r19)
 2002520:	18004826 	beq	r3,zero,2002644 <__sflush_r+0x174>
 2002524:	89801417 	ldw	r6,80(r17)
 2002528:	10c0010c 	andi	r3,r2,4
 200252c:	18000626 	beq	r3,zero,2002548 <__sflush_r+0x78>
 2002530:	88c00117 	ldw	r3,4(r17)
 2002534:	88800c17 	ldw	r2,48(r17)
 2002538:	30cdc83a 	sub	r6,r6,r3
 200253c:	10000226 	beq	r2,zero,2002548 <__sflush_r+0x78>
 2002540:	88800f17 	ldw	r2,60(r17)
 2002544:	308dc83a 	sub	r6,r6,r2
 2002548:	89400717 	ldw	r5,28(r17)
 200254c:	000f883a 	mov	r7,zero
 2002550:	9809883a 	mov	r4,r19
 2002554:	403ee83a 	callr	r8
 2002558:	00ffffc4 	movi	r3,-1
 200255c:	10c04426 	beq	r2,r3,2002670 <__sflush_r+0x1a0>
 2002560:	88c0030b 	ldhu	r3,12(r17)
 2002564:	89000417 	ldw	r4,16(r17)
 2002568:	88000115 	stw	zero,4(r17)
 200256c:	197dffcc 	andi	r5,r3,63487
 2002570:	8940030d 	sth	r5,12(r17)
 2002574:	89000015 	stw	r4,0(r17)
 2002578:	18c4000c 	andi	r3,r3,4096
 200257c:	18002c1e 	bne	r3,zero,2002630 <__sflush_r+0x160>
 2002580:	89400c17 	ldw	r5,48(r17)
 2002584:	9c000015 	stw	r16,0(r19)
 2002588:	28000526 	beq	r5,zero,20025a0 <__sflush_r+0xd0>
 200258c:	88801004 	addi	r2,r17,64
 2002590:	28800226 	beq	r5,r2,200259c <__sflush_r+0xcc>
 2002594:	9809883a 	mov	r4,r19
 2002598:	200289c0 	call	200289c <_free_r>
 200259c:	88000c15 	stw	zero,48(r17)
 20025a0:	0005883a 	mov	r2,zero
 20025a4:	dfc00417 	ldw	ra,16(sp)
 20025a8:	dcc00317 	ldw	r19,12(sp)
 20025ac:	dc800217 	ldw	r18,8(sp)
 20025b0:	dc400117 	ldw	r17,4(sp)
 20025b4:	dc000017 	ldw	r16,0(sp)
 20025b8:	dec00504 	addi	sp,sp,20
 20025bc:	f800283a 	ret
 20025c0:	2c800417 	ldw	r18,16(r5)
 20025c4:	903ff626 	beq	r18,zero,20025a0 <__alt_mem_epcs_flash_controller+0xfe001da0>
 20025c8:	2c000017 	ldw	r16,0(r5)
 20025cc:	108000cc 	andi	r2,r2,3
 20025d0:	2c800015 	stw	r18,0(r5)
 20025d4:	84a1c83a 	sub	r16,r16,r18
 20025d8:	1000131e 	bne	r2,zero,2002628 <__sflush_r+0x158>
 20025dc:	28800517 	ldw	r2,20(r5)
 20025e0:	88800215 	stw	r2,8(r17)
 20025e4:	04000316 	blt	zero,r16,20025f4 <__sflush_r+0x124>
 20025e8:	003fed06 	br	20025a0 <__alt_mem_epcs_flash_controller+0xfe001da0>
 20025ec:	90a5883a 	add	r18,r18,r2
 20025f0:	043feb0e 	bge	zero,r16,20025a0 <__alt_mem_epcs_flash_controller+0xfe001da0>
 20025f4:	88800917 	ldw	r2,36(r17)
 20025f8:	89400717 	ldw	r5,28(r17)
 20025fc:	800f883a 	mov	r7,r16
 2002600:	900d883a 	mov	r6,r18
 2002604:	9809883a 	mov	r4,r19
 2002608:	103ee83a 	callr	r2
 200260c:	80a1c83a 	sub	r16,r16,r2
 2002610:	00bff616 	blt	zero,r2,20025ec <__alt_mem_epcs_flash_controller+0xfe001dec>
 2002614:	88c0030b 	ldhu	r3,12(r17)
 2002618:	00bfffc4 	movi	r2,-1
 200261c:	18c01014 	ori	r3,r3,64
 2002620:	88c0030d 	sth	r3,12(r17)
 2002624:	003fdf06 	br	20025a4 <__alt_mem_epcs_flash_controller+0xfe001da4>
 2002628:	0005883a 	mov	r2,zero
 200262c:	003fec06 	br	20025e0 <__alt_mem_epcs_flash_controller+0xfe001de0>
 2002630:	88801415 	stw	r2,80(r17)
 2002634:	003fd206 	br	2002580 <__alt_mem_epcs_flash_controller+0xfe001d80>
 2002638:	28c00f17 	ldw	r3,60(r5)
 200263c:	00ffb316 	blt	zero,r3,200250c <__alt_mem_epcs_flash_controller+0xfe001d0c>
 2002640:	003fd706 	br	20025a0 <__alt_mem_epcs_flash_controller+0xfe001da0>
 2002644:	89400717 	ldw	r5,28(r17)
 2002648:	000d883a 	mov	r6,zero
 200264c:	01c00044 	movi	r7,1
 2002650:	9809883a 	mov	r4,r19
 2002654:	403ee83a 	callr	r8
 2002658:	100d883a 	mov	r6,r2
 200265c:	00bfffc4 	movi	r2,-1
 2002660:	30801426 	beq	r6,r2,20026b4 <__sflush_r+0x1e4>
 2002664:	8880030b 	ldhu	r2,12(r17)
 2002668:	8a000a17 	ldw	r8,40(r17)
 200266c:	003fae06 	br	2002528 <__alt_mem_epcs_flash_controller+0xfe001d28>
 2002670:	98c00017 	ldw	r3,0(r19)
 2002674:	183fba26 	beq	r3,zero,2002560 <__alt_mem_epcs_flash_controller+0xfe001d60>
 2002678:	01000744 	movi	r4,29
 200267c:	19000626 	beq	r3,r4,2002698 <__sflush_r+0x1c8>
 2002680:	01000584 	movi	r4,22
 2002684:	19000426 	beq	r3,r4,2002698 <__sflush_r+0x1c8>
 2002688:	88c0030b 	ldhu	r3,12(r17)
 200268c:	18c01014 	ori	r3,r3,64
 2002690:	88c0030d 	sth	r3,12(r17)
 2002694:	003fc306 	br	20025a4 <__alt_mem_epcs_flash_controller+0xfe001da4>
 2002698:	8880030b 	ldhu	r2,12(r17)
 200269c:	88c00417 	ldw	r3,16(r17)
 20026a0:	88000115 	stw	zero,4(r17)
 20026a4:	10bdffcc 	andi	r2,r2,63487
 20026a8:	8880030d 	sth	r2,12(r17)
 20026ac:	88c00015 	stw	r3,0(r17)
 20026b0:	003fb306 	br	2002580 <__alt_mem_epcs_flash_controller+0xfe001d80>
 20026b4:	98800017 	ldw	r2,0(r19)
 20026b8:	103fea26 	beq	r2,zero,2002664 <__alt_mem_epcs_flash_controller+0xfe001e64>
 20026bc:	00c00744 	movi	r3,29
 20026c0:	10c00226 	beq	r2,r3,20026cc <__sflush_r+0x1fc>
 20026c4:	00c00584 	movi	r3,22
 20026c8:	10c0031e 	bne	r2,r3,20026d8 <__sflush_r+0x208>
 20026cc:	9c000015 	stw	r16,0(r19)
 20026d0:	0005883a 	mov	r2,zero
 20026d4:	003fb306 	br	20025a4 <__alt_mem_epcs_flash_controller+0xfe001da4>
 20026d8:	88c0030b 	ldhu	r3,12(r17)
 20026dc:	3005883a 	mov	r2,r6
 20026e0:	18c01014 	ori	r3,r3,64
 20026e4:	88c0030d 	sth	r3,12(r17)
 20026e8:	003fae06 	br	20025a4 <__alt_mem_epcs_flash_controller+0xfe001da4>

020026ec <_fflush_r>:
 20026ec:	defffd04 	addi	sp,sp,-12
 20026f0:	dc000115 	stw	r16,4(sp)
 20026f4:	dfc00215 	stw	ra,8(sp)
 20026f8:	2021883a 	mov	r16,r4
 20026fc:	20000226 	beq	r4,zero,2002708 <_fflush_r+0x1c>
 2002700:	20800e17 	ldw	r2,56(r4)
 2002704:	10000c26 	beq	r2,zero,2002738 <_fflush_r+0x4c>
 2002708:	2880030f 	ldh	r2,12(r5)
 200270c:	1000051e 	bne	r2,zero,2002724 <_fflush_r+0x38>
 2002710:	0005883a 	mov	r2,zero
 2002714:	dfc00217 	ldw	ra,8(sp)
 2002718:	dc000117 	ldw	r16,4(sp)
 200271c:	dec00304 	addi	sp,sp,12
 2002720:	f800283a 	ret
 2002724:	8009883a 	mov	r4,r16
 2002728:	dfc00217 	ldw	ra,8(sp)
 200272c:	dc000117 	ldw	r16,4(sp)
 2002730:	dec00304 	addi	sp,sp,12
 2002734:	20024d01 	jmpi	20024d0 <__sflush_r>
 2002738:	d9400015 	stw	r5,0(sp)
 200273c:	20007800 	call	2000780 <__sinit>
 2002740:	d9400017 	ldw	r5,0(sp)
 2002744:	003ff006 	br	2002708 <__alt_mem_epcs_flash_controller+0xfe001f08>

02002748 <fflush>:
 2002748:	20000526 	beq	r4,zero,2002760 <fflush+0x18>
 200274c:	00808034 	movhi	r2,512
 2002750:	109cdb04 	addi	r2,r2,29548
 2002754:	200b883a 	mov	r5,r4
 2002758:	11000017 	ldw	r4,0(r2)
 200275c:	20026ec1 	jmpi	20026ec <_fflush_r>
 2002760:	00808034 	movhi	r2,512
 2002764:	109cda04 	addi	r2,r2,29544
 2002768:	11000017 	ldw	r4,0(r2)
 200276c:	01408034 	movhi	r5,512
 2002770:	2949bb04 	addi	r5,r5,9964
 2002774:	2000d501 	jmpi	2000d50 <_fwalk_reent>

02002778 <_malloc_trim_r>:
 2002778:	defffb04 	addi	sp,sp,-20
 200277c:	dcc00315 	stw	r19,12(sp)
 2002780:	04c08034 	movhi	r19,512
 2002784:	dc800215 	stw	r18,8(sp)
 2002788:	dc400115 	stw	r17,4(sp)
 200278c:	dc000015 	stw	r16,0(sp)
 2002790:	dfc00415 	stw	ra,16(sp)
 2002794:	2821883a 	mov	r16,r5
 2002798:	9cdae904 	addi	r19,r19,27556
 200279c:	2025883a 	mov	r18,r4
 20027a0:	20036080 	call	2003608 <__malloc_lock>
 20027a4:	98800217 	ldw	r2,8(r19)
 20027a8:	14400117 	ldw	r17,4(r2)
 20027ac:	00bfff04 	movi	r2,-4
 20027b0:	88a2703a 	and	r17,r17,r2
 20027b4:	8c21c83a 	sub	r16,r17,r16
 20027b8:	8403fbc4 	addi	r16,r16,4079
 20027bc:	8020d33a 	srli	r16,r16,12
 20027c0:	0083ffc4 	movi	r2,4095
 20027c4:	843fffc4 	addi	r16,r16,-1
 20027c8:	8020933a 	slli	r16,r16,12
 20027cc:	1400060e 	bge	r2,r16,20027e8 <_malloc_trim_r+0x70>
 20027d0:	000b883a 	mov	r5,zero
 20027d4:	9009883a 	mov	r4,r18
 20027d8:	20020340 	call	2002034 <_sbrk_r>
 20027dc:	98c00217 	ldw	r3,8(r19)
 20027e0:	1c47883a 	add	r3,r3,r17
 20027e4:	10c00a26 	beq	r2,r3,2002810 <_malloc_trim_r+0x98>
 20027e8:	9009883a 	mov	r4,r18
 20027ec:	200362c0 	call	200362c <__malloc_unlock>
 20027f0:	0005883a 	mov	r2,zero
 20027f4:	dfc00417 	ldw	ra,16(sp)
 20027f8:	dcc00317 	ldw	r19,12(sp)
 20027fc:	dc800217 	ldw	r18,8(sp)
 2002800:	dc400117 	ldw	r17,4(sp)
 2002804:	dc000017 	ldw	r16,0(sp)
 2002808:	dec00504 	addi	sp,sp,20
 200280c:	f800283a 	ret
 2002810:	040bc83a 	sub	r5,zero,r16
 2002814:	9009883a 	mov	r4,r18
 2002818:	20020340 	call	2002034 <_sbrk_r>
 200281c:	00ffffc4 	movi	r3,-1
 2002820:	10c00d26 	beq	r2,r3,2002858 <_malloc_trim_r+0xe0>
 2002824:	00c08034 	movhi	r3,512
 2002828:	18dff904 	addi	r3,r3,32740
 200282c:	18800017 	ldw	r2,0(r3)
 2002830:	99000217 	ldw	r4,8(r19)
 2002834:	8c23c83a 	sub	r17,r17,r16
 2002838:	8c400054 	ori	r17,r17,1
 200283c:	1421c83a 	sub	r16,r2,r16
 2002840:	24400115 	stw	r17,4(r4)
 2002844:	9009883a 	mov	r4,r18
 2002848:	1c000015 	stw	r16,0(r3)
 200284c:	200362c0 	call	200362c <__malloc_unlock>
 2002850:	00800044 	movi	r2,1
 2002854:	003fe706 	br	20027f4 <__alt_mem_epcs_flash_controller+0xfe001ff4>
 2002858:	000b883a 	mov	r5,zero
 200285c:	9009883a 	mov	r4,r18
 2002860:	20020340 	call	2002034 <_sbrk_r>
 2002864:	99000217 	ldw	r4,8(r19)
 2002868:	014003c4 	movi	r5,15
 200286c:	1107c83a 	sub	r3,r2,r4
 2002870:	28ffdd0e 	bge	r5,r3,20027e8 <__alt_mem_epcs_flash_controller+0xfe001fe8>
 2002874:	01408034 	movhi	r5,512
 2002878:	295cdc04 	addi	r5,r5,29552
 200287c:	29400017 	ldw	r5,0(r5)
 2002880:	18c00054 	ori	r3,r3,1
 2002884:	20c00115 	stw	r3,4(r4)
 2002888:	00c08034 	movhi	r3,512
 200288c:	1145c83a 	sub	r2,r2,r5
 2002890:	18dff904 	addi	r3,r3,32740
 2002894:	18800015 	stw	r2,0(r3)
 2002898:	003fd306 	br	20027e8 <__alt_mem_epcs_flash_controller+0xfe001fe8>

0200289c <_free_r>:
 200289c:	28004126 	beq	r5,zero,20029a4 <_free_r+0x108>
 20028a0:	defffd04 	addi	sp,sp,-12
 20028a4:	dc400115 	stw	r17,4(sp)
 20028a8:	dc000015 	stw	r16,0(sp)
 20028ac:	2023883a 	mov	r17,r4
 20028b0:	2821883a 	mov	r16,r5
 20028b4:	dfc00215 	stw	ra,8(sp)
 20028b8:	20036080 	call	2003608 <__malloc_lock>
 20028bc:	81ffff17 	ldw	r7,-4(r16)
 20028c0:	00bfff84 	movi	r2,-2
 20028c4:	01008034 	movhi	r4,512
 20028c8:	81bffe04 	addi	r6,r16,-8
 20028cc:	3884703a 	and	r2,r7,r2
 20028d0:	211ae904 	addi	r4,r4,27556
 20028d4:	308b883a 	add	r5,r6,r2
 20028d8:	2a400117 	ldw	r9,4(r5)
 20028dc:	22000217 	ldw	r8,8(r4)
 20028e0:	00ffff04 	movi	r3,-4
 20028e4:	48c6703a 	and	r3,r9,r3
 20028e8:	2a005726 	beq	r5,r8,2002a48 <_free_r+0x1ac>
 20028ec:	28c00115 	stw	r3,4(r5)
 20028f0:	39c0004c 	andi	r7,r7,1
 20028f4:	3800091e 	bne	r7,zero,200291c <_free_r+0x80>
 20028f8:	823ffe17 	ldw	r8,-8(r16)
 20028fc:	22400204 	addi	r9,r4,8
 2002900:	320dc83a 	sub	r6,r6,r8
 2002904:	31c00217 	ldw	r7,8(r6)
 2002908:	1205883a 	add	r2,r2,r8
 200290c:	3a406526 	beq	r7,r9,2002aa4 <_free_r+0x208>
 2002910:	32000317 	ldw	r8,12(r6)
 2002914:	3a000315 	stw	r8,12(r7)
 2002918:	41c00215 	stw	r7,8(r8)
 200291c:	28cf883a 	add	r7,r5,r3
 2002920:	39c00117 	ldw	r7,4(r7)
 2002924:	39c0004c 	andi	r7,r7,1
 2002928:	38003a26 	beq	r7,zero,2002a14 <_free_r+0x178>
 200292c:	10c00054 	ori	r3,r2,1
 2002930:	30c00115 	stw	r3,4(r6)
 2002934:	3087883a 	add	r3,r6,r2
 2002938:	18800015 	stw	r2,0(r3)
 200293c:	00c07fc4 	movi	r3,511
 2002940:	18801936 	bltu	r3,r2,20029a8 <_free_r+0x10c>
 2002944:	1004d0fa 	srli	r2,r2,3
 2002948:	01c00044 	movi	r7,1
 200294c:	21400117 	ldw	r5,4(r4)
 2002950:	10c00044 	addi	r3,r2,1
 2002954:	18c7883a 	add	r3,r3,r3
 2002958:	1005d0ba 	srai	r2,r2,2
 200295c:	18c7883a 	add	r3,r3,r3
 2002960:	18c7883a 	add	r3,r3,r3
 2002964:	1907883a 	add	r3,r3,r4
 2002968:	3884983a 	sll	r2,r7,r2
 200296c:	19c00017 	ldw	r7,0(r3)
 2002970:	1a3ffe04 	addi	r8,r3,-8
 2002974:	1144b03a 	or	r2,r2,r5
 2002978:	32000315 	stw	r8,12(r6)
 200297c:	31c00215 	stw	r7,8(r6)
 2002980:	20800115 	stw	r2,4(r4)
 2002984:	19800015 	stw	r6,0(r3)
 2002988:	39800315 	stw	r6,12(r7)
 200298c:	8809883a 	mov	r4,r17
 2002990:	dfc00217 	ldw	ra,8(sp)
 2002994:	dc400117 	ldw	r17,4(sp)
 2002998:	dc000017 	ldw	r16,0(sp)
 200299c:	dec00304 	addi	sp,sp,12
 20029a0:	200362c1 	jmpi	200362c <__malloc_unlock>
 20029a4:	f800283a 	ret
 20029a8:	100ad27a 	srli	r5,r2,9
 20029ac:	00c00104 	movi	r3,4
 20029b0:	19404a36 	bltu	r3,r5,2002adc <_free_r+0x240>
 20029b4:	100ad1ba 	srli	r5,r2,6
 20029b8:	28c00e44 	addi	r3,r5,57
 20029bc:	18c7883a 	add	r3,r3,r3
 20029c0:	29400e04 	addi	r5,r5,56
 20029c4:	18c7883a 	add	r3,r3,r3
 20029c8:	18c7883a 	add	r3,r3,r3
 20029cc:	1909883a 	add	r4,r3,r4
 20029d0:	20c00017 	ldw	r3,0(r4)
 20029d4:	01c08034 	movhi	r7,512
 20029d8:	213ffe04 	addi	r4,r4,-8
 20029dc:	39dae904 	addi	r7,r7,27556
 20029e0:	20c04426 	beq	r4,r3,2002af4 <_free_r+0x258>
 20029e4:	01ffff04 	movi	r7,-4
 20029e8:	19400117 	ldw	r5,4(r3)
 20029ec:	29ca703a 	and	r5,r5,r7
 20029f0:	1140022e 	bgeu	r2,r5,20029fc <_free_r+0x160>
 20029f4:	18c00217 	ldw	r3,8(r3)
 20029f8:	20fffb1e 	bne	r4,r3,20029e8 <__alt_mem_epcs_flash_controller+0xfe0021e8>
 20029fc:	19000317 	ldw	r4,12(r3)
 2002a00:	31000315 	stw	r4,12(r6)
 2002a04:	30c00215 	stw	r3,8(r6)
 2002a08:	21800215 	stw	r6,8(r4)
 2002a0c:	19800315 	stw	r6,12(r3)
 2002a10:	003fde06 	br	200298c <__alt_mem_epcs_flash_controller+0xfe00218c>
 2002a14:	29c00217 	ldw	r7,8(r5)
 2002a18:	10c5883a 	add	r2,r2,r3
 2002a1c:	00c08034 	movhi	r3,512
 2002a20:	18daeb04 	addi	r3,r3,27564
 2002a24:	38c03b26 	beq	r7,r3,2002b14 <_free_r+0x278>
 2002a28:	2a000317 	ldw	r8,12(r5)
 2002a2c:	11400054 	ori	r5,r2,1
 2002a30:	3087883a 	add	r3,r6,r2
 2002a34:	3a000315 	stw	r8,12(r7)
 2002a38:	41c00215 	stw	r7,8(r8)
 2002a3c:	31400115 	stw	r5,4(r6)
 2002a40:	18800015 	stw	r2,0(r3)
 2002a44:	003fbd06 	br	200293c <__alt_mem_epcs_flash_controller+0xfe00213c>
 2002a48:	39c0004c 	andi	r7,r7,1
 2002a4c:	10c5883a 	add	r2,r2,r3
 2002a50:	3800071e 	bne	r7,zero,2002a70 <_free_r+0x1d4>
 2002a54:	81fffe17 	ldw	r7,-8(r16)
 2002a58:	31cdc83a 	sub	r6,r6,r7
 2002a5c:	30c00317 	ldw	r3,12(r6)
 2002a60:	31400217 	ldw	r5,8(r6)
 2002a64:	11c5883a 	add	r2,r2,r7
 2002a68:	28c00315 	stw	r3,12(r5)
 2002a6c:	19400215 	stw	r5,8(r3)
 2002a70:	10c00054 	ori	r3,r2,1
 2002a74:	30c00115 	stw	r3,4(r6)
 2002a78:	00c08034 	movhi	r3,512
 2002a7c:	18dcdd04 	addi	r3,r3,29556
 2002a80:	18c00017 	ldw	r3,0(r3)
 2002a84:	21800215 	stw	r6,8(r4)
 2002a88:	10ffc036 	bltu	r2,r3,200298c <__alt_mem_epcs_flash_controller+0xfe00218c>
 2002a8c:	00808034 	movhi	r2,512
 2002a90:	109ff204 	addi	r2,r2,32712
 2002a94:	11400017 	ldw	r5,0(r2)
 2002a98:	8809883a 	mov	r4,r17
 2002a9c:	20027780 	call	2002778 <_malloc_trim_r>
 2002aa0:	003fba06 	br	200298c <__alt_mem_epcs_flash_controller+0xfe00218c>
 2002aa4:	28c9883a 	add	r4,r5,r3
 2002aa8:	21000117 	ldw	r4,4(r4)
 2002aac:	2100004c 	andi	r4,r4,1
 2002ab0:	2000391e 	bne	r4,zero,2002b98 <_free_r+0x2fc>
 2002ab4:	29c00217 	ldw	r7,8(r5)
 2002ab8:	29000317 	ldw	r4,12(r5)
 2002abc:	1885883a 	add	r2,r3,r2
 2002ac0:	10c00054 	ori	r3,r2,1
 2002ac4:	39000315 	stw	r4,12(r7)
 2002ac8:	21c00215 	stw	r7,8(r4)
 2002acc:	30c00115 	stw	r3,4(r6)
 2002ad0:	308d883a 	add	r6,r6,r2
 2002ad4:	30800015 	stw	r2,0(r6)
 2002ad8:	003fac06 	br	200298c <__alt_mem_epcs_flash_controller+0xfe00218c>
 2002adc:	00c00504 	movi	r3,20
 2002ae0:	19401536 	bltu	r3,r5,2002b38 <_free_r+0x29c>
 2002ae4:	28c01704 	addi	r3,r5,92
 2002ae8:	18c7883a 	add	r3,r3,r3
 2002aec:	294016c4 	addi	r5,r5,91
 2002af0:	003fb406 	br	20029c4 <__alt_mem_epcs_flash_controller+0xfe0021c4>
 2002af4:	280bd0ba 	srai	r5,r5,2
 2002af8:	00c00044 	movi	r3,1
 2002afc:	38800117 	ldw	r2,4(r7)
 2002b00:	194a983a 	sll	r5,r3,r5
 2002b04:	2007883a 	mov	r3,r4
 2002b08:	2884b03a 	or	r2,r5,r2
 2002b0c:	38800115 	stw	r2,4(r7)
 2002b10:	003fbb06 	br	2002a00 <__alt_mem_epcs_flash_controller+0xfe002200>
 2002b14:	21800515 	stw	r6,20(r4)
 2002b18:	21800415 	stw	r6,16(r4)
 2002b1c:	10c00054 	ori	r3,r2,1
 2002b20:	31c00315 	stw	r7,12(r6)
 2002b24:	31c00215 	stw	r7,8(r6)
 2002b28:	30c00115 	stw	r3,4(r6)
 2002b2c:	308d883a 	add	r6,r6,r2
 2002b30:	30800015 	stw	r2,0(r6)
 2002b34:	003f9506 	br	200298c <__alt_mem_epcs_flash_controller+0xfe00218c>
 2002b38:	00c01504 	movi	r3,84
 2002b3c:	19400536 	bltu	r3,r5,2002b54 <_free_r+0x2b8>
 2002b40:	100ad33a 	srli	r5,r2,12
 2002b44:	28c01bc4 	addi	r3,r5,111
 2002b48:	18c7883a 	add	r3,r3,r3
 2002b4c:	29401b84 	addi	r5,r5,110
 2002b50:	003f9c06 	br	20029c4 <__alt_mem_epcs_flash_controller+0xfe0021c4>
 2002b54:	00c05504 	movi	r3,340
 2002b58:	19400536 	bltu	r3,r5,2002b70 <_free_r+0x2d4>
 2002b5c:	100ad3fa 	srli	r5,r2,15
 2002b60:	28c01e04 	addi	r3,r5,120
 2002b64:	18c7883a 	add	r3,r3,r3
 2002b68:	29401dc4 	addi	r5,r5,119
 2002b6c:	003f9506 	br	20029c4 <__alt_mem_epcs_flash_controller+0xfe0021c4>
 2002b70:	00c15504 	movi	r3,1364
 2002b74:	19400536 	bltu	r3,r5,2002b8c <_free_r+0x2f0>
 2002b78:	100ad4ba 	srli	r5,r2,18
 2002b7c:	28c01f44 	addi	r3,r5,125
 2002b80:	18c7883a 	add	r3,r3,r3
 2002b84:	29401f04 	addi	r5,r5,124
 2002b88:	003f8e06 	br	20029c4 <__alt_mem_epcs_flash_controller+0xfe0021c4>
 2002b8c:	00c03f84 	movi	r3,254
 2002b90:	01401f84 	movi	r5,126
 2002b94:	003f8b06 	br	20029c4 <__alt_mem_epcs_flash_controller+0xfe0021c4>
 2002b98:	10c00054 	ori	r3,r2,1
 2002b9c:	30c00115 	stw	r3,4(r6)
 2002ba0:	308d883a 	add	r6,r6,r2
 2002ba4:	30800015 	stw	r2,0(r6)
 2002ba8:	003f7806 	br	200298c <__alt_mem_epcs_flash_controller+0xfe00218c>

02002bac <_lseek_r>:
 2002bac:	defffd04 	addi	sp,sp,-12
 2002bb0:	2805883a 	mov	r2,r5
 2002bb4:	dc000015 	stw	r16,0(sp)
 2002bb8:	04008034 	movhi	r16,512
 2002bbc:	dc400115 	stw	r17,4(sp)
 2002bc0:	300b883a 	mov	r5,r6
 2002bc4:	841ff304 	addi	r16,r16,32716
 2002bc8:	2023883a 	mov	r17,r4
 2002bcc:	380d883a 	mov	r6,r7
 2002bd0:	1009883a 	mov	r4,r2
 2002bd4:	dfc00215 	stw	ra,8(sp)
 2002bd8:	80000015 	stw	zero,0(r16)
 2002bdc:	20034b80 	call	20034b8 <lseek>
 2002be0:	00ffffc4 	movi	r3,-1
 2002be4:	10c00526 	beq	r2,r3,2002bfc <_lseek_r+0x50>
 2002be8:	dfc00217 	ldw	ra,8(sp)
 2002bec:	dc400117 	ldw	r17,4(sp)
 2002bf0:	dc000017 	ldw	r16,0(sp)
 2002bf4:	dec00304 	addi	sp,sp,12
 2002bf8:	f800283a 	ret
 2002bfc:	80c00017 	ldw	r3,0(r16)
 2002c00:	183ff926 	beq	r3,zero,2002be8 <__alt_mem_epcs_flash_controller+0xfe0023e8>
 2002c04:	88c00015 	stw	r3,0(r17)
 2002c08:	003ff706 	br	2002be8 <__alt_mem_epcs_flash_controller+0xfe0023e8>

02002c0c <__smakebuf_r>:
 2002c0c:	2880030b 	ldhu	r2,12(r5)
 2002c10:	10c0008c 	andi	r3,r2,2
 2002c14:	1800411e 	bne	r3,zero,2002d1c <__smakebuf_r+0x110>
 2002c18:	deffec04 	addi	sp,sp,-80
 2002c1c:	dc000f15 	stw	r16,60(sp)
 2002c20:	2821883a 	mov	r16,r5
 2002c24:	2940038f 	ldh	r5,14(r5)
 2002c28:	dc401015 	stw	r17,64(sp)
 2002c2c:	dfc01315 	stw	ra,76(sp)
 2002c30:	dcc01215 	stw	r19,72(sp)
 2002c34:	dc801115 	stw	r18,68(sp)
 2002c38:	2023883a 	mov	r17,r4
 2002c3c:	28001c16 	blt	r5,zero,2002cb0 <__smakebuf_r+0xa4>
 2002c40:	d80d883a 	mov	r6,sp
 2002c44:	2002e280 	call	2002e28 <_fstat_r>
 2002c48:	10001816 	blt	r2,zero,2002cac <__smakebuf_r+0xa0>
 2002c4c:	d8800117 	ldw	r2,4(sp)
 2002c50:	00e00014 	movui	r3,32768
 2002c54:	10bc000c 	andi	r2,r2,61440
 2002c58:	14c80020 	cmpeqi	r19,r2,8192
 2002c5c:	10c03726 	beq	r2,r3,2002d3c <__smakebuf_r+0x130>
 2002c60:	80c0030b 	ldhu	r3,12(r16)
 2002c64:	18c20014 	ori	r3,r3,2048
 2002c68:	80c0030d 	sth	r3,12(r16)
 2002c6c:	00c80004 	movi	r3,8192
 2002c70:	10c0521e 	bne	r2,r3,2002dbc <__smakebuf_r+0x1b0>
 2002c74:	8140038f 	ldh	r5,14(r16)
 2002c78:	8809883a 	mov	r4,r17
 2002c7c:	2002e840 	call	2002e84 <_isatty_r>
 2002c80:	10004c26 	beq	r2,zero,2002db4 <__smakebuf_r+0x1a8>
 2002c84:	8080030b 	ldhu	r2,12(r16)
 2002c88:	80c010c4 	addi	r3,r16,67
 2002c8c:	80c00015 	stw	r3,0(r16)
 2002c90:	10800054 	ori	r2,r2,1
 2002c94:	8080030d 	sth	r2,12(r16)
 2002c98:	00800044 	movi	r2,1
 2002c9c:	80c00415 	stw	r3,16(r16)
 2002ca0:	80800515 	stw	r2,20(r16)
 2002ca4:	04810004 	movi	r18,1024
 2002ca8:	00000706 	br	2002cc8 <__smakebuf_r+0xbc>
 2002cac:	8080030b 	ldhu	r2,12(r16)
 2002cb0:	10c0200c 	andi	r3,r2,128
 2002cb4:	18001f1e 	bne	r3,zero,2002d34 <__smakebuf_r+0x128>
 2002cb8:	04810004 	movi	r18,1024
 2002cbc:	10820014 	ori	r2,r2,2048
 2002cc0:	8080030d 	sth	r2,12(r16)
 2002cc4:	0027883a 	mov	r19,zero
 2002cc8:	900b883a 	mov	r5,r18
 2002ccc:	8809883a 	mov	r4,r17
 2002cd0:	2000e140 	call	2000e14 <_malloc_r>
 2002cd4:	10002c26 	beq	r2,zero,2002d88 <__smakebuf_r+0x17c>
 2002cd8:	80c0030b 	ldhu	r3,12(r16)
 2002cdc:	01008034 	movhi	r4,512
 2002ce0:	21010e04 	addi	r4,r4,1080
 2002ce4:	89000f15 	stw	r4,60(r17)
 2002ce8:	18c02014 	ori	r3,r3,128
 2002cec:	80c0030d 	sth	r3,12(r16)
 2002cf0:	80800015 	stw	r2,0(r16)
 2002cf4:	80800415 	stw	r2,16(r16)
 2002cf8:	84800515 	stw	r18,20(r16)
 2002cfc:	98001a1e 	bne	r19,zero,2002d68 <__smakebuf_r+0x15c>
 2002d00:	dfc01317 	ldw	ra,76(sp)
 2002d04:	dcc01217 	ldw	r19,72(sp)
 2002d08:	dc801117 	ldw	r18,68(sp)
 2002d0c:	dc401017 	ldw	r17,64(sp)
 2002d10:	dc000f17 	ldw	r16,60(sp)
 2002d14:	dec01404 	addi	sp,sp,80
 2002d18:	f800283a 	ret
 2002d1c:	288010c4 	addi	r2,r5,67
 2002d20:	28800015 	stw	r2,0(r5)
 2002d24:	28800415 	stw	r2,16(r5)
 2002d28:	00800044 	movi	r2,1
 2002d2c:	28800515 	stw	r2,20(r5)
 2002d30:	f800283a 	ret
 2002d34:	04801004 	movi	r18,64
 2002d38:	003fe006 	br	2002cbc <__alt_mem_epcs_flash_controller+0xfe0024bc>
 2002d3c:	81000a17 	ldw	r4,40(r16)
 2002d40:	00c08034 	movhi	r3,512
 2002d44:	18c85804 	addi	r3,r3,8544
 2002d48:	20ffc51e 	bne	r4,r3,2002c60 <__alt_mem_epcs_flash_controller+0xfe002460>
 2002d4c:	8080030b 	ldhu	r2,12(r16)
 2002d50:	04810004 	movi	r18,1024
 2002d54:	84801315 	stw	r18,76(r16)
 2002d58:	1484b03a 	or	r2,r2,r18
 2002d5c:	8080030d 	sth	r2,12(r16)
 2002d60:	0027883a 	mov	r19,zero
 2002d64:	003fd806 	br	2002cc8 <__alt_mem_epcs_flash_controller+0xfe0024c8>
 2002d68:	8140038f 	ldh	r5,14(r16)
 2002d6c:	8809883a 	mov	r4,r17
 2002d70:	2002e840 	call	2002e84 <_isatty_r>
 2002d74:	103fe226 	beq	r2,zero,2002d00 <__alt_mem_epcs_flash_controller+0xfe002500>
 2002d78:	8080030b 	ldhu	r2,12(r16)
 2002d7c:	10800054 	ori	r2,r2,1
 2002d80:	8080030d 	sth	r2,12(r16)
 2002d84:	003fde06 	br	2002d00 <__alt_mem_epcs_flash_controller+0xfe002500>
 2002d88:	8080030b 	ldhu	r2,12(r16)
 2002d8c:	10c0800c 	andi	r3,r2,512
 2002d90:	183fdb1e 	bne	r3,zero,2002d00 <__alt_mem_epcs_flash_controller+0xfe002500>
 2002d94:	10800094 	ori	r2,r2,2
 2002d98:	80c010c4 	addi	r3,r16,67
 2002d9c:	8080030d 	sth	r2,12(r16)
 2002da0:	00800044 	movi	r2,1
 2002da4:	80c00015 	stw	r3,0(r16)
 2002da8:	80c00415 	stw	r3,16(r16)
 2002dac:	80800515 	stw	r2,20(r16)
 2002db0:	003fd306 	br	2002d00 <__alt_mem_epcs_flash_controller+0xfe002500>
 2002db4:	04810004 	movi	r18,1024
 2002db8:	003fc306 	br	2002cc8 <__alt_mem_epcs_flash_controller+0xfe0024c8>
 2002dbc:	0027883a 	mov	r19,zero
 2002dc0:	04810004 	movi	r18,1024
 2002dc4:	003fc006 	br	2002cc8 <__alt_mem_epcs_flash_controller+0xfe0024c8>

02002dc8 <_read_r>:
 2002dc8:	defffd04 	addi	sp,sp,-12
 2002dcc:	2805883a 	mov	r2,r5
 2002dd0:	dc000015 	stw	r16,0(sp)
 2002dd4:	04008034 	movhi	r16,512
 2002dd8:	dc400115 	stw	r17,4(sp)
 2002ddc:	300b883a 	mov	r5,r6
 2002de0:	841ff304 	addi	r16,r16,32716
 2002de4:	2023883a 	mov	r17,r4
 2002de8:	380d883a 	mov	r6,r7
 2002dec:	1009883a 	mov	r4,r2
 2002df0:	dfc00215 	stw	ra,8(sp)
 2002df4:	80000015 	stw	zero,0(r16)
 2002df8:	200368c0 	call	200368c <read>
 2002dfc:	00ffffc4 	movi	r3,-1
 2002e00:	10c00526 	beq	r2,r3,2002e18 <_read_r+0x50>
 2002e04:	dfc00217 	ldw	ra,8(sp)
 2002e08:	dc400117 	ldw	r17,4(sp)
 2002e0c:	dc000017 	ldw	r16,0(sp)
 2002e10:	dec00304 	addi	sp,sp,12
 2002e14:	f800283a 	ret
 2002e18:	80c00017 	ldw	r3,0(r16)
 2002e1c:	183ff926 	beq	r3,zero,2002e04 <__alt_mem_epcs_flash_controller+0xfe002604>
 2002e20:	88c00015 	stw	r3,0(r17)
 2002e24:	003ff706 	br	2002e04 <__alt_mem_epcs_flash_controller+0xfe002604>

02002e28 <_fstat_r>:
 2002e28:	defffd04 	addi	sp,sp,-12
 2002e2c:	2805883a 	mov	r2,r5
 2002e30:	dc000015 	stw	r16,0(sp)
 2002e34:	04008034 	movhi	r16,512
 2002e38:	dc400115 	stw	r17,4(sp)
 2002e3c:	841ff304 	addi	r16,r16,32716
 2002e40:	2023883a 	mov	r17,r4
 2002e44:	300b883a 	mov	r5,r6
 2002e48:	1009883a 	mov	r4,r2
 2002e4c:	dfc00215 	stw	ra,8(sp)
 2002e50:	80000015 	stw	zero,0(r16)
 2002e54:	20032000 	call	2003200 <fstat>
 2002e58:	00ffffc4 	movi	r3,-1
 2002e5c:	10c00526 	beq	r2,r3,2002e74 <_fstat_r+0x4c>
 2002e60:	dfc00217 	ldw	ra,8(sp)
 2002e64:	dc400117 	ldw	r17,4(sp)
 2002e68:	dc000017 	ldw	r16,0(sp)
 2002e6c:	dec00304 	addi	sp,sp,12
 2002e70:	f800283a 	ret
 2002e74:	80c00017 	ldw	r3,0(r16)
 2002e78:	183ff926 	beq	r3,zero,2002e60 <__alt_mem_epcs_flash_controller+0xfe002660>
 2002e7c:	88c00015 	stw	r3,0(r17)
 2002e80:	003ff706 	br	2002e60 <__alt_mem_epcs_flash_controller+0xfe002660>

02002e84 <_isatty_r>:
 2002e84:	defffd04 	addi	sp,sp,-12
 2002e88:	dc000015 	stw	r16,0(sp)
 2002e8c:	04008034 	movhi	r16,512
 2002e90:	dc400115 	stw	r17,4(sp)
 2002e94:	841ff304 	addi	r16,r16,32716
 2002e98:	2023883a 	mov	r17,r4
 2002e9c:	2809883a 	mov	r4,r5
 2002ea0:	dfc00215 	stw	ra,8(sp)
 2002ea4:	80000015 	stw	zero,0(r16)
 2002ea8:	20032ec0 	call	20032ec <isatty>
 2002eac:	00ffffc4 	movi	r3,-1
 2002eb0:	10c00526 	beq	r2,r3,2002ec8 <_isatty_r+0x44>
 2002eb4:	dfc00217 	ldw	ra,8(sp)
 2002eb8:	dc400117 	ldw	r17,4(sp)
 2002ebc:	dc000017 	ldw	r16,0(sp)
 2002ec0:	dec00304 	addi	sp,sp,12
 2002ec4:	f800283a 	ret
 2002ec8:	80c00017 	ldw	r3,0(r16)
 2002ecc:	183ff926 	beq	r3,zero,2002eb4 <__alt_mem_epcs_flash_controller+0xfe0026b4>
 2002ed0:	88c00015 	stw	r3,0(r17)
 2002ed4:	003ff706 	br	2002eb4 <__alt_mem_epcs_flash_controller+0xfe0026b4>

02002ed8 <__divsi3>:
 2002ed8:	20001b16 	blt	r4,zero,2002f48 <__divsi3+0x70>
 2002edc:	000f883a 	mov	r7,zero
 2002ee0:	28001616 	blt	r5,zero,2002f3c <__divsi3+0x64>
 2002ee4:	200d883a 	mov	r6,r4
 2002ee8:	29001a2e 	bgeu	r5,r4,2002f54 <__divsi3+0x7c>
 2002eec:	00800804 	movi	r2,32
 2002ef0:	00c00044 	movi	r3,1
 2002ef4:	00000106 	br	2002efc <__divsi3+0x24>
 2002ef8:	10000d26 	beq	r2,zero,2002f30 <__divsi3+0x58>
 2002efc:	294b883a 	add	r5,r5,r5
 2002f00:	10bfffc4 	addi	r2,r2,-1
 2002f04:	18c7883a 	add	r3,r3,r3
 2002f08:	293ffb36 	bltu	r5,r4,2002ef8 <__alt_mem_epcs_flash_controller+0xfe0026f8>
 2002f0c:	0005883a 	mov	r2,zero
 2002f10:	18000726 	beq	r3,zero,2002f30 <__divsi3+0x58>
 2002f14:	0005883a 	mov	r2,zero
 2002f18:	31400236 	bltu	r6,r5,2002f24 <__divsi3+0x4c>
 2002f1c:	314dc83a 	sub	r6,r6,r5
 2002f20:	10c4b03a 	or	r2,r2,r3
 2002f24:	1806d07a 	srli	r3,r3,1
 2002f28:	280ad07a 	srli	r5,r5,1
 2002f2c:	183ffa1e 	bne	r3,zero,2002f18 <__alt_mem_epcs_flash_controller+0xfe002718>
 2002f30:	38000126 	beq	r7,zero,2002f38 <__divsi3+0x60>
 2002f34:	0085c83a 	sub	r2,zero,r2
 2002f38:	f800283a 	ret
 2002f3c:	014bc83a 	sub	r5,zero,r5
 2002f40:	39c0005c 	xori	r7,r7,1
 2002f44:	003fe706 	br	2002ee4 <__alt_mem_epcs_flash_controller+0xfe0026e4>
 2002f48:	0109c83a 	sub	r4,zero,r4
 2002f4c:	01c00044 	movi	r7,1
 2002f50:	003fe306 	br	2002ee0 <__alt_mem_epcs_flash_controller+0xfe0026e0>
 2002f54:	00c00044 	movi	r3,1
 2002f58:	003fee06 	br	2002f14 <__alt_mem_epcs_flash_controller+0xfe002714>

02002f5c <__modsi3>:
 2002f5c:	20001716 	blt	r4,zero,2002fbc <__modsi3+0x60>
 2002f60:	000f883a 	mov	r7,zero
 2002f64:	2005883a 	mov	r2,r4
 2002f68:	28001216 	blt	r5,zero,2002fb4 <__modsi3+0x58>
 2002f6c:	2900162e 	bgeu	r5,r4,2002fc8 <__modsi3+0x6c>
 2002f70:	01800804 	movi	r6,32
 2002f74:	00c00044 	movi	r3,1
 2002f78:	00000106 	br	2002f80 <__modsi3+0x24>
 2002f7c:	30000a26 	beq	r6,zero,2002fa8 <__modsi3+0x4c>
 2002f80:	294b883a 	add	r5,r5,r5
 2002f84:	31bfffc4 	addi	r6,r6,-1
 2002f88:	18c7883a 	add	r3,r3,r3
 2002f8c:	293ffb36 	bltu	r5,r4,2002f7c <__alt_mem_epcs_flash_controller+0xfe00277c>
 2002f90:	18000526 	beq	r3,zero,2002fa8 <__modsi3+0x4c>
 2002f94:	1806d07a 	srli	r3,r3,1
 2002f98:	11400136 	bltu	r2,r5,2002fa0 <__modsi3+0x44>
 2002f9c:	1145c83a 	sub	r2,r2,r5
 2002fa0:	280ad07a 	srli	r5,r5,1
 2002fa4:	183ffb1e 	bne	r3,zero,2002f94 <__alt_mem_epcs_flash_controller+0xfe002794>
 2002fa8:	38000126 	beq	r7,zero,2002fb0 <__modsi3+0x54>
 2002fac:	0085c83a 	sub	r2,zero,r2
 2002fb0:	f800283a 	ret
 2002fb4:	014bc83a 	sub	r5,zero,r5
 2002fb8:	003fec06 	br	2002f6c <__alt_mem_epcs_flash_controller+0xfe00276c>
 2002fbc:	0109c83a 	sub	r4,zero,r4
 2002fc0:	01c00044 	movi	r7,1
 2002fc4:	003fe706 	br	2002f64 <__alt_mem_epcs_flash_controller+0xfe002764>
 2002fc8:	00c00044 	movi	r3,1
 2002fcc:	003ff106 	br	2002f94 <__alt_mem_epcs_flash_controller+0xfe002794>

02002fd0 <__udivsi3>:
 2002fd0:	200d883a 	mov	r6,r4
 2002fd4:	2900152e 	bgeu	r5,r4,200302c <__udivsi3+0x5c>
 2002fd8:	28001416 	blt	r5,zero,200302c <__udivsi3+0x5c>
 2002fdc:	00800804 	movi	r2,32
 2002fe0:	00c00044 	movi	r3,1
 2002fe4:	00000206 	br	2002ff0 <__udivsi3+0x20>
 2002fe8:	10000e26 	beq	r2,zero,2003024 <__udivsi3+0x54>
 2002fec:	28000516 	blt	r5,zero,2003004 <__udivsi3+0x34>
 2002ff0:	294b883a 	add	r5,r5,r5
 2002ff4:	10bfffc4 	addi	r2,r2,-1
 2002ff8:	18c7883a 	add	r3,r3,r3
 2002ffc:	293ffa36 	bltu	r5,r4,2002fe8 <__alt_mem_epcs_flash_controller+0xfe0027e8>
 2003000:	18000826 	beq	r3,zero,2003024 <__udivsi3+0x54>
 2003004:	0005883a 	mov	r2,zero
 2003008:	31400236 	bltu	r6,r5,2003014 <__udivsi3+0x44>
 200300c:	314dc83a 	sub	r6,r6,r5
 2003010:	10c4b03a 	or	r2,r2,r3
 2003014:	1806d07a 	srli	r3,r3,1
 2003018:	280ad07a 	srli	r5,r5,1
 200301c:	183ffa1e 	bne	r3,zero,2003008 <__alt_mem_epcs_flash_controller+0xfe002808>
 2003020:	f800283a 	ret
 2003024:	0005883a 	mov	r2,zero
 2003028:	f800283a 	ret
 200302c:	00c00044 	movi	r3,1
 2003030:	003ff406 	br	2003004 <__alt_mem_epcs_flash_controller+0xfe002804>

02003034 <__umodsi3>:
 2003034:	2005883a 	mov	r2,r4
 2003038:	2900122e 	bgeu	r5,r4,2003084 <__umodsi3+0x50>
 200303c:	28001116 	blt	r5,zero,2003084 <__umodsi3+0x50>
 2003040:	01800804 	movi	r6,32
 2003044:	00c00044 	movi	r3,1
 2003048:	00000206 	br	2003054 <__umodsi3+0x20>
 200304c:	30000c26 	beq	r6,zero,2003080 <__umodsi3+0x4c>
 2003050:	28000516 	blt	r5,zero,2003068 <__umodsi3+0x34>
 2003054:	294b883a 	add	r5,r5,r5
 2003058:	31bfffc4 	addi	r6,r6,-1
 200305c:	18c7883a 	add	r3,r3,r3
 2003060:	293ffa36 	bltu	r5,r4,200304c <__alt_mem_epcs_flash_controller+0xfe00284c>
 2003064:	18000626 	beq	r3,zero,2003080 <__umodsi3+0x4c>
 2003068:	1806d07a 	srli	r3,r3,1
 200306c:	11400136 	bltu	r2,r5,2003074 <__umodsi3+0x40>
 2003070:	1145c83a 	sub	r2,r2,r5
 2003074:	280ad07a 	srli	r5,r5,1
 2003078:	183ffb1e 	bne	r3,zero,2003068 <__alt_mem_epcs_flash_controller+0xfe002868>
 200307c:	f800283a 	ret
 2003080:	f800283a 	ret
 2003084:	00c00044 	movi	r3,1
 2003088:	003ff706 	br	2003068 <__alt_mem_epcs_flash_controller+0xfe002868>

0200308c <alt_get_errno>:
 200308c:	defffe04 	addi	sp,sp,-8
 2003090:	dfc00115 	stw	ra,4(sp)
 2003094:	df000015 	stw	fp,0(sp)
 2003098:	d839883a 	mov	fp,sp
 200309c:	d0a00917 	ldw	r2,-32732(gp)
 20030a0:	10000326 	beq	r2,zero,20030b0 <alt_get_errno+0x24>
 20030a4:	d0a00917 	ldw	r2,-32732(gp)
 20030a8:	103ee83a 	callr	r2
 20030ac:	00000106 	br	20030b4 <alt_get_errno+0x28>
 20030b0:	d0a31904 	addi	r2,gp,-29596
 20030b4:	e037883a 	mov	sp,fp
 20030b8:	dfc00117 	ldw	ra,4(sp)
 20030bc:	df000017 	ldw	fp,0(sp)
 20030c0:	dec00204 	addi	sp,sp,8
 20030c4:	f800283a 	ret

020030c8 <close>:
 20030c8:	defffb04 	addi	sp,sp,-20
 20030cc:	dfc00415 	stw	ra,16(sp)
 20030d0:	df000315 	stw	fp,12(sp)
 20030d4:	df000304 	addi	fp,sp,12
 20030d8:	e13fff15 	stw	r4,-4(fp)
 20030dc:	e0bfff17 	ldw	r2,-4(fp)
 20030e0:	10000616 	blt	r2,zero,20030fc <close+0x34>
 20030e4:	e0bfff17 	ldw	r2,-4(fp)
 20030e8:	10c00324 	muli	r3,r2,12
 20030ec:	00808034 	movhi	r2,512
 20030f0:	109bf504 	addi	r2,r2,28628
 20030f4:	1885883a 	add	r2,r3,r2
 20030f8:	00000106 	br	2003100 <close+0x38>
 20030fc:	0005883a 	mov	r2,zero
 2003100:	e0bffd15 	stw	r2,-12(fp)
 2003104:	e0bffd17 	ldw	r2,-12(fp)
 2003108:	10001926 	beq	r2,zero,2003170 <close+0xa8>
 200310c:	e0bffd17 	ldw	r2,-12(fp)
 2003110:	10800017 	ldw	r2,0(r2)
 2003114:	10800417 	ldw	r2,16(r2)
 2003118:	10000626 	beq	r2,zero,2003134 <close+0x6c>
 200311c:	e0bffd17 	ldw	r2,-12(fp)
 2003120:	10800017 	ldw	r2,0(r2)
 2003124:	10800417 	ldw	r2,16(r2)
 2003128:	e13ffd17 	ldw	r4,-12(fp)
 200312c:	103ee83a 	callr	r2
 2003130:	00000106 	br	2003138 <close+0x70>
 2003134:	0005883a 	mov	r2,zero
 2003138:	e0bffe15 	stw	r2,-8(fp)
 200313c:	e13fff17 	ldw	r4,-4(fp)
 2003140:	20037880 	call	2003788 <alt_release_fd>
 2003144:	e0bffe17 	ldw	r2,-8(fp)
 2003148:	1000070e 	bge	r2,zero,2003168 <close+0xa0>
 200314c:	200308c0 	call	200308c <alt_get_errno>
 2003150:	1007883a 	mov	r3,r2
 2003154:	e0bffe17 	ldw	r2,-8(fp)
 2003158:	0085c83a 	sub	r2,zero,r2
 200315c:	18800015 	stw	r2,0(r3)
 2003160:	00bfffc4 	movi	r2,-1
 2003164:	00000706 	br	2003184 <close+0xbc>
 2003168:	0005883a 	mov	r2,zero
 200316c:	00000506 	br	2003184 <close+0xbc>
 2003170:	200308c0 	call	200308c <alt_get_errno>
 2003174:	1007883a 	mov	r3,r2
 2003178:	00801444 	movi	r2,81
 200317c:	18800015 	stw	r2,0(r3)
 2003180:	00bfffc4 	movi	r2,-1
 2003184:	e037883a 	mov	sp,fp
 2003188:	dfc00117 	ldw	ra,4(sp)
 200318c:	df000017 	ldw	fp,0(sp)
 2003190:	dec00204 	addi	sp,sp,8
 2003194:	f800283a 	ret

02003198 <alt_dev_null_write>:
 2003198:	defffc04 	addi	sp,sp,-16
 200319c:	df000315 	stw	fp,12(sp)
 20031a0:	df000304 	addi	fp,sp,12
 20031a4:	e13ffd15 	stw	r4,-12(fp)
 20031a8:	e17ffe15 	stw	r5,-8(fp)
 20031ac:	e1bfff15 	stw	r6,-4(fp)
 20031b0:	e0bfff17 	ldw	r2,-4(fp)
 20031b4:	e037883a 	mov	sp,fp
 20031b8:	df000017 	ldw	fp,0(sp)
 20031bc:	dec00104 	addi	sp,sp,4
 20031c0:	f800283a 	ret

020031c4 <alt_get_errno>:
 20031c4:	defffe04 	addi	sp,sp,-8
 20031c8:	dfc00115 	stw	ra,4(sp)
 20031cc:	df000015 	stw	fp,0(sp)
 20031d0:	d839883a 	mov	fp,sp
 20031d4:	d0a00917 	ldw	r2,-32732(gp)
 20031d8:	10000326 	beq	r2,zero,20031e8 <alt_get_errno+0x24>
 20031dc:	d0a00917 	ldw	r2,-32732(gp)
 20031e0:	103ee83a 	callr	r2
 20031e4:	00000106 	br	20031ec <alt_get_errno+0x28>
 20031e8:	d0a31904 	addi	r2,gp,-29596
 20031ec:	e037883a 	mov	sp,fp
 20031f0:	dfc00117 	ldw	ra,4(sp)
 20031f4:	df000017 	ldw	fp,0(sp)
 20031f8:	dec00204 	addi	sp,sp,8
 20031fc:	f800283a 	ret

02003200 <fstat>:
 2003200:	defffb04 	addi	sp,sp,-20
 2003204:	dfc00415 	stw	ra,16(sp)
 2003208:	df000315 	stw	fp,12(sp)
 200320c:	df000304 	addi	fp,sp,12
 2003210:	e13ffe15 	stw	r4,-8(fp)
 2003214:	e17fff15 	stw	r5,-4(fp)
 2003218:	e0bffe17 	ldw	r2,-8(fp)
 200321c:	10000616 	blt	r2,zero,2003238 <fstat+0x38>
 2003220:	e0bffe17 	ldw	r2,-8(fp)
 2003224:	10c00324 	muli	r3,r2,12
 2003228:	00808034 	movhi	r2,512
 200322c:	109bf504 	addi	r2,r2,28628
 2003230:	1885883a 	add	r2,r3,r2
 2003234:	00000106 	br	200323c <fstat+0x3c>
 2003238:	0005883a 	mov	r2,zero
 200323c:	e0bffd15 	stw	r2,-12(fp)
 2003240:	e0bffd17 	ldw	r2,-12(fp)
 2003244:	10001026 	beq	r2,zero,2003288 <fstat+0x88>
 2003248:	e0bffd17 	ldw	r2,-12(fp)
 200324c:	10800017 	ldw	r2,0(r2)
 2003250:	10800817 	ldw	r2,32(r2)
 2003254:	10000726 	beq	r2,zero,2003274 <fstat+0x74>
 2003258:	e0bffd17 	ldw	r2,-12(fp)
 200325c:	10800017 	ldw	r2,0(r2)
 2003260:	10800817 	ldw	r2,32(r2)
 2003264:	e17fff17 	ldw	r5,-4(fp)
 2003268:	e13ffd17 	ldw	r4,-12(fp)
 200326c:	103ee83a 	callr	r2
 2003270:	00000a06 	br	200329c <fstat+0x9c>
 2003274:	e0bfff17 	ldw	r2,-4(fp)
 2003278:	00c80004 	movi	r3,8192
 200327c:	10c00115 	stw	r3,4(r2)
 2003280:	0005883a 	mov	r2,zero
 2003284:	00000506 	br	200329c <fstat+0x9c>
 2003288:	20031c40 	call	20031c4 <alt_get_errno>
 200328c:	1007883a 	mov	r3,r2
 2003290:	00801444 	movi	r2,81
 2003294:	18800015 	stw	r2,0(r3)
 2003298:	00bfffc4 	movi	r2,-1
 200329c:	e037883a 	mov	sp,fp
 20032a0:	dfc00117 	ldw	ra,4(sp)
 20032a4:	df000017 	ldw	fp,0(sp)
 20032a8:	dec00204 	addi	sp,sp,8
 20032ac:	f800283a 	ret

020032b0 <alt_get_errno>:
 20032b0:	defffe04 	addi	sp,sp,-8
 20032b4:	dfc00115 	stw	ra,4(sp)
 20032b8:	df000015 	stw	fp,0(sp)
 20032bc:	d839883a 	mov	fp,sp
 20032c0:	d0a00917 	ldw	r2,-32732(gp)
 20032c4:	10000326 	beq	r2,zero,20032d4 <alt_get_errno+0x24>
 20032c8:	d0a00917 	ldw	r2,-32732(gp)
 20032cc:	103ee83a 	callr	r2
 20032d0:	00000106 	br	20032d8 <alt_get_errno+0x28>
 20032d4:	d0a31904 	addi	r2,gp,-29596
 20032d8:	e037883a 	mov	sp,fp
 20032dc:	dfc00117 	ldw	ra,4(sp)
 20032e0:	df000017 	ldw	fp,0(sp)
 20032e4:	dec00204 	addi	sp,sp,8
 20032e8:	f800283a 	ret

020032ec <isatty>:
 20032ec:	deffed04 	addi	sp,sp,-76
 20032f0:	dfc01215 	stw	ra,72(sp)
 20032f4:	df001115 	stw	fp,68(sp)
 20032f8:	df001104 	addi	fp,sp,68
 20032fc:	e13fff15 	stw	r4,-4(fp)
 2003300:	e0bfff17 	ldw	r2,-4(fp)
 2003304:	10000616 	blt	r2,zero,2003320 <isatty+0x34>
 2003308:	e0bfff17 	ldw	r2,-4(fp)
 200330c:	10c00324 	muli	r3,r2,12
 2003310:	00808034 	movhi	r2,512
 2003314:	109bf504 	addi	r2,r2,28628
 2003318:	1885883a 	add	r2,r3,r2
 200331c:	00000106 	br	2003324 <isatty+0x38>
 2003320:	0005883a 	mov	r2,zero
 2003324:	e0bfef15 	stw	r2,-68(fp)
 2003328:	e0bfef17 	ldw	r2,-68(fp)
 200332c:	10000e26 	beq	r2,zero,2003368 <isatty+0x7c>
 2003330:	e0bfef17 	ldw	r2,-68(fp)
 2003334:	10800017 	ldw	r2,0(r2)
 2003338:	10800817 	ldw	r2,32(r2)
 200333c:	1000021e 	bne	r2,zero,2003348 <isatty+0x5c>
 2003340:	00800044 	movi	r2,1
 2003344:	00000d06 	br	200337c <isatty+0x90>
 2003348:	e0bff004 	addi	r2,fp,-64
 200334c:	100b883a 	mov	r5,r2
 2003350:	e13fff17 	ldw	r4,-4(fp)
 2003354:	20032000 	call	2003200 <fstat>
 2003358:	e0bff117 	ldw	r2,-60(fp)
 200335c:	10880020 	cmpeqi	r2,r2,8192
 2003360:	10803fcc 	andi	r2,r2,255
 2003364:	00000506 	br	200337c <isatty+0x90>
 2003368:	20032b00 	call	20032b0 <alt_get_errno>
 200336c:	1007883a 	mov	r3,r2
 2003370:	00801444 	movi	r2,81
 2003374:	18800015 	stw	r2,0(r3)
 2003378:	0005883a 	mov	r2,zero
 200337c:	e037883a 	mov	sp,fp
 2003380:	dfc00117 	ldw	ra,4(sp)
 2003384:	df000017 	ldw	fp,0(sp)
 2003388:	dec00204 	addi	sp,sp,8
 200338c:	f800283a 	ret

02003390 <alt_load_section>:
 2003390:	defffc04 	addi	sp,sp,-16
 2003394:	df000315 	stw	fp,12(sp)
 2003398:	df000304 	addi	fp,sp,12
 200339c:	e13ffd15 	stw	r4,-12(fp)
 20033a0:	e17ffe15 	stw	r5,-8(fp)
 20033a4:	e1bfff15 	stw	r6,-4(fp)
 20033a8:	e0fffe17 	ldw	r3,-8(fp)
 20033ac:	e0bffd17 	ldw	r2,-12(fp)
 20033b0:	18800c26 	beq	r3,r2,20033e4 <alt_load_section+0x54>
 20033b4:	00000806 	br	20033d8 <alt_load_section+0x48>
 20033b8:	e0bffe17 	ldw	r2,-8(fp)
 20033bc:	10c00104 	addi	r3,r2,4
 20033c0:	e0fffe15 	stw	r3,-8(fp)
 20033c4:	e0fffd17 	ldw	r3,-12(fp)
 20033c8:	19000104 	addi	r4,r3,4
 20033cc:	e13ffd15 	stw	r4,-12(fp)
 20033d0:	18c00017 	ldw	r3,0(r3)
 20033d4:	10c00015 	stw	r3,0(r2)
 20033d8:	e0fffe17 	ldw	r3,-8(fp)
 20033dc:	e0bfff17 	ldw	r2,-4(fp)
 20033e0:	18bff51e 	bne	r3,r2,20033b8 <__alt_mem_epcs_flash_controller+0xfe002bb8>
 20033e4:	0001883a 	nop
 20033e8:	e037883a 	mov	sp,fp
 20033ec:	df000017 	ldw	fp,0(sp)
 20033f0:	dec00104 	addi	sp,sp,4
 20033f4:	f800283a 	ret

020033f8 <alt_load>:
 20033f8:	defffe04 	addi	sp,sp,-8
 20033fc:	dfc00115 	stw	ra,4(sp)
 2003400:	df000015 	stw	fp,0(sp)
 2003404:	d839883a 	mov	fp,sp
 2003408:	01808034 	movhi	r6,512
 200340c:	319ce804 	addi	r6,r6,29600
 2003410:	01408034 	movhi	r5,512
 2003414:	2959e004 	addi	r5,r5,26496
 2003418:	01008034 	movhi	r4,512
 200341c:	211ce804 	addi	r4,r4,29600
 2003420:	20033900 	call	2003390 <alt_load_section>
 2003424:	01808034 	movhi	r6,512
 2003428:	31809104 	addi	r6,r6,580
 200342c:	01408034 	movhi	r5,512
 2003430:	29400804 	addi	r5,r5,32
 2003434:	01008034 	movhi	r4,512
 2003438:	21000804 	addi	r4,r4,32
 200343c:	20033900 	call	2003390 <alt_load_section>
 2003440:	01808034 	movhi	r6,512
 2003444:	3199e004 	addi	r6,r6,26496
 2003448:	01408034 	movhi	r5,512
 200344c:	2959bc04 	addi	r5,r5,26352
 2003450:	01008034 	movhi	r4,512
 2003454:	2119bc04 	addi	r4,r4,26352
 2003458:	20033900 	call	2003390 <alt_load_section>
 200345c:	20054c80 	call	20054c8 <alt_dcache_flush_all>
 2003460:	200576c0 	call	200576c <alt_icache_flush_all>
 2003464:	0001883a 	nop
 2003468:	e037883a 	mov	sp,fp
 200346c:	dfc00117 	ldw	ra,4(sp)
 2003470:	df000017 	ldw	fp,0(sp)
 2003474:	dec00204 	addi	sp,sp,8
 2003478:	f800283a 	ret

0200347c <alt_get_errno>:
 200347c:	defffe04 	addi	sp,sp,-8
 2003480:	dfc00115 	stw	ra,4(sp)
 2003484:	df000015 	stw	fp,0(sp)
 2003488:	d839883a 	mov	fp,sp
 200348c:	d0a00917 	ldw	r2,-32732(gp)
 2003490:	10000326 	beq	r2,zero,20034a0 <alt_get_errno+0x24>
 2003494:	d0a00917 	ldw	r2,-32732(gp)
 2003498:	103ee83a 	callr	r2
 200349c:	00000106 	br	20034a4 <alt_get_errno+0x28>
 20034a0:	d0a31904 	addi	r2,gp,-29596
 20034a4:	e037883a 	mov	sp,fp
 20034a8:	dfc00117 	ldw	ra,4(sp)
 20034ac:	df000017 	ldw	fp,0(sp)
 20034b0:	dec00204 	addi	sp,sp,8
 20034b4:	f800283a 	ret

020034b8 <lseek>:
 20034b8:	defff904 	addi	sp,sp,-28
 20034bc:	dfc00615 	stw	ra,24(sp)
 20034c0:	df000515 	stw	fp,20(sp)
 20034c4:	df000504 	addi	fp,sp,20
 20034c8:	e13ffd15 	stw	r4,-12(fp)
 20034cc:	e17ffe15 	stw	r5,-8(fp)
 20034d0:	e1bfff15 	stw	r6,-4(fp)
 20034d4:	e03ffb15 	stw	zero,-20(fp)
 20034d8:	e0bffd17 	ldw	r2,-12(fp)
 20034dc:	10000616 	blt	r2,zero,20034f8 <lseek+0x40>
 20034e0:	e0bffd17 	ldw	r2,-12(fp)
 20034e4:	10c00324 	muli	r3,r2,12
 20034e8:	00808034 	movhi	r2,512
 20034ec:	109bf504 	addi	r2,r2,28628
 20034f0:	1885883a 	add	r2,r3,r2
 20034f4:	00000106 	br	20034fc <lseek+0x44>
 20034f8:	0005883a 	mov	r2,zero
 20034fc:	e0bffc15 	stw	r2,-16(fp)
 2003500:	e0bffc17 	ldw	r2,-16(fp)
 2003504:	10001026 	beq	r2,zero,2003548 <lseek+0x90>
 2003508:	e0bffc17 	ldw	r2,-16(fp)
 200350c:	10800017 	ldw	r2,0(r2)
 2003510:	10800717 	ldw	r2,28(r2)
 2003514:	10000926 	beq	r2,zero,200353c <lseek+0x84>
 2003518:	e0bffc17 	ldw	r2,-16(fp)
 200351c:	10800017 	ldw	r2,0(r2)
 2003520:	10800717 	ldw	r2,28(r2)
 2003524:	e1bfff17 	ldw	r6,-4(fp)
 2003528:	e17ffe17 	ldw	r5,-8(fp)
 200352c:	e13ffc17 	ldw	r4,-16(fp)
 2003530:	103ee83a 	callr	r2
 2003534:	e0bffb15 	stw	r2,-20(fp)
 2003538:	00000506 	br	2003550 <lseek+0x98>
 200353c:	00bfde84 	movi	r2,-134
 2003540:	e0bffb15 	stw	r2,-20(fp)
 2003544:	00000206 	br	2003550 <lseek+0x98>
 2003548:	00bfebc4 	movi	r2,-81
 200354c:	e0bffb15 	stw	r2,-20(fp)
 2003550:	e0bffb17 	ldw	r2,-20(fp)
 2003554:	1000070e 	bge	r2,zero,2003574 <lseek+0xbc>
 2003558:	200347c0 	call	200347c <alt_get_errno>
 200355c:	1007883a 	mov	r3,r2
 2003560:	e0bffb17 	ldw	r2,-20(fp)
 2003564:	0085c83a 	sub	r2,zero,r2
 2003568:	18800015 	stw	r2,0(r3)
 200356c:	00bfffc4 	movi	r2,-1
 2003570:	e0bffb15 	stw	r2,-20(fp)
 2003574:	e0bffb17 	ldw	r2,-20(fp)
 2003578:	e037883a 	mov	sp,fp
 200357c:	dfc00117 	ldw	ra,4(sp)
 2003580:	df000017 	ldw	fp,0(sp)
 2003584:	dec00204 	addi	sp,sp,8
 2003588:	f800283a 	ret

0200358c <alt_main>:
 200358c:	defffd04 	addi	sp,sp,-12
 2003590:	dfc00215 	stw	ra,8(sp)
 2003594:	df000115 	stw	fp,4(sp)
 2003598:	df000104 	addi	fp,sp,4
 200359c:	0009883a 	mov	r4,zero
 20035a0:	2003a040 	call	2003a04 <alt_irq_init>
 20035a4:	0001883a 	nop
 20035a8:	2003a3c0 	call	2003a3c <alt_sys_init>
 20035ac:	01808034 	movhi	r6,512
 20035b0:	3199c804 	addi	r6,r6,26400
 20035b4:	01408034 	movhi	r5,512
 20035b8:	2959c804 	addi	r5,r5,26400
 20035bc:	01008034 	movhi	r4,512
 20035c0:	2119c804 	addi	r4,r4,26400
 20035c4:	2005b040 	call	2005b04 <alt_io_redirect>
 20035c8:	20055f00 	call	20055f0 <_do_ctors>
 20035cc:	01008034 	movhi	r4,512
 20035d0:	21159404 	addi	r4,r4,22096
 20035d4:	200635c0 	call	200635c <atexit>
 20035d8:	d0a31a17 	ldw	r2,-29592(gp)
 20035dc:	d0e31b17 	ldw	r3,-29588(gp)
 20035e0:	d1231c17 	ldw	r4,-29584(gp)
 20035e4:	200d883a 	mov	r6,r4
 20035e8:	180b883a 	mov	r5,r3
 20035ec:	1009883a 	mov	r4,r2
 20035f0:	20002900 	call	2000290 <main>
 20035f4:	e0bfff15 	stw	r2,-4(fp)
 20035f8:	01000044 	movi	r4,1
 20035fc:	20030c80 	call	20030c8 <close>
 2003600:	e13fff17 	ldw	r4,-4(fp)
 2003604:	20063700 	call	2006370 <exit>

02003608 <__malloc_lock>:
 2003608:	defffe04 	addi	sp,sp,-8
 200360c:	df000115 	stw	fp,4(sp)
 2003610:	df000104 	addi	fp,sp,4
 2003614:	e13fff15 	stw	r4,-4(fp)
 2003618:	0001883a 	nop
 200361c:	e037883a 	mov	sp,fp
 2003620:	df000017 	ldw	fp,0(sp)
 2003624:	dec00104 	addi	sp,sp,4
 2003628:	f800283a 	ret

0200362c <__malloc_unlock>:
 200362c:	defffe04 	addi	sp,sp,-8
 2003630:	df000115 	stw	fp,4(sp)
 2003634:	df000104 	addi	fp,sp,4
 2003638:	e13fff15 	stw	r4,-4(fp)
 200363c:	0001883a 	nop
 2003640:	e037883a 	mov	sp,fp
 2003644:	df000017 	ldw	fp,0(sp)
 2003648:	dec00104 	addi	sp,sp,4
 200364c:	f800283a 	ret

02003650 <alt_get_errno>:
 2003650:	defffe04 	addi	sp,sp,-8
 2003654:	dfc00115 	stw	ra,4(sp)
 2003658:	df000015 	stw	fp,0(sp)
 200365c:	d839883a 	mov	fp,sp
 2003660:	d0a00917 	ldw	r2,-32732(gp)
 2003664:	10000326 	beq	r2,zero,2003674 <alt_get_errno+0x24>
 2003668:	d0a00917 	ldw	r2,-32732(gp)
 200366c:	103ee83a 	callr	r2
 2003670:	00000106 	br	2003678 <alt_get_errno+0x28>
 2003674:	d0a31904 	addi	r2,gp,-29596
 2003678:	e037883a 	mov	sp,fp
 200367c:	dfc00117 	ldw	ra,4(sp)
 2003680:	df000017 	ldw	fp,0(sp)
 2003684:	dec00204 	addi	sp,sp,8
 2003688:	f800283a 	ret

0200368c <read>:
 200368c:	defff904 	addi	sp,sp,-28
 2003690:	dfc00615 	stw	ra,24(sp)
 2003694:	df000515 	stw	fp,20(sp)
 2003698:	df000504 	addi	fp,sp,20
 200369c:	e13ffd15 	stw	r4,-12(fp)
 20036a0:	e17ffe15 	stw	r5,-8(fp)
 20036a4:	e1bfff15 	stw	r6,-4(fp)
 20036a8:	e0bffd17 	ldw	r2,-12(fp)
 20036ac:	10000616 	blt	r2,zero,20036c8 <read+0x3c>
 20036b0:	e0bffd17 	ldw	r2,-12(fp)
 20036b4:	10c00324 	muli	r3,r2,12
 20036b8:	00808034 	movhi	r2,512
 20036bc:	109bf504 	addi	r2,r2,28628
 20036c0:	1885883a 	add	r2,r3,r2
 20036c4:	00000106 	br	20036cc <read+0x40>
 20036c8:	0005883a 	mov	r2,zero
 20036cc:	e0bffb15 	stw	r2,-20(fp)
 20036d0:	e0bffb17 	ldw	r2,-20(fp)
 20036d4:	10002226 	beq	r2,zero,2003760 <read+0xd4>
 20036d8:	e0bffb17 	ldw	r2,-20(fp)
 20036dc:	10800217 	ldw	r2,8(r2)
 20036e0:	108000cc 	andi	r2,r2,3
 20036e4:	10800060 	cmpeqi	r2,r2,1
 20036e8:	1000181e 	bne	r2,zero,200374c <read+0xc0>
 20036ec:	e0bffb17 	ldw	r2,-20(fp)
 20036f0:	10800017 	ldw	r2,0(r2)
 20036f4:	10800517 	ldw	r2,20(r2)
 20036f8:	10001426 	beq	r2,zero,200374c <read+0xc0>
 20036fc:	e0bffb17 	ldw	r2,-20(fp)
 2003700:	10800017 	ldw	r2,0(r2)
 2003704:	10800517 	ldw	r2,20(r2)
 2003708:	e0ffff17 	ldw	r3,-4(fp)
 200370c:	180d883a 	mov	r6,r3
 2003710:	e17ffe17 	ldw	r5,-8(fp)
 2003714:	e13ffb17 	ldw	r4,-20(fp)
 2003718:	103ee83a 	callr	r2
 200371c:	e0bffc15 	stw	r2,-16(fp)
 2003720:	e0bffc17 	ldw	r2,-16(fp)
 2003724:	1000070e 	bge	r2,zero,2003744 <read+0xb8>
 2003728:	20036500 	call	2003650 <alt_get_errno>
 200372c:	1007883a 	mov	r3,r2
 2003730:	e0bffc17 	ldw	r2,-16(fp)
 2003734:	0085c83a 	sub	r2,zero,r2
 2003738:	18800015 	stw	r2,0(r3)
 200373c:	00bfffc4 	movi	r2,-1
 2003740:	00000c06 	br	2003774 <read+0xe8>
 2003744:	e0bffc17 	ldw	r2,-16(fp)
 2003748:	00000a06 	br	2003774 <read+0xe8>
 200374c:	20036500 	call	2003650 <alt_get_errno>
 2003750:	1007883a 	mov	r3,r2
 2003754:	00800344 	movi	r2,13
 2003758:	18800015 	stw	r2,0(r3)
 200375c:	00000406 	br	2003770 <read+0xe4>
 2003760:	20036500 	call	2003650 <alt_get_errno>
 2003764:	1007883a 	mov	r3,r2
 2003768:	00801444 	movi	r2,81
 200376c:	18800015 	stw	r2,0(r3)
 2003770:	00bfffc4 	movi	r2,-1
 2003774:	e037883a 	mov	sp,fp
 2003778:	dfc00117 	ldw	ra,4(sp)
 200377c:	df000017 	ldw	fp,0(sp)
 2003780:	dec00204 	addi	sp,sp,8
 2003784:	f800283a 	ret

02003788 <alt_release_fd>:
 2003788:	defffe04 	addi	sp,sp,-8
 200378c:	df000115 	stw	fp,4(sp)
 2003790:	df000104 	addi	fp,sp,4
 2003794:	e13fff15 	stw	r4,-4(fp)
 2003798:	e0bfff17 	ldw	r2,-4(fp)
 200379c:	108000d0 	cmplti	r2,r2,3
 20037a0:	10000d1e 	bne	r2,zero,20037d8 <alt_release_fd+0x50>
 20037a4:	00808034 	movhi	r2,512
 20037a8:	109bf504 	addi	r2,r2,28628
 20037ac:	e0ffff17 	ldw	r3,-4(fp)
 20037b0:	18c00324 	muli	r3,r3,12
 20037b4:	10c5883a 	add	r2,r2,r3
 20037b8:	10800204 	addi	r2,r2,8
 20037bc:	10000015 	stw	zero,0(r2)
 20037c0:	00808034 	movhi	r2,512
 20037c4:	109bf504 	addi	r2,r2,28628
 20037c8:	e0ffff17 	ldw	r3,-4(fp)
 20037cc:	18c00324 	muli	r3,r3,12
 20037d0:	10c5883a 	add	r2,r2,r3
 20037d4:	10000015 	stw	zero,0(r2)
 20037d8:	0001883a 	nop
 20037dc:	e037883a 	mov	sp,fp
 20037e0:	df000017 	ldw	fp,0(sp)
 20037e4:	dec00104 	addi	sp,sp,4
 20037e8:	f800283a 	ret

020037ec <sbrk>:
 20037ec:	defff904 	addi	sp,sp,-28
 20037f0:	df000615 	stw	fp,24(sp)
 20037f4:	df000604 	addi	fp,sp,24
 20037f8:	e13fff15 	stw	r4,-4(fp)
 20037fc:	0005303a 	rdctl	r2,status
 2003800:	e0bffe15 	stw	r2,-8(fp)
 2003804:	e0fffe17 	ldw	r3,-8(fp)
 2003808:	00bfff84 	movi	r2,-2
 200380c:	1884703a 	and	r2,r3,r2
 2003810:	1001703a 	wrctl	status,r2
 2003814:	e0bffe17 	ldw	r2,-8(fp)
 2003818:	e0bffb15 	stw	r2,-20(fp)
 200381c:	d0a00a17 	ldw	r2,-32728(gp)
 2003820:	10c000c4 	addi	r3,r2,3
 2003824:	00bfff04 	movi	r2,-4
 2003828:	1884703a 	and	r2,r3,r2
 200382c:	d0a00a15 	stw	r2,-32728(gp)
 2003830:	d0e00a17 	ldw	r3,-32728(gp)
 2003834:	e0bfff17 	ldw	r2,-4(fp)
 2003838:	1887883a 	add	r3,r3,r2
 200383c:	00810034 	movhi	r2,1024
 2003840:	10800004 	addi	r2,r2,0
 2003844:	10c0062e 	bgeu	r2,r3,2003860 <sbrk+0x74>
 2003848:	e0bffb17 	ldw	r2,-20(fp)
 200384c:	e0bffa15 	stw	r2,-24(fp)
 2003850:	e0bffa17 	ldw	r2,-24(fp)
 2003854:	1001703a 	wrctl	status,r2
 2003858:	00bfffc4 	movi	r2,-1
 200385c:	00000b06 	br	200388c <sbrk+0xa0>
 2003860:	d0a00a17 	ldw	r2,-32728(gp)
 2003864:	e0bffd15 	stw	r2,-12(fp)
 2003868:	d0e00a17 	ldw	r3,-32728(gp)
 200386c:	e0bfff17 	ldw	r2,-4(fp)
 2003870:	1885883a 	add	r2,r3,r2
 2003874:	d0a00a15 	stw	r2,-32728(gp)
 2003878:	e0bffb17 	ldw	r2,-20(fp)
 200387c:	e0bffc15 	stw	r2,-16(fp)
 2003880:	e0bffc17 	ldw	r2,-16(fp)
 2003884:	1001703a 	wrctl	status,r2
 2003888:	e0bffd17 	ldw	r2,-12(fp)
 200388c:	e037883a 	mov	sp,fp
 2003890:	df000017 	ldw	fp,0(sp)
 2003894:	dec00104 	addi	sp,sp,4
 2003898:	f800283a 	ret

0200389c <alt_get_errno>:
 200389c:	defffe04 	addi	sp,sp,-8
 20038a0:	dfc00115 	stw	ra,4(sp)
 20038a4:	df000015 	stw	fp,0(sp)
 20038a8:	d839883a 	mov	fp,sp
 20038ac:	d0a00917 	ldw	r2,-32732(gp)
 20038b0:	10000326 	beq	r2,zero,20038c0 <alt_get_errno+0x24>
 20038b4:	d0a00917 	ldw	r2,-32732(gp)
 20038b8:	103ee83a 	callr	r2
 20038bc:	00000106 	br	20038c4 <alt_get_errno+0x28>
 20038c0:	d0a31904 	addi	r2,gp,-29596
 20038c4:	e037883a 	mov	sp,fp
 20038c8:	dfc00117 	ldw	ra,4(sp)
 20038cc:	df000017 	ldw	fp,0(sp)
 20038d0:	dec00204 	addi	sp,sp,8
 20038d4:	f800283a 	ret

020038d8 <write>:
 20038d8:	defff904 	addi	sp,sp,-28
 20038dc:	dfc00615 	stw	ra,24(sp)
 20038e0:	df000515 	stw	fp,20(sp)
 20038e4:	df000504 	addi	fp,sp,20
 20038e8:	e13ffd15 	stw	r4,-12(fp)
 20038ec:	e17ffe15 	stw	r5,-8(fp)
 20038f0:	e1bfff15 	stw	r6,-4(fp)
 20038f4:	e0bffd17 	ldw	r2,-12(fp)
 20038f8:	10000616 	blt	r2,zero,2003914 <write+0x3c>
 20038fc:	e0bffd17 	ldw	r2,-12(fp)
 2003900:	10c00324 	muli	r3,r2,12
 2003904:	00808034 	movhi	r2,512
 2003908:	109bf504 	addi	r2,r2,28628
 200390c:	1885883a 	add	r2,r3,r2
 2003910:	00000106 	br	2003918 <write+0x40>
 2003914:	0005883a 	mov	r2,zero
 2003918:	e0bffb15 	stw	r2,-20(fp)
 200391c:	e0bffb17 	ldw	r2,-20(fp)
 2003920:	10002126 	beq	r2,zero,20039a8 <write+0xd0>
 2003924:	e0bffb17 	ldw	r2,-20(fp)
 2003928:	10800217 	ldw	r2,8(r2)
 200392c:	108000cc 	andi	r2,r2,3
 2003930:	10001826 	beq	r2,zero,2003994 <write+0xbc>
 2003934:	e0bffb17 	ldw	r2,-20(fp)
 2003938:	10800017 	ldw	r2,0(r2)
 200393c:	10800617 	ldw	r2,24(r2)
 2003940:	10001426 	beq	r2,zero,2003994 <write+0xbc>
 2003944:	e0bffb17 	ldw	r2,-20(fp)
 2003948:	10800017 	ldw	r2,0(r2)
 200394c:	10800617 	ldw	r2,24(r2)
 2003950:	e0ffff17 	ldw	r3,-4(fp)
 2003954:	180d883a 	mov	r6,r3
 2003958:	e17ffe17 	ldw	r5,-8(fp)
 200395c:	e13ffb17 	ldw	r4,-20(fp)
 2003960:	103ee83a 	callr	r2
 2003964:	e0bffc15 	stw	r2,-16(fp)
 2003968:	e0bffc17 	ldw	r2,-16(fp)
 200396c:	1000070e 	bge	r2,zero,200398c <write+0xb4>
 2003970:	200389c0 	call	200389c <alt_get_errno>
 2003974:	1007883a 	mov	r3,r2
 2003978:	e0bffc17 	ldw	r2,-16(fp)
 200397c:	0085c83a 	sub	r2,zero,r2
 2003980:	18800015 	stw	r2,0(r3)
 2003984:	00bfffc4 	movi	r2,-1
 2003988:	00000c06 	br	20039bc <write+0xe4>
 200398c:	e0bffc17 	ldw	r2,-16(fp)
 2003990:	00000a06 	br	20039bc <write+0xe4>
 2003994:	200389c0 	call	200389c <alt_get_errno>
 2003998:	1007883a 	mov	r3,r2
 200399c:	00800344 	movi	r2,13
 20039a0:	18800015 	stw	r2,0(r3)
 20039a4:	00000406 	br	20039b8 <write+0xe0>
 20039a8:	200389c0 	call	200389c <alt_get_errno>
 20039ac:	1007883a 	mov	r3,r2
 20039b0:	00801444 	movi	r2,81
 20039b4:	18800015 	stw	r2,0(r3)
 20039b8:	00bfffc4 	movi	r2,-1
 20039bc:	e037883a 	mov	sp,fp
 20039c0:	dfc00117 	ldw	ra,4(sp)
 20039c4:	df000017 	ldw	fp,0(sp)
 20039c8:	dec00204 	addi	sp,sp,8
 20039cc:	f800283a 	ret

020039d0 <alt_dev_reg>:
 20039d0:	defffd04 	addi	sp,sp,-12
 20039d4:	dfc00215 	stw	ra,8(sp)
 20039d8:	df000115 	stw	fp,4(sp)
 20039dc:	df000104 	addi	fp,sp,4
 20039e0:	e13fff15 	stw	r4,-4(fp)
 20039e4:	d1600604 	addi	r5,gp,-32744
 20039e8:	e13fff17 	ldw	r4,-4(fp)
 20039ec:	200554c0 	call	200554c <alt_dev_llist_insert>
 20039f0:	e037883a 	mov	sp,fp
 20039f4:	dfc00117 	ldw	ra,4(sp)
 20039f8:	df000017 	ldw	fp,0(sp)
 20039fc:	dec00204 	addi	sp,sp,8
 2003a00:	f800283a 	ret

02003a04 <alt_irq_init>:
 2003a04:	defffd04 	addi	sp,sp,-12
 2003a08:	dfc00215 	stw	ra,8(sp)
 2003a0c:	df000115 	stw	fp,4(sp)
 2003a10:	df000104 	addi	fp,sp,4
 2003a14:	e13fff15 	stw	r4,-4(fp)
 2003a18:	2005dd40 	call	2005dd4 <altera_nios2_gen2_irq_init>
 2003a1c:	00800044 	movi	r2,1
 2003a20:	1001703a 	wrctl	status,r2
 2003a24:	0001883a 	nop
 2003a28:	e037883a 	mov	sp,fp
 2003a2c:	dfc00117 	ldw	ra,4(sp)
 2003a30:	df000017 	ldw	fp,0(sp)
 2003a34:	dec00204 	addi	sp,sp,8
 2003a38:	f800283a 	ret

02003a3c <alt_sys_init>:
 2003a3c:	defffe04 	addi	sp,sp,-8
 2003a40:	dfc00115 	stw	ra,4(sp)
 2003a44:	df000015 	stw	fp,0(sp)
 2003a48:	d839883a 	mov	fp,sp
 2003a4c:	01008034 	movhi	r4,512
 2003a50:	211c5504 	addi	r4,r4,29012
 2003a54:	2003aec0 	call	2003aec <alt_epcs_flash_init>
 2003a58:	0001883a 	nop
 2003a5c:	01800104 	movi	r6,4
 2003a60:	000b883a 	mov	r5,zero
 2003a64:	01008034 	movhi	r4,512
 2003a68:	211c9204 	addi	r4,r4,29256
 2003a6c:	20046c40 	call	20046c4 <altera_avalon_uart_init>
 2003a70:	01008034 	movhi	r4,512
 2003a74:	211c8804 	addi	r4,r4,29216
 2003a78:	20039d00 	call	20039d0 <alt_dev_reg>
 2003a7c:	01008034 	movhi	r4,512
 2003a80:	211cb904 	addi	r4,r4,29412
 2003a84:	20039d00 	call	20039d0 <alt_dev_reg>
 2003a88:	01008034 	movhi	r4,512
 2003a8c:	211cc404 	addi	r4,r4,29456
 2003a90:	20039d00 	call	20039d0 <alt_dev_reg>
 2003a94:	01008034 	movhi	r4,512
 2003a98:	211ccf04 	addi	r4,r4,29500
 2003a9c:	20039d00 	call	20039d0 <alt_dev_reg>
 2003aa0:	0001883a 	nop
 2003aa4:	e037883a 	mov	sp,fp
 2003aa8:	dfc00117 	ldw	ra,4(sp)
 2003aac:	df000017 	ldw	fp,0(sp)
 2003ab0:	dec00204 	addi	sp,sp,8
 2003ab4:	f800283a 	ret

02003ab8 <alt_flash_device_register>:
 2003ab8:	defffd04 	addi	sp,sp,-12
 2003abc:	dfc00215 	stw	ra,8(sp)
 2003ac0:	df000115 	stw	fp,4(sp)
 2003ac4:	df000104 	addi	fp,sp,4
 2003ac8:	e13fff15 	stw	r4,-4(fp)
 2003acc:	d1600b04 	addi	r5,gp,-32724
 2003ad0:	e13fff17 	ldw	r4,-4(fp)
 2003ad4:	200554c0 	call	200554c <alt_dev_llist_insert>
 2003ad8:	e037883a 	mov	sp,fp
 2003adc:	dfc00117 	ldw	ra,4(sp)
 2003ae0:	df000017 	ldw	fp,0(sp)
 2003ae4:	dec00204 	addi	sp,sp,8
 2003ae8:	f800283a 	ret

02003aec <alt_epcs_flash_init>:
 2003aec:	defffc04 	addi	sp,sp,-16
 2003af0:	dfc00315 	stw	ra,12(sp)
 2003af4:	df000215 	stw	fp,8(sp)
 2003af8:	df000204 	addi	fp,sp,8
 2003afc:	e13fff15 	stw	r4,-4(fp)
 2003b00:	e03ffe15 	stw	zero,-8(fp)
 2003b04:	e13fff17 	ldw	r4,-4(fp)
 2003b08:	2003b400 	call	2003b40 <alt_epcs_flash_query>
 2003b0c:	e0bffe15 	stw	r2,-8(fp)
 2003b10:	e0bffe17 	ldw	r2,-8(fp)
 2003b14:	1000041e 	bne	r2,zero,2003b28 <alt_epcs_flash_init+0x3c>
 2003b18:	e0bfff17 	ldw	r2,-4(fp)
 2003b1c:	1009883a 	mov	r4,r2
 2003b20:	2003ab80 	call	2003ab8 <alt_flash_device_register>
 2003b24:	e0bffe15 	stw	r2,-8(fp)
 2003b28:	e0bffe17 	ldw	r2,-8(fp)
 2003b2c:	e037883a 	mov	sp,fp
 2003b30:	dfc00117 	ldw	ra,4(sp)
 2003b34:	df000017 	ldw	fp,0(sp)
 2003b38:	dec00204 	addi	sp,sp,8
 2003b3c:	f800283a 	ret

02003b40 <alt_epcs_flash_query>:
 2003b40:	defffc04 	addi	sp,sp,-16
 2003b44:	dfc00315 	stw	ra,12(sp)
 2003b48:	df000215 	stw	fp,8(sp)
 2003b4c:	df000204 	addi	fp,sp,8
 2003b50:	e13fff15 	stw	r4,-4(fp)
 2003b54:	e03ffe15 	stw	zero,-8(fp)
 2003b58:	e0bfff17 	ldw	r2,-4(fp)
 2003b5c:	10003215 	stw	zero,200(r2)
 2003b60:	e0bfff17 	ldw	r2,-4(fp)
 2003b64:	10802e17 	ldw	r2,184(r2)
 2003b68:	1009883a 	mov	r4,r2
 2003b6c:	20053280 	call	2005328 <epcs_read_electronic_signature>
 2003b70:	10c03fcc 	andi	r3,r2,255
 2003b74:	e0bfff17 	ldw	r2,-4(fp)
 2003b78:	10c03015 	stw	r3,192(r2)
 2003b7c:	e0bfff17 	ldw	r2,-4(fp)
 2003b80:	10803017 	ldw	r2,192(r2)
 2003b84:	10800598 	cmpnei	r2,r2,22
 2003b88:	10000a1e 	bne	r2,zero,2003bb4 <alt_epcs_flash_query+0x74>
 2003b8c:	e0bfff17 	ldw	r2,-4(fp)
 2003b90:	00c02034 	movhi	r3,128
 2003b94:	10c00e15 	stw	r3,56(r2)
 2003b98:	e0bfff17 	ldw	r2,-4(fp)
 2003b9c:	00c02004 	movi	r3,128
 2003ba0:	10c00f15 	stw	r3,60(r2)
 2003ba4:	e0bfff17 	ldw	r2,-4(fp)
 2003ba8:	00c00074 	movhi	r3,1
 2003bac:	10c01015 	stw	r3,64(r2)
 2003bb0:	0000ce06 	br	2003eec <alt_epcs_flash_query+0x3ac>
 2003bb4:	e0bfff17 	ldw	r2,-4(fp)
 2003bb8:	10803017 	ldw	r2,192(r2)
 2003bbc:	10800518 	cmpnei	r2,r2,20
 2003bc0:	10000a1e 	bne	r2,zero,2003bec <alt_epcs_flash_query+0xac>
 2003bc4:	e0bfff17 	ldw	r2,-4(fp)
 2003bc8:	00c00834 	movhi	r3,32
 2003bcc:	10c00e15 	stw	r3,56(r2)
 2003bd0:	e0bfff17 	ldw	r2,-4(fp)
 2003bd4:	00c00804 	movi	r3,32
 2003bd8:	10c00f15 	stw	r3,60(r2)
 2003bdc:	e0bfff17 	ldw	r2,-4(fp)
 2003be0:	00c00074 	movhi	r3,1
 2003be4:	10c01015 	stw	r3,64(r2)
 2003be8:	0000c006 	br	2003eec <alt_epcs_flash_query+0x3ac>
 2003bec:	e0bfff17 	ldw	r2,-4(fp)
 2003bf0:	10803017 	ldw	r2,192(r2)
 2003bf4:	108004d8 	cmpnei	r2,r2,19
 2003bf8:	10000a1e 	bne	r2,zero,2003c24 <alt_epcs_flash_query+0xe4>
 2003bfc:	e0bfff17 	ldw	r2,-4(fp)
 2003c00:	00c00434 	movhi	r3,16
 2003c04:	10c00e15 	stw	r3,56(r2)
 2003c08:	e0bfff17 	ldw	r2,-4(fp)
 2003c0c:	00c00404 	movi	r3,16
 2003c10:	10c00f15 	stw	r3,60(r2)
 2003c14:	e0bfff17 	ldw	r2,-4(fp)
 2003c18:	00c00074 	movhi	r3,1
 2003c1c:	10c01015 	stw	r3,64(r2)
 2003c20:	0000b206 	br	2003eec <alt_epcs_flash_query+0x3ac>
 2003c24:	e0bfff17 	ldw	r2,-4(fp)
 2003c28:	10803017 	ldw	r2,192(r2)
 2003c2c:	10800498 	cmpnei	r2,r2,18
 2003c30:	10000a1e 	bne	r2,zero,2003c5c <alt_epcs_flash_query+0x11c>
 2003c34:	e0bfff17 	ldw	r2,-4(fp)
 2003c38:	00c00234 	movhi	r3,8
 2003c3c:	10c00e15 	stw	r3,56(r2)
 2003c40:	e0bfff17 	ldw	r2,-4(fp)
 2003c44:	00c00204 	movi	r3,8
 2003c48:	10c00f15 	stw	r3,60(r2)
 2003c4c:	e0bfff17 	ldw	r2,-4(fp)
 2003c50:	00c00074 	movhi	r3,1
 2003c54:	10c01015 	stw	r3,64(r2)
 2003c58:	0000a406 	br	2003eec <alt_epcs_flash_query+0x3ac>
 2003c5c:	e0bfff17 	ldw	r2,-4(fp)
 2003c60:	10803017 	ldw	r2,192(r2)
 2003c64:	10800418 	cmpnei	r2,r2,16
 2003c68:	10000a1e 	bne	r2,zero,2003c94 <alt_epcs_flash_query+0x154>
 2003c6c:	e0bfff17 	ldw	r2,-4(fp)
 2003c70:	00c000b4 	movhi	r3,2
 2003c74:	10c00e15 	stw	r3,56(r2)
 2003c78:	e0bfff17 	ldw	r2,-4(fp)
 2003c7c:	00c00104 	movi	r3,4
 2003c80:	10c00f15 	stw	r3,60(r2)
 2003c84:	e0bfff17 	ldw	r2,-4(fp)
 2003c88:	00e00014 	movui	r3,32768
 2003c8c:	10c01015 	stw	r3,64(r2)
 2003c90:	00009606 	br	2003eec <alt_epcs_flash_query+0x3ac>
 2003c94:	e0bfff17 	ldw	r2,-4(fp)
 2003c98:	10802e17 	ldw	r2,184(r2)
 2003c9c:	1009883a 	mov	r4,r2
 2003ca0:	20053900 	call	2005390 <epcs_read_device_id>
 2003ca4:	1007883a 	mov	r3,r2
 2003ca8:	e0bfff17 	ldw	r2,-4(fp)
 2003cac:	10c03015 	stw	r3,192(r2)
 2003cb0:	e0bfff17 	ldw	r2,-4(fp)
 2003cb4:	10c03017 	ldw	r3,192(r2)
 2003cb8:	00804034 	movhi	r2,256
 2003cbc:	10bfffc4 	addi	r2,r2,-1
 2003cc0:	1886703a 	and	r3,r3,r2
 2003cc4:	00800874 	movhi	r2,33
 2003cc8:	10ae8544 	addi	r2,r2,-17899
 2003ccc:	18800a1e 	bne	r3,r2,2003cf8 <alt_epcs_flash_query+0x1b8>
 2003cd0:	e0bfff17 	ldw	r2,-4(fp)
 2003cd4:	00c00834 	movhi	r3,32
 2003cd8:	10c00e15 	stw	r3,56(r2)
 2003cdc:	e0bfff17 	ldw	r2,-4(fp)
 2003ce0:	00c00804 	movi	r3,32
 2003ce4:	10c00f15 	stw	r3,60(r2)
 2003ce8:	e0bfff17 	ldw	r2,-4(fp)
 2003cec:	00c00074 	movhi	r3,1
 2003cf0:	10c01015 	stw	r3,64(r2)
 2003cf4:	00007d06 	br	2003eec <alt_epcs_flash_query+0x3ac>
 2003cf8:	e0bfff17 	ldw	r2,-4(fp)
 2003cfc:	10c03017 	ldw	r3,192(r2)
 2003d00:	00804034 	movhi	r2,256
 2003d04:	10bfffc4 	addi	r2,r2,-1
 2003d08:	1886703a 	and	r3,r3,r2
 2003d0c:	00800874 	movhi	r2,33
 2003d10:	10ae8584 	addi	r2,r2,-17898
 2003d14:	18800a1e 	bne	r3,r2,2003d40 <alt_epcs_flash_query+0x200>
 2003d18:	e0bfff17 	ldw	r2,-4(fp)
 2003d1c:	00c01034 	movhi	r3,64
 2003d20:	10c00e15 	stw	r3,56(r2)
 2003d24:	e0bfff17 	ldw	r2,-4(fp)
 2003d28:	00c01004 	movi	r3,64
 2003d2c:	10c00f15 	stw	r3,60(r2)
 2003d30:	e0bfff17 	ldw	r2,-4(fp)
 2003d34:	00c00074 	movhi	r3,1
 2003d38:	10c01015 	stw	r3,64(r2)
 2003d3c:	00006b06 	br	2003eec <alt_epcs_flash_query+0x3ac>
 2003d40:	e0bfff17 	ldw	r2,-4(fp)
 2003d44:	10c03017 	ldw	r3,192(r2)
 2003d48:	00804034 	movhi	r2,256
 2003d4c:	10bfffc4 	addi	r2,r2,-1
 2003d50:	1886703a 	and	r3,r3,r2
 2003d54:	00800874 	movhi	r2,33
 2003d58:	10ae85c4 	addi	r2,r2,-17897
 2003d5c:	18800a1e 	bne	r3,r2,2003d88 <alt_epcs_flash_query+0x248>
 2003d60:	e0bfff17 	ldw	r2,-4(fp)
 2003d64:	00c02034 	movhi	r3,128
 2003d68:	10c00e15 	stw	r3,56(r2)
 2003d6c:	e0bfff17 	ldw	r2,-4(fp)
 2003d70:	00c02004 	movi	r3,128
 2003d74:	10c00f15 	stw	r3,60(r2)
 2003d78:	e0bfff17 	ldw	r2,-4(fp)
 2003d7c:	00c00074 	movhi	r3,1
 2003d80:	10c01015 	stw	r3,64(r2)
 2003d84:	00005906 	br	2003eec <alt_epcs_flash_query+0x3ac>
 2003d88:	e0bfff17 	ldw	r2,-4(fp)
 2003d8c:	10c03017 	ldw	r3,192(r2)
 2003d90:	00804034 	movhi	r2,256
 2003d94:	10bfffc4 	addi	r2,r2,-1
 2003d98:	1886703a 	and	r3,r3,r2
 2003d9c:	00800874 	movhi	r2,33
 2003da0:	10ae8604 	addi	r2,r2,-17896
 2003da4:	18800a1e 	bne	r3,r2,2003dd0 <alt_epcs_flash_query+0x290>
 2003da8:	e0bfff17 	ldw	r2,-4(fp)
 2003dac:	00c04034 	movhi	r3,256
 2003db0:	10c00e15 	stw	r3,56(r2)
 2003db4:	e0bfff17 	ldw	r2,-4(fp)
 2003db8:	00c04004 	movi	r3,256
 2003dbc:	10c00f15 	stw	r3,60(r2)
 2003dc0:	e0bfff17 	ldw	r2,-4(fp)
 2003dc4:	00c00074 	movhi	r3,1
 2003dc8:	10c01015 	stw	r3,64(r2)
 2003dcc:	00004706 	br	2003eec <alt_epcs_flash_query+0x3ac>
 2003dd0:	e0bfff17 	ldw	r2,-4(fp)
 2003dd4:	10803017 	ldw	r2,192(r2)
 2003dd8:	10803fcc 	andi	r2,r2,255
 2003ddc:	10800618 	cmpnei	r2,r2,24
 2003de0:	10000a1e 	bne	r2,zero,2003e0c <alt_epcs_flash_query+0x2cc>
 2003de4:	e0bfff17 	ldw	r2,-4(fp)
 2003de8:	00c04034 	movhi	r3,256
 2003dec:	10c00e15 	stw	r3,56(r2)
 2003df0:	e0bfff17 	ldw	r2,-4(fp)
 2003df4:	00c01004 	movi	r3,64
 2003df8:	10c00f15 	stw	r3,60(r2)
 2003dfc:	e0bfff17 	ldw	r2,-4(fp)
 2003e00:	00c00134 	movhi	r3,4
 2003e04:	10c01015 	stw	r3,64(r2)
 2003e08:	00003806 	br	2003eec <alt_epcs_flash_query+0x3ac>
 2003e0c:	e0bfff17 	ldw	r2,-4(fp)
 2003e10:	10803017 	ldw	r2,192(r2)
 2003e14:	10803fcc 	andi	r2,r2,255
 2003e18:	10800658 	cmpnei	r2,r2,25
 2003e1c:	10000d1e 	bne	r2,zero,2003e54 <alt_epcs_flash_query+0x314>
 2003e20:	e0bfff17 	ldw	r2,-4(fp)
 2003e24:	00c08034 	movhi	r3,512
 2003e28:	10c00e15 	stw	r3,56(r2)
 2003e2c:	e0bfff17 	ldw	r2,-4(fp)
 2003e30:	00c08004 	movi	r3,512
 2003e34:	10c00f15 	stw	r3,60(r2)
 2003e38:	e0bfff17 	ldw	r2,-4(fp)
 2003e3c:	00c00074 	movhi	r3,1
 2003e40:	10c01015 	stw	r3,64(r2)
 2003e44:	e0bfff17 	ldw	r2,-4(fp)
 2003e48:	00c00044 	movi	r3,1
 2003e4c:	10c03215 	stw	r3,200(r2)
 2003e50:	00002606 	br	2003eec <alt_epcs_flash_query+0x3ac>
 2003e54:	e0bfff17 	ldw	r2,-4(fp)
 2003e58:	10803017 	ldw	r2,192(r2)
 2003e5c:	10803fcc 	andi	r2,r2,255
 2003e60:	10800818 	cmpnei	r2,r2,32
 2003e64:	10000d1e 	bne	r2,zero,2003e9c <alt_epcs_flash_query+0x35c>
 2003e68:	e0bfff17 	ldw	r2,-4(fp)
 2003e6c:	00c10034 	movhi	r3,1024
 2003e70:	10c00e15 	stw	r3,56(r2)
 2003e74:	e0bfff17 	ldw	r2,-4(fp)
 2003e78:	00c10004 	movi	r3,1024
 2003e7c:	10c00f15 	stw	r3,60(r2)
 2003e80:	e0bfff17 	ldw	r2,-4(fp)
 2003e84:	00c00074 	movhi	r3,1
 2003e88:	10c01015 	stw	r3,64(r2)
 2003e8c:	e0bfff17 	ldw	r2,-4(fp)
 2003e90:	00c00044 	movi	r3,1
 2003e94:	10c03215 	stw	r3,200(r2)
 2003e98:	00001406 	br	2003eec <alt_epcs_flash_query+0x3ac>
 2003e9c:	e0bfff17 	ldw	r2,-4(fp)
 2003ea0:	10803017 	ldw	r2,192(r2)
 2003ea4:	10803fcc 	andi	r2,r2,255
 2003ea8:	10800858 	cmpnei	r2,r2,33
 2003eac:	10000d1e 	bne	r2,zero,2003ee4 <alt_epcs_flash_query+0x3a4>
 2003eb0:	e0bfff17 	ldw	r2,-4(fp)
 2003eb4:	00c20034 	movhi	r3,2048
 2003eb8:	10c00e15 	stw	r3,56(r2)
 2003ebc:	e0bfff17 	ldw	r2,-4(fp)
 2003ec0:	00c20004 	movi	r3,2048
 2003ec4:	10c00f15 	stw	r3,60(r2)
 2003ec8:	e0bfff17 	ldw	r2,-4(fp)
 2003ecc:	00c00074 	movhi	r3,1
 2003ed0:	10c01015 	stw	r3,64(r2)
 2003ed4:	e0bfff17 	ldw	r2,-4(fp)
 2003ed8:	00c00044 	movi	r3,1
 2003edc:	10c03215 	stw	r3,200(r2)
 2003ee0:	00000206 	br	2003eec <alt_epcs_flash_query+0x3ac>
 2003ee4:	00bffb44 	movi	r2,-19
 2003ee8:	e0bffe15 	stw	r2,-8(fp)
 2003eec:	e0bfff17 	ldw	r2,-4(fp)
 2003ef0:	10800e17 	ldw	r2,56(r2)
 2003ef4:	1007883a 	mov	r3,r2
 2003ef8:	e0bfff17 	ldw	r2,-4(fp)
 2003efc:	10c02f15 	stw	r3,188(r2)
 2003f00:	e0bfff17 	ldw	r2,-4(fp)
 2003f04:	00c00044 	movi	r3,1
 2003f08:	10c00c15 	stw	r3,48(r2)
 2003f0c:	e0bfff17 	ldw	r2,-4(fp)
 2003f10:	10000d15 	stw	zero,52(r2)
 2003f14:	e0bfff17 	ldw	r2,-4(fp)
 2003f18:	00c04004 	movi	r3,256
 2003f1c:	10c03115 	stw	r3,196(r2)
 2003f20:	e0bffe17 	ldw	r2,-8(fp)
 2003f24:	e037883a 	mov	sp,fp
 2003f28:	dfc00117 	ldw	ra,4(sp)
 2003f2c:	df000017 	ldw	fp,0(sp)
 2003f30:	dec00204 	addi	sp,sp,8
 2003f34:	f800283a 	ret

02003f38 <alt_epcs_flash_memcmp>:
 2003f38:	deffee04 	addi	sp,sp,-72
 2003f3c:	dfc01115 	stw	ra,68(sp)
 2003f40:	df001015 	stw	fp,64(sp)
 2003f44:	df001004 	addi	fp,sp,64
 2003f48:	e13ffc15 	stw	r4,-16(fp)
 2003f4c:	e17ffd15 	stw	r5,-12(fp)
 2003f50:	e1bffe15 	stw	r6,-8(fp)
 2003f54:	e1ffff15 	stw	r7,-4(fp)
 2003f58:	00800804 	movi	r2,32
 2003f5c:	e0bff115 	stw	r2,-60(fp)
 2003f60:	e03ff015 	stw	zero,-64(fp)
 2003f64:	00002706 	br	2004004 <alt_epcs_flash_memcmp+0xcc>
 2003f68:	e0fff117 	ldw	r3,-60(fp)
 2003f6c:	e0bfff17 	ldw	r2,-4(fp)
 2003f70:	1880012e 	bgeu	r3,r2,2003f78 <alt_epcs_flash_memcmp+0x40>
 2003f74:	1805883a 	mov	r2,r3
 2003f78:	e0bff215 	stw	r2,-56(fp)
 2003f7c:	e0fffe17 	ldw	r3,-8(fp)
 2003f80:	e0bff017 	ldw	r2,-64(fp)
 2003f84:	1885883a 	add	r2,r3,r2
 2003f88:	e0fff404 	addi	r3,fp,-48
 2003f8c:	e1fff217 	ldw	r7,-56(fp)
 2003f90:	180d883a 	mov	r6,r3
 2003f94:	100b883a 	mov	r5,r2
 2003f98:	e13ffc17 	ldw	r4,-16(fp)
 2003f9c:	200451c0 	call	200451c <alt_epcs_flash_read>
 2003fa0:	1000020e 	bge	r2,zero,2003fac <alt_epcs_flash_memcmp+0x74>
 2003fa4:	00bfffc4 	movi	r2,-1
 2003fa8:	00001906 	br	2004010 <alt_epcs_flash_memcmp+0xd8>
 2003fac:	e0bff017 	ldw	r2,-64(fp)
 2003fb0:	e0fffd17 	ldw	r3,-12(fp)
 2003fb4:	1885883a 	add	r2,r3,r2
 2003fb8:	e13ff217 	ldw	r4,-56(fp)
 2003fbc:	e0fff404 	addi	r3,fp,-48
 2003fc0:	200d883a 	mov	r6,r4
 2003fc4:	180b883a 	mov	r5,r3
 2003fc8:	1009883a 	mov	r4,r2
 2003fcc:	20063a80 	call	20063a8 <memcmp>
 2003fd0:	e0bff315 	stw	r2,-52(fp)
 2003fd4:	e0bff317 	ldw	r2,-52(fp)
 2003fd8:	10000226 	beq	r2,zero,2003fe4 <alt_epcs_flash_memcmp+0xac>
 2003fdc:	e0bff317 	ldw	r2,-52(fp)
 2003fe0:	00000b06 	br	2004010 <alt_epcs_flash_memcmp+0xd8>
 2003fe4:	e0bff217 	ldw	r2,-56(fp)
 2003fe8:	e0ffff17 	ldw	r3,-4(fp)
 2003fec:	1885c83a 	sub	r2,r3,r2
 2003ff0:	e0bfff15 	stw	r2,-4(fp)
 2003ff4:	e0fff017 	ldw	r3,-64(fp)
 2003ff8:	e0bff217 	ldw	r2,-56(fp)
 2003ffc:	1885883a 	add	r2,r3,r2
 2004000:	e0bff015 	stw	r2,-64(fp)
 2004004:	e0bfff17 	ldw	r2,-4(fp)
 2004008:	103fd71e 	bne	r2,zero,2003f68 <__alt_mem_epcs_flash_controller+0xfe003768>
 200400c:	0005883a 	mov	r2,zero
 2004010:	e037883a 	mov	sp,fp
 2004014:	dfc00117 	ldw	ra,4(sp)
 2004018:	df000017 	ldw	fp,0(sp)
 200401c:	dec00204 	addi	sp,sp,8
 2004020:	f800283a 	ret

02004024 <alt_epcs_flash_write>:
 2004024:	defff404 	addi	sp,sp,-48
 2004028:	dfc00b15 	stw	ra,44(sp)
 200402c:	df000a15 	stw	fp,40(sp)
 2004030:	df000a04 	addi	fp,sp,40
 2004034:	e13ffc15 	stw	r4,-16(fp)
 2004038:	e17ffd15 	stw	r5,-12(fp)
 200403c:	e1bffe15 	stw	r6,-8(fp)
 2004040:	e1ffff15 	stw	r7,-4(fp)
 2004044:	e03ff715 	stw	zero,-36(fp)
 2004048:	e03ff815 	stw	zero,-32(fp)
 200404c:	00008306 	br	200425c <alt_epcs_flash_write+0x238>
 2004050:	e0fffc17 	ldw	r3,-16(fp)
 2004054:	e0bff817 	ldw	r2,-32(fp)
 2004058:	1004913a 	slli	r2,r2,4
 200405c:	1885883a 	add	r2,r3,r2
 2004060:	10800d04 	addi	r2,r2,52
 2004064:	10800017 	ldw	r2,0(r2)
 2004068:	e0fffd17 	ldw	r3,-12(fp)
 200406c:	18807816 	blt	r3,r2,2004250 <alt_epcs_flash_write+0x22c>
 2004070:	e0fffc17 	ldw	r3,-16(fp)
 2004074:	e0bff817 	ldw	r2,-32(fp)
 2004078:	1004913a 	slli	r2,r2,4
 200407c:	1885883a 	add	r2,r3,r2
 2004080:	10800d04 	addi	r2,r2,52
 2004084:	10c00017 	ldw	r3,0(r2)
 2004088:	e13ffc17 	ldw	r4,-16(fp)
 200408c:	e0bff817 	ldw	r2,-32(fp)
 2004090:	1004913a 	slli	r2,r2,4
 2004094:	2085883a 	add	r2,r4,r2
 2004098:	10800e04 	addi	r2,r2,56
 200409c:	10800017 	ldw	r2,0(r2)
 20040a0:	1885883a 	add	r2,r3,r2
 20040a4:	e0fffd17 	ldw	r3,-12(fp)
 20040a8:	1880690e 	bge	r3,r2,2004250 <alt_epcs_flash_write+0x22c>
 20040ac:	e0fffc17 	ldw	r3,-16(fp)
 20040b0:	e0bff817 	ldw	r2,-32(fp)
 20040b4:	1004913a 	slli	r2,r2,4
 20040b8:	1885883a 	add	r2,r3,r2
 20040bc:	10800d04 	addi	r2,r2,52
 20040c0:	10800017 	ldw	r2,0(r2)
 20040c4:	e0bffa15 	stw	r2,-24(fp)
 20040c8:	e03ff915 	stw	zero,-28(fp)
 20040cc:	00005806 	br	2004230 <alt_epcs_flash_write+0x20c>
 20040d0:	e0fffd17 	ldw	r3,-12(fp)
 20040d4:	e0bffa17 	ldw	r2,-24(fp)
 20040d8:	18804916 	blt	r3,r2,2004200 <alt_epcs_flash_write+0x1dc>
 20040dc:	e0fffc17 	ldw	r3,-16(fp)
 20040e0:	e0bff817 	ldw	r2,-32(fp)
 20040e4:	10800104 	addi	r2,r2,4
 20040e8:	1004913a 	slli	r2,r2,4
 20040ec:	1885883a 	add	r2,r3,r2
 20040f0:	10c00017 	ldw	r3,0(r2)
 20040f4:	e0bffa17 	ldw	r2,-24(fp)
 20040f8:	1885883a 	add	r2,r3,r2
 20040fc:	e0fffd17 	ldw	r3,-12(fp)
 2004100:	18803f0e 	bge	r3,r2,2004200 <alt_epcs_flash_write+0x1dc>
 2004104:	e0fffc17 	ldw	r3,-16(fp)
 2004108:	e0bff817 	ldw	r2,-32(fp)
 200410c:	10800104 	addi	r2,r2,4
 2004110:	1004913a 	slli	r2,r2,4
 2004114:	1885883a 	add	r2,r3,r2
 2004118:	10c00017 	ldw	r3,0(r2)
 200411c:	e0bffa17 	ldw	r2,-24(fp)
 2004120:	1887883a 	add	r3,r3,r2
 2004124:	e0bffd17 	ldw	r2,-12(fp)
 2004128:	1885c83a 	sub	r2,r3,r2
 200412c:	e0bffb15 	stw	r2,-20(fp)
 2004130:	e0fffb17 	ldw	r3,-20(fp)
 2004134:	e0bfff17 	ldw	r2,-4(fp)
 2004138:	1880010e 	bge	r3,r2,2004140 <alt_epcs_flash_write+0x11c>
 200413c:	1805883a 	mov	r2,r3
 2004140:	e0bffb15 	stw	r2,-20(fp)
 2004144:	e0bffb17 	ldw	r2,-20(fp)
 2004148:	100f883a 	mov	r7,r2
 200414c:	e1bffd17 	ldw	r6,-12(fp)
 2004150:	e17ffe17 	ldw	r5,-8(fp)
 2004154:	e13ffc17 	ldw	r4,-16(fp)
 2004158:	2003f380 	call	2003f38 <alt_epcs_flash_memcmp>
 200415c:	10001226 	beq	r2,zero,20041a8 <alt_epcs_flash_write+0x184>
 2004160:	e0bffc17 	ldw	r2,-16(fp)
 2004164:	10800817 	ldw	r2,32(r2)
 2004168:	e17ffa17 	ldw	r5,-24(fp)
 200416c:	e13ffc17 	ldw	r4,-16(fp)
 2004170:	103ee83a 	callr	r2
 2004174:	e0bff715 	stw	r2,-36(fp)
 2004178:	e0bff717 	ldw	r2,-36(fp)
 200417c:	10000a1e 	bne	r2,zero,20041a8 <alt_epcs_flash_write+0x184>
 2004180:	e0bffc17 	ldw	r2,-16(fp)
 2004184:	10800917 	ldw	r2,36(r2)
 2004188:	e0fffb17 	ldw	r3,-20(fp)
 200418c:	d8c00015 	stw	r3,0(sp)
 2004190:	e1fffe17 	ldw	r7,-8(fp)
 2004194:	e1bffd17 	ldw	r6,-12(fp)
 2004198:	e17ffa17 	ldw	r5,-24(fp)
 200419c:	e13ffc17 	ldw	r4,-16(fp)
 20041a0:	103ee83a 	callr	r2
 20041a4:	e0bff715 	stw	r2,-36(fp)
 20041a8:	e0ffff17 	ldw	r3,-4(fp)
 20041ac:	e0bffb17 	ldw	r2,-20(fp)
 20041b0:	18802e26 	beq	r3,r2,200426c <alt_epcs_flash_write+0x248>
 20041b4:	e0bff717 	ldw	r2,-36(fp)
 20041b8:	10002c1e 	bne	r2,zero,200426c <alt_epcs_flash_write+0x248>
 20041bc:	e0ffff17 	ldw	r3,-4(fp)
 20041c0:	e0bffb17 	ldw	r2,-20(fp)
 20041c4:	1885c83a 	sub	r2,r3,r2
 20041c8:	e0bfff15 	stw	r2,-4(fp)
 20041cc:	e0fffc17 	ldw	r3,-16(fp)
 20041d0:	e0bff817 	ldw	r2,-32(fp)
 20041d4:	10800104 	addi	r2,r2,4
 20041d8:	1004913a 	slli	r2,r2,4
 20041dc:	1885883a 	add	r2,r3,r2
 20041e0:	10c00017 	ldw	r3,0(r2)
 20041e4:	e0bffa17 	ldw	r2,-24(fp)
 20041e8:	1885883a 	add	r2,r3,r2
 20041ec:	e0bffd15 	stw	r2,-12(fp)
 20041f0:	e0bffb17 	ldw	r2,-20(fp)
 20041f4:	e0fffe17 	ldw	r3,-8(fp)
 20041f8:	1885883a 	add	r2,r3,r2
 20041fc:	e0bffe15 	stw	r2,-8(fp)
 2004200:	e0fffc17 	ldw	r3,-16(fp)
 2004204:	e0bff817 	ldw	r2,-32(fp)
 2004208:	10800104 	addi	r2,r2,4
 200420c:	1004913a 	slli	r2,r2,4
 2004210:	1885883a 	add	r2,r3,r2
 2004214:	10800017 	ldw	r2,0(r2)
 2004218:	e0fffa17 	ldw	r3,-24(fp)
 200421c:	1885883a 	add	r2,r3,r2
 2004220:	e0bffa15 	stw	r2,-24(fp)
 2004224:	e0bff917 	ldw	r2,-28(fp)
 2004228:	10800044 	addi	r2,r2,1
 200422c:	e0bff915 	stw	r2,-28(fp)
 2004230:	e0fffc17 	ldw	r3,-16(fp)
 2004234:	e0bff817 	ldw	r2,-32(fp)
 2004238:	1004913a 	slli	r2,r2,4
 200423c:	1885883a 	add	r2,r3,r2
 2004240:	10800f04 	addi	r2,r2,60
 2004244:	10800017 	ldw	r2,0(r2)
 2004248:	e0fff917 	ldw	r3,-28(fp)
 200424c:	18bfa016 	blt	r3,r2,20040d0 <__alt_mem_epcs_flash_controller+0xfe0038d0>
 2004250:	e0bff817 	ldw	r2,-32(fp)
 2004254:	10800044 	addi	r2,r2,1
 2004258:	e0bff815 	stw	r2,-32(fp)
 200425c:	e0bffc17 	ldw	r2,-16(fp)
 2004260:	10800c17 	ldw	r2,48(r2)
 2004264:	e0fff817 	ldw	r3,-32(fp)
 2004268:	18bf7916 	blt	r3,r2,2004050 <__alt_mem_epcs_flash_controller+0xfe003850>
 200426c:	e0bff717 	ldw	r2,-36(fp)
 2004270:	e037883a 	mov	sp,fp
 2004274:	dfc00117 	ldw	ra,4(sp)
 2004278:	df000017 	ldw	fp,0(sp)
 200427c:	dec00204 	addi	sp,sp,8
 2004280:	f800283a 	ret

02004284 <alt_epcs_flash_get_info>:
 2004284:	defffa04 	addi	sp,sp,-24
 2004288:	df000515 	stw	fp,20(sp)
 200428c:	df000504 	addi	fp,sp,20
 2004290:	e13ffd15 	stw	r4,-12(fp)
 2004294:	e17ffe15 	stw	r5,-8(fp)
 2004298:	e1bfff15 	stw	r6,-4(fp)
 200429c:	e03ffb15 	stw	zero,-20(fp)
 20042a0:	e0bffd17 	ldw	r2,-12(fp)
 20042a4:	e0bffc15 	stw	r2,-16(fp)
 20042a8:	e0bffc17 	ldw	r2,-16(fp)
 20042ac:	10c00c17 	ldw	r3,48(r2)
 20042b0:	e0bfff17 	ldw	r2,-4(fp)
 20042b4:	10c00015 	stw	r3,0(r2)
 20042b8:	e0bffc17 	ldw	r2,-16(fp)
 20042bc:	10800c17 	ldw	r2,48(r2)
 20042c0:	1000031e 	bne	r2,zero,20042d0 <alt_epcs_flash_get_info+0x4c>
 20042c4:	00bffec4 	movi	r2,-5
 20042c8:	e0bffb15 	stw	r2,-20(fp)
 20042cc:	00000b06 	br	20042fc <alt_epcs_flash_get_info+0x78>
 20042d0:	e0bffc17 	ldw	r2,-16(fp)
 20042d4:	10800c17 	ldw	r2,48(r2)
 20042d8:	10800250 	cmplti	r2,r2,9
 20042dc:	1000031e 	bne	r2,zero,20042ec <alt_epcs_flash_get_info+0x68>
 20042e0:	00bffd04 	movi	r2,-12
 20042e4:	e0bffb15 	stw	r2,-20(fp)
 20042e8:	00000406 	br	20042fc <alt_epcs_flash_get_info+0x78>
 20042ec:	e0bffc17 	ldw	r2,-16(fp)
 20042f0:	10c00d04 	addi	r3,r2,52
 20042f4:	e0bffe17 	ldw	r2,-8(fp)
 20042f8:	10c00015 	stw	r3,0(r2)
 20042fc:	e0bffb17 	ldw	r2,-20(fp)
 2004300:	e037883a 	mov	sp,fp
 2004304:	df000017 	ldw	fp,0(sp)
 2004308:	dec00104 	addi	sp,sp,4
 200430c:	f800283a 	ret

02004310 <alt_epcs_test_address>:
 2004310:	defff904 	addi	sp,sp,-28
 2004314:	df000615 	stw	fp,24(sp)
 2004318:	df000604 	addi	fp,sp,24
 200431c:	e13ffe15 	stw	r4,-8(fp)
 2004320:	e17fff15 	stw	r5,-4(fp)
 2004324:	e03ffa15 	stw	zero,-24(fp)
 2004328:	e0bffe17 	ldw	r2,-8(fp)
 200432c:	e0bffb15 	stw	r2,-20(fp)
 2004330:	e0bffb17 	ldw	r2,-20(fp)
 2004334:	10800c17 	ldw	r2,48(r2)
 2004338:	10bfffc4 	addi	r2,r2,-1
 200433c:	e0bffc15 	stw	r2,-16(fp)
 2004340:	e0fffb17 	ldw	r3,-20(fp)
 2004344:	e0bffc17 	ldw	r2,-16(fp)
 2004348:	1004913a 	slli	r2,r2,4
 200434c:	1885883a 	add	r2,r3,r2
 2004350:	10800d04 	addi	r2,r2,52
 2004354:	10800017 	ldw	r2,0(r2)
 2004358:	10ffffc4 	addi	r3,r2,-1
 200435c:	e13ffb17 	ldw	r4,-20(fp)
 2004360:	e0bffc17 	ldw	r2,-16(fp)
 2004364:	1004913a 	slli	r2,r2,4
 2004368:	2085883a 	add	r2,r4,r2
 200436c:	10800e04 	addi	r2,r2,56
 2004370:	10800017 	ldw	r2,0(r2)
 2004374:	1885883a 	add	r2,r3,r2
 2004378:	e0bffd15 	stw	r2,-12(fp)
 200437c:	e0bfff17 	ldw	r2,-4(fp)
 2004380:	e0fffd17 	ldw	r3,-12(fp)
 2004384:	1880022e 	bgeu	r3,r2,2004390 <alt_epcs_test_address+0x80>
 2004388:	00bffec4 	movi	r2,-5
 200438c:	e0bffa15 	stw	r2,-24(fp)
 2004390:	e0bffa17 	ldw	r2,-24(fp)
 2004394:	e037883a 	mov	sp,fp
 2004398:	df000017 	ldw	fp,0(sp)
 200439c:	dec00104 	addi	sp,sp,4
 20043a0:	f800283a 	ret

020043a4 <alt_epcs_flash_erase_block>:
 20043a4:	defffa04 	addi	sp,sp,-24
 20043a8:	dfc00515 	stw	ra,20(sp)
 20043ac:	df000415 	stw	fp,16(sp)
 20043b0:	df000404 	addi	fp,sp,16
 20043b4:	e13ffe15 	stw	r4,-8(fp)
 20043b8:	e17fff15 	stw	r5,-4(fp)
 20043bc:	e03ffc15 	stw	zero,-16(fp)
 20043c0:	e0bffe17 	ldw	r2,-8(fp)
 20043c4:	e0bffd15 	stw	r2,-12(fp)
 20043c8:	e17fff17 	ldw	r5,-4(fp)
 20043cc:	e13ffe17 	ldw	r4,-8(fp)
 20043d0:	20043100 	call	2004310 <alt_epcs_test_address>
 20043d4:	e0bffc15 	stw	r2,-16(fp)
 20043d8:	e0bffc17 	ldw	r2,-16(fp)
 20043dc:	10000916 	blt	r2,zero,2004404 <alt_epcs_flash_erase_block+0x60>
 20043e0:	e0bffd17 	ldw	r2,-12(fp)
 20043e4:	10c02e17 	ldw	r3,184(r2)
 20043e8:	e13fff17 	ldw	r4,-4(fp)
 20043ec:	e0bffd17 	ldw	r2,-12(fp)
 20043f0:	10803217 	ldw	r2,200(r2)
 20043f4:	100d883a 	mov	r6,r2
 20043f8:	200b883a 	mov	r5,r4
 20043fc:	1809883a 	mov	r4,r3
 2004400:	2004f5c0 	call	2004f5c <epcs_sector_erase>
 2004404:	e0bffc17 	ldw	r2,-16(fp)
 2004408:	e037883a 	mov	sp,fp
 200440c:	dfc00117 	ldw	ra,4(sp)
 2004410:	df000017 	ldw	fp,0(sp)
 2004414:	dec00204 	addi	sp,sp,8
 2004418:	f800283a 	ret

0200441c <alt_epcs_flash_write_block>:
 200441c:	defff404 	addi	sp,sp,-48
 2004420:	dfc00b15 	stw	ra,44(sp)
 2004424:	df000a15 	stw	fp,40(sp)
 2004428:	df000a04 	addi	fp,sp,40
 200442c:	e13ffc15 	stw	r4,-16(fp)
 2004430:	e17ffd15 	stw	r5,-12(fp)
 2004434:	e1bffe15 	stw	r6,-8(fp)
 2004438:	e1ffff15 	stw	r7,-4(fp)
 200443c:	e0bffc17 	ldw	r2,-16(fp)
 2004440:	e0bff815 	stw	r2,-32(fp)
 2004444:	e03ff715 	stw	zero,-36(fp)
 2004448:	e17ffe17 	ldw	r5,-8(fp)
 200444c:	e13ffc17 	ldw	r4,-16(fp)
 2004450:	20043100 	call	2004310 <alt_epcs_test_address>
 2004454:	e0bff915 	stw	r2,-28(fp)
 2004458:	e0bff917 	ldw	r2,-28(fp)
 200445c:	10002916 	blt	r2,zero,2004504 <alt_epcs_flash_write_block+0xe8>
 2004460:	00002606 	br	20044fc <alt_epcs_flash_write_block+0xe0>
 2004464:	e0bff817 	ldw	r2,-32(fp)
 2004468:	10c03117 	ldw	r3,196(r2)
 200446c:	e0bffe17 	ldw	r2,-8(fp)
 2004470:	1887883a 	add	r3,r3,r2
 2004474:	e0bff817 	ldw	r2,-32(fp)
 2004478:	10803117 	ldw	r2,196(r2)
 200447c:	0085c83a 	sub	r2,zero,r2
 2004480:	1884703a 	and	r2,r3,r2
 2004484:	e0bffa15 	stw	r2,-24(fp)
 2004488:	e0fffa17 	ldw	r3,-24(fp)
 200448c:	e0bffe17 	ldw	r2,-8(fp)
 2004490:	1885c83a 	sub	r2,r3,r2
 2004494:	e0c00217 	ldw	r3,8(fp)
 2004498:	1880010e 	bge	r3,r2,20044a0 <alt_epcs_flash_write_block+0x84>
 200449c:	1805883a 	mov	r2,r3
 20044a0:	e0bffb15 	stw	r2,-20(fp)
 20044a4:	e0bff817 	ldw	r2,-32(fp)
 20044a8:	11002e17 	ldw	r4,184(r2)
 20044ac:	e0bff717 	ldw	r2,-36(fp)
 20044b0:	e0ffff17 	ldw	r3,-4(fp)
 20044b4:	1887883a 	add	r3,r3,r2
 20044b8:	e0bff817 	ldw	r2,-32(fp)
 20044bc:	10803217 	ldw	r2,200(r2)
 20044c0:	d8800015 	stw	r2,0(sp)
 20044c4:	e1fffb17 	ldw	r7,-20(fp)
 20044c8:	180d883a 	mov	r6,r3
 20044cc:	e17ffe17 	ldw	r5,-8(fp)
 20044d0:	200520c0 	call	200520c <epcs_write_buffer>
 20044d4:	e0c00217 	ldw	r3,8(fp)
 20044d8:	e0bffb17 	ldw	r2,-20(fp)
 20044dc:	1885c83a 	sub	r2,r3,r2
 20044e0:	e0800215 	stw	r2,8(fp)
 20044e4:	e0fff717 	ldw	r3,-36(fp)
 20044e8:	e0bffb17 	ldw	r2,-20(fp)
 20044ec:	1885883a 	add	r2,r3,r2
 20044f0:	e0bff715 	stw	r2,-36(fp)
 20044f4:	e0bffa17 	ldw	r2,-24(fp)
 20044f8:	e0bffe15 	stw	r2,-8(fp)
 20044fc:	e0800217 	ldw	r2,8(fp)
 2004500:	103fd81e 	bne	r2,zero,2004464 <__alt_mem_epcs_flash_controller+0xfe003c64>
 2004504:	e0bff917 	ldw	r2,-28(fp)
 2004508:	e037883a 	mov	sp,fp
 200450c:	dfc00117 	ldw	ra,4(sp)
 2004510:	df000017 	ldw	fp,0(sp)
 2004514:	dec00204 	addi	sp,sp,8
 2004518:	f800283a 	ret

0200451c <alt_epcs_flash_read>:
 200451c:	defff704 	addi	sp,sp,-36
 2004520:	dfc00815 	stw	ra,32(sp)
 2004524:	df000715 	stw	fp,28(sp)
 2004528:	df000704 	addi	fp,sp,28
 200452c:	e13ffc15 	stw	r4,-16(fp)
 2004530:	e17ffd15 	stw	r5,-12(fp)
 2004534:	e1bffe15 	stw	r6,-8(fp)
 2004538:	e1ffff15 	stw	r7,-4(fp)
 200453c:	e03ffa15 	stw	zero,-24(fp)
 2004540:	e0bffc17 	ldw	r2,-16(fp)
 2004544:	e0bffb15 	stw	r2,-20(fp)
 2004548:	e17ffd17 	ldw	r5,-12(fp)
 200454c:	e13ffc17 	ldw	r4,-16(fp)
 2004550:	20043100 	call	2004310 <alt_epcs_test_address>
 2004554:	e0bffa15 	stw	r2,-24(fp)
 2004558:	e0bffa17 	ldw	r2,-24(fp)
 200455c:	10000f16 	blt	r2,zero,200459c <alt_epcs_flash_read+0x80>
 2004560:	e0bffb17 	ldw	r2,-20(fp)
 2004564:	10c02e17 	ldw	r3,184(r2)
 2004568:	e0bffb17 	ldw	r2,-20(fp)
 200456c:	10803217 	ldw	r2,200(r2)
 2004570:	d8800015 	stw	r2,0(sp)
 2004574:	e1ffff17 	ldw	r7,-4(fp)
 2004578:	e1bffe17 	ldw	r6,-8(fp)
 200457c:	e17ffd17 	ldw	r5,-12(fp)
 2004580:	1809883a 	mov	r4,r3
 2004584:	20050580 	call	2005058 <epcs_read_buffer>
 2004588:	e0bffa15 	stw	r2,-24(fp)
 200458c:	e0fffa17 	ldw	r3,-24(fp)
 2004590:	e0bfff17 	ldw	r2,-4(fp)
 2004594:	1880011e 	bne	r3,r2,200459c <alt_epcs_flash_read+0x80>
 2004598:	e03ffa15 	stw	zero,-24(fp)
 200459c:	e0bffa17 	ldw	r2,-24(fp)
 20045a0:	e037883a 	mov	sp,fp
 20045a4:	dfc00117 	ldw	ra,4(sp)
 20045a8:	df000017 	ldw	fp,0(sp)
 20045ac:	dec00204 	addi	sp,sp,8
 20045b0:	f800283a 	ret

020045b4 <altera_avalon_uart_read_fd>:
 20045b4:	defffa04 	addi	sp,sp,-24
 20045b8:	dfc00515 	stw	ra,20(sp)
 20045bc:	df000415 	stw	fp,16(sp)
 20045c0:	df000404 	addi	fp,sp,16
 20045c4:	e13ffd15 	stw	r4,-12(fp)
 20045c8:	e17ffe15 	stw	r5,-8(fp)
 20045cc:	e1bfff15 	stw	r6,-4(fp)
 20045d0:	e0bffd17 	ldw	r2,-12(fp)
 20045d4:	10800017 	ldw	r2,0(r2)
 20045d8:	e0bffc15 	stw	r2,-16(fp)
 20045dc:	e0bffc17 	ldw	r2,-16(fp)
 20045e0:	10c00a04 	addi	r3,r2,40
 20045e4:	e0bffd17 	ldw	r2,-12(fp)
 20045e8:	10800217 	ldw	r2,8(r2)
 20045ec:	100f883a 	mov	r7,r2
 20045f0:	e1bfff17 	ldw	r6,-4(fp)
 20045f4:	e17ffe17 	ldw	r5,-8(fp)
 20045f8:	1809883a 	mov	r4,r3
 20045fc:	2004ac80 	call	2004ac8 <altera_avalon_uart_read>
 2004600:	e037883a 	mov	sp,fp
 2004604:	dfc00117 	ldw	ra,4(sp)
 2004608:	df000017 	ldw	fp,0(sp)
 200460c:	dec00204 	addi	sp,sp,8
 2004610:	f800283a 	ret

02004614 <altera_avalon_uart_write_fd>:
 2004614:	defffa04 	addi	sp,sp,-24
 2004618:	dfc00515 	stw	ra,20(sp)
 200461c:	df000415 	stw	fp,16(sp)
 2004620:	df000404 	addi	fp,sp,16
 2004624:	e13ffd15 	stw	r4,-12(fp)
 2004628:	e17ffe15 	stw	r5,-8(fp)
 200462c:	e1bfff15 	stw	r6,-4(fp)
 2004630:	e0bffd17 	ldw	r2,-12(fp)
 2004634:	10800017 	ldw	r2,0(r2)
 2004638:	e0bffc15 	stw	r2,-16(fp)
 200463c:	e0bffc17 	ldw	r2,-16(fp)
 2004640:	10c00a04 	addi	r3,r2,40
 2004644:	e0bffd17 	ldw	r2,-12(fp)
 2004648:	10800217 	ldw	r2,8(r2)
 200464c:	100f883a 	mov	r7,r2
 2004650:	e1bfff17 	ldw	r6,-4(fp)
 2004654:	e17ffe17 	ldw	r5,-8(fp)
 2004658:	1809883a 	mov	r4,r3
 200465c:	2004ce00 	call	2004ce0 <altera_avalon_uart_write>
 2004660:	e037883a 	mov	sp,fp
 2004664:	dfc00117 	ldw	ra,4(sp)
 2004668:	df000017 	ldw	fp,0(sp)
 200466c:	dec00204 	addi	sp,sp,8
 2004670:	f800283a 	ret

02004674 <altera_avalon_uart_close_fd>:
 2004674:	defffc04 	addi	sp,sp,-16
 2004678:	dfc00315 	stw	ra,12(sp)
 200467c:	df000215 	stw	fp,8(sp)
 2004680:	df000204 	addi	fp,sp,8
 2004684:	e13fff15 	stw	r4,-4(fp)
 2004688:	e0bfff17 	ldw	r2,-4(fp)
 200468c:	10800017 	ldw	r2,0(r2)
 2004690:	e0bffe15 	stw	r2,-8(fp)
 2004694:	e0bffe17 	ldw	r2,-8(fp)
 2004698:	10c00a04 	addi	r3,r2,40
 200469c:	e0bfff17 	ldw	r2,-4(fp)
 20046a0:	10800217 	ldw	r2,8(r2)
 20046a4:	100b883a 	mov	r5,r2
 20046a8:	1809883a 	mov	r4,r3
 20046ac:	2004a380 	call	2004a38 <altera_avalon_uart_close>
 20046b0:	e037883a 	mov	sp,fp
 20046b4:	dfc00117 	ldw	ra,4(sp)
 20046b8:	df000017 	ldw	fp,0(sp)
 20046bc:	dec00204 	addi	sp,sp,8
 20046c0:	f800283a 	ret

020046c4 <altera_avalon_uart_init>:
 20046c4:	defff804 	addi	sp,sp,-32
 20046c8:	dfc00715 	stw	ra,28(sp)
 20046cc:	df000615 	stw	fp,24(sp)
 20046d0:	df000604 	addi	fp,sp,24
 20046d4:	e13ffd15 	stw	r4,-12(fp)
 20046d8:	e17ffe15 	stw	r5,-8(fp)
 20046dc:	e1bfff15 	stw	r6,-4(fp)
 20046e0:	e0bffd17 	ldw	r2,-12(fp)
 20046e4:	10800017 	ldw	r2,0(r2)
 20046e8:	e0bffb15 	stw	r2,-20(fp)
 20046ec:	0005883a 	mov	r2,zero
 20046f0:	1000041e 	bne	r2,zero,2004704 <altera_avalon_uart_init+0x40>
 20046f4:	0005883a 	mov	r2,zero
 20046f8:	1000021e 	bne	r2,zero,2004704 <altera_avalon_uart_init+0x40>
 20046fc:	0005883a 	mov	r2,zero
 2004700:	10000226 	beq	r2,zero,200470c <altera_avalon_uart_init+0x48>
 2004704:	00800044 	movi	r2,1
 2004708:	00000106 	br	2004710 <altera_avalon_uart_init+0x4c>
 200470c:	0005883a 	mov	r2,zero
 2004710:	e0bffc15 	stw	r2,-16(fp)
 2004714:	e0bffc17 	ldw	r2,-16(fp)
 2004718:	10000f1e 	bne	r2,zero,2004758 <altera_avalon_uart_init+0x94>
 200471c:	e0bffd17 	ldw	r2,-12(fp)
 2004720:	00c32004 	movi	r3,3200
 2004724:	10c00115 	stw	r3,4(r2)
 2004728:	e0bffb17 	ldw	r2,-20(fp)
 200472c:	10800304 	addi	r2,r2,12
 2004730:	e0fffd17 	ldw	r3,-12(fp)
 2004734:	18c00117 	ldw	r3,4(r3)
 2004738:	10c00035 	stwio	r3,0(r2)
 200473c:	d8000015 	stw	zero,0(sp)
 2004740:	e1fffd17 	ldw	r7,-12(fp)
 2004744:	01808034 	movhi	r6,512
 2004748:	3191dc04 	addi	r6,r6,18288
 200474c:	e17fff17 	ldw	r5,-4(fp)
 2004750:	e13ffe17 	ldw	r4,-8(fp)
 2004754:	20057a00 	call	20057a0 <alt_ic_isr_register>
 2004758:	0001883a 	nop
 200475c:	e037883a 	mov	sp,fp
 2004760:	dfc00117 	ldw	ra,4(sp)
 2004764:	df000017 	ldw	fp,0(sp)
 2004768:	dec00204 	addi	sp,sp,8
 200476c:	f800283a 	ret

02004770 <altera_avalon_uart_irq>:
 2004770:	defffa04 	addi	sp,sp,-24
 2004774:	dfc00515 	stw	ra,20(sp)
 2004778:	df000415 	stw	fp,16(sp)
 200477c:	df000404 	addi	fp,sp,16
 2004780:	e13fff15 	stw	r4,-4(fp)
 2004784:	e0bfff17 	ldw	r2,-4(fp)
 2004788:	e0bffc15 	stw	r2,-16(fp)
 200478c:	e0bffc17 	ldw	r2,-16(fp)
 2004790:	10800017 	ldw	r2,0(r2)
 2004794:	e0bffd15 	stw	r2,-12(fp)
 2004798:	e0bffd17 	ldw	r2,-12(fp)
 200479c:	10800204 	addi	r2,r2,8
 20047a0:	10800037 	ldwio	r2,0(r2)
 20047a4:	e0bffe15 	stw	r2,-8(fp)
 20047a8:	e0bffd17 	ldw	r2,-12(fp)
 20047ac:	10800204 	addi	r2,r2,8
 20047b0:	0007883a 	mov	r3,zero
 20047b4:	10c00035 	stwio	r3,0(r2)
 20047b8:	e0bffd17 	ldw	r2,-12(fp)
 20047bc:	10800204 	addi	r2,r2,8
 20047c0:	10800037 	ldwio	r2,0(r2)
 20047c4:	e0bffe17 	ldw	r2,-8(fp)
 20047c8:	1080200c 	andi	r2,r2,128
 20047cc:	10000326 	beq	r2,zero,20047dc <altera_avalon_uart_irq+0x6c>
 20047d0:	e17ffe17 	ldw	r5,-8(fp)
 20047d4:	e13ffc17 	ldw	r4,-16(fp)
 20047d8:	200480c0 	call	200480c <altera_avalon_uart_rxirq>
 20047dc:	e0bffe17 	ldw	r2,-8(fp)
 20047e0:	1081100c 	andi	r2,r2,1088
 20047e4:	10000326 	beq	r2,zero,20047f4 <altera_avalon_uart_irq+0x84>
 20047e8:	e17ffe17 	ldw	r5,-8(fp)
 20047ec:	e13ffc17 	ldw	r4,-16(fp)
 20047f0:	20048f00 	call	20048f0 <altera_avalon_uart_txirq>
 20047f4:	0001883a 	nop
 20047f8:	e037883a 	mov	sp,fp
 20047fc:	dfc00117 	ldw	ra,4(sp)
 2004800:	df000017 	ldw	fp,0(sp)
 2004804:	dec00204 	addi	sp,sp,8
 2004808:	f800283a 	ret

0200480c <altera_avalon_uart_rxirq>:
 200480c:	defffc04 	addi	sp,sp,-16
 2004810:	df000315 	stw	fp,12(sp)
 2004814:	df000304 	addi	fp,sp,12
 2004818:	e13ffe15 	stw	r4,-8(fp)
 200481c:	e17fff15 	stw	r5,-4(fp)
 2004820:	e0bfff17 	ldw	r2,-4(fp)
 2004824:	108000cc 	andi	r2,r2,3
 2004828:	10002c1e 	bne	r2,zero,20048dc <altera_avalon_uart_rxirq+0xd0>
 200482c:	e0bffe17 	ldw	r2,-8(fp)
 2004830:	10800317 	ldw	r2,12(r2)
 2004834:	e0bffe17 	ldw	r2,-8(fp)
 2004838:	10800217 	ldw	r2,8(r2)
 200483c:	e0bffe17 	ldw	r2,-8(fp)
 2004840:	10800317 	ldw	r2,12(r2)
 2004844:	10800044 	addi	r2,r2,1
 2004848:	10800fcc 	andi	r2,r2,63
 200484c:	e0bffd15 	stw	r2,-12(fp)
 2004850:	e0bffe17 	ldw	r2,-8(fp)
 2004854:	10800317 	ldw	r2,12(r2)
 2004858:	e0fffe17 	ldw	r3,-8(fp)
 200485c:	18c00017 	ldw	r3,0(r3)
 2004860:	18c00037 	ldwio	r3,0(r3)
 2004864:	1809883a 	mov	r4,r3
 2004868:	e0fffe17 	ldw	r3,-8(fp)
 200486c:	1885883a 	add	r2,r3,r2
 2004870:	10800704 	addi	r2,r2,28
 2004874:	11000005 	stb	r4,0(r2)
 2004878:	e0bffe17 	ldw	r2,-8(fp)
 200487c:	e0fffd17 	ldw	r3,-12(fp)
 2004880:	10c00315 	stw	r3,12(r2)
 2004884:	e0bffe17 	ldw	r2,-8(fp)
 2004888:	10800317 	ldw	r2,12(r2)
 200488c:	10800044 	addi	r2,r2,1
 2004890:	10800fcc 	andi	r2,r2,63
 2004894:	e0bffd15 	stw	r2,-12(fp)
 2004898:	e0bffe17 	ldw	r2,-8(fp)
 200489c:	10c00217 	ldw	r3,8(r2)
 20048a0:	e0bffd17 	ldw	r2,-12(fp)
 20048a4:	18800e1e 	bne	r3,r2,20048e0 <altera_avalon_uart_rxirq+0xd4>
 20048a8:	e0bffe17 	ldw	r2,-8(fp)
 20048ac:	10c00117 	ldw	r3,4(r2)
 20048b0:	00bfdfc4 	movi	r2,-129
 20048b4:	1886703a 	and	r3,r3,r2
 20048b8:	e0bffe17 	ldw	r2,-8(fp)
 20048bc:	10c00115 	stw	r3,4(r2)
 20048c0:	e0bffe17 	ldw	r2,-8(fp)
 20048c4:	10800017 	ldw	r2,0(r2)
 20048c8:	10800304 	addi	r2,r2,12
 20048cc:	e0fffe17 	ldw	r3,-8(fp)
 20048d0:	18c00117 	ldw	r3,4(r3)
 20048d4:	10c00035 	stwio	r3,0(r2)
 20048d8:	00000106 	br	20048e0 <altera_avalon_uart_rxirq+0xd4>
 20048dc:	0001883a 	nop
 20048e0:	e037883a 	mov	sp,fp
 20048e4:	df000017 	ldw	fp,0(sp)
 20048e8:	dec00104 	addi	sp,sp,4
 20048ec:	f800283a 	ret

020048f0 <altera_avalon_uart_txirq>:
 20048f0:	defffb04 	addi	sp,sp,-20
 20048f4:	df000415 	stw	fp,16(sp)
 20048f8:	df000404 	addi	fp,sp,16
 20048fc:	e13ffc15 	stw	r4,-16(fp)
 2004900:	e17ffd15 	stw	r5,-12(fp)
 2004904:	e0bffc17 	ldw	r2,-16(fp)
 2004908:	10c00417 	ldw	r3,16(r2)
 200490c:	e0bffc17 	ldw	r2,-16(fp)
 2004910:	10800517 	ldw	r2,20(r2)
 2004914:	18803226 	beq	r3,r2,20049e0 <altera_avalon_uart_txirq+0xf0>
 2004918:	e0bffc17 	ldw	r2,-16(fp)
 200491c:	10800617 	ldw	r2,24(r2)
 2004920:	1080008c 	andi	r2,r2,2
 2004924:	10000326 	beq	r2,zero,2004934 <altera_avalon_uart_txirq+0x44>
 2004928:	e0bffd17 	ldw	r2,-12(fp)
 200492c:	1082000c 	andi	r2,r2,2048
 2004930:	10001d26 	beq	r2,zero,20049a8 <altera_avalon_uart_txirq+0xb8>
 2004934:	e0bffc17 	ldw	r2,-16(fp)
 2004938:	10800417 	ldw	r2,16(r2)
 200493c:	e0bffc17 	ldw	r2,-16(fp)
 2004940:	10800517 	ldw	r2,20(r2)
 2004944:	e0bffc17 	ldw	r2,-16(fp)
 2004948:	10800017 	ldw	r2,0(r2)
 200494c:	10800104 	addi	r2,r2,4
 2004950:	e0fffc17 	ldw	r3,-16(fp)
 2004954:	18c00417 	ldw	r3,16(r3)
 2004958:	e13ffc17 	ldw	r4,-16(fp)
 200495c:	20c7883a 	add	r3,r4,r3
 2004960:	18c01704 	addi	r3,r3,92
 2004964:	18c00003 	ldbu	r3,0(r3)
 2004968:	18c03fcc 	andi	r3,r3,255
 200496c:	10c00035 	stwio	r3,0(r2)
 2004970:	e0bffc17 	ldw	r2,-16(fp)
 2004974:	10800417 	ldw	r2,16(r2)
 2004978:	10800044 	addi	r2,r2,1
 200497c:	e0fffc17 	ldw	r3,-16(fp)
 2004980:	18800415 	stw	r2,16(r3)
 2004984:	10c00fcc 	andi	r3,r2,63
 2004988:	e0bffc17 	ldw	r2,-16(fp)
 200498c:	10c00415 	stw	r3,16(r2)
 2004990:	e0bffc17 	ldw	r2,-16(fp)
 2004994:	10800117 	ldw	r2,4(r2)
 2004998:	10c01014 	ori	r3,r2,64
 200499c:	e0bffc17 	ldw	r2,-16(fp)
 20049a0:	10c00115 	stw	r3,4(r2)
 20049a4:	00000e06 	br	20049e0 <altera_avalon_uart_txirq+0xf0>
 20049a8:	e0bffc17 	ldw	r2,-16(fp)
 20049ac:	10800017 	ldw	r2,0(r2)
 20049b0:	10800204 	addi	r2,r2,8
 20049b4:	10800037 	ldwio	r2,0(r2)
 20049b8:	e0bffd15 	stw	r2,-12(fp)
 20049bc:	e0bffd17 	ldw	r2,-12(fp)
 20049c0:	1082000c 	andi	r2,r2,2048
 20049c4:	1000061e 	bne	r2,zero,20049e0 <altera_avalon_uart_txirq+0xf0>
 20049c8:	e0bffc17 	ldw	r2,-16(fp)
 20049cc:	10c00117 	ldw	r3,4(r2)
 20049d0:	00bfefc4 	movi	r2,-65
 20049d4:	1886703a 	and	r3,r3,r2
 20049d8:	e0bffc17 	ldw	r2,-16(fp)
 20049dc:	10c00115 	stw	r3,4(r2)
 20049e0:	e0bffc17 	ldw	r2,-16(fp)
 20049e4:	10c00417 	ldw	r3,16(r2)
 20049e8:	e0bffc17 	ldw	r2,-16(fp)
 20049ec:	10800517 	ldw	r2,20(r2)
 20049f0:	1880061e 	bne	r3,r2,2004a0c <altera_avalon_uart_txirq+0x11c>
 20049f4:	e0bffc17 	ldw	r2,-16(fp)
 20049f8:	10c00117 	ldw	r3,4(r2)
 20049fc:	00beefc4 	movi	r2,-1089
 2004a00:	1886703a 	and	r3,r3,r2
 2004a04:	e0bffc17 	ldw	r2,-16(fp)
 2004a08:	10c00115 	stw	r3,4(r2)
 2004a0c:	e0bffc17 	ldw	r2,-16(fp)
 2004a10:	10800017 	ldw	r2,0(r2)
 2004a14:	10800304 	addi	r2,r2,12
 2004a18:	e0fffc17 	ldw	r3,-16(fp)
 2004a1c:	18c00117 	ldw	r3,4(r3)
 2004a20:	10c00035 	stwio	r3,0(r2)
 2004a24:	0001883a 	nop
 2004a28:	e037883a 	mov	sp,fp
 2004a2c:	df000017 	ldw	fp,0(sp)
 2004a30:	dec00104 	addi	sp,sp,4
 2004a34:	f800283a 	ret

02004a38 <altera_avalon_uart_close>:
 2004a38:	defffd04 	addi	sp,sp,-12
 2004a3c:	df000215 	stw	fp,8(sp)
 2004a40:	df000204 	addi	fp,sp,8
 2004a44:	e13ffe15 	stw	r4,-8(fp)
 2004a48:	e17fff15 	stw	r5,-4(fp)
 2004a4c:	00000506 	br	2004a64 <altera_avalon_uart_close+0x2c>
 2004a50:	e0bfff17 	ldw	r2,-4(fp)
 2004a54:	1090000c 	andi	r2,r2,16384
 2004a58:	10000226 	beq	r2,zero,2004a64 <altera_avalon_uart_close+0x2c>
 2004a5c:	00bffd44 	movi	r2,-11
 2004a60:	00000606 	br	2004a7c <altera_avalon_uart_close+0x44>
 2004a64:	e0bffe17 	ldw	r2,-8(fp)
 2004a68:	10c00417 	ldw	r3,16(r2)
 2004a6c:	e0bffe17 	ldw	r2,-8(fp)
 2004a70:	10800517 	ldw	r2,20(r2)
 2004a74:	18bff61e 	bne	r3,r2,2004a50 <__alt_mem_epcs_flash_controller+0xfe004250>
 2004a78:	0005883a 	mov	r2,zero
 2004a7c:	e037883a 	mov	sp,fp
 2004a80:	df000017 	ldw	fp,0(sp)
 2004a84:	dec00104 	addi	sp,sp,4
 2004a88:	f800283a 	ret

02004a8c <alt_get_errno>:
 2004a8c:	defffe04 	addi	sp,sp,-8
 2004a90:	dfc00115 	stw	ra,4(sp)
 2004a94:	df000015 	stw	fp,0(sp)
 2004a98:	d839883a 	mov	fp,sp
 2004a9c:	d0a00917 	ldw	r2,-32732(gp)
 2004aa0:	10000326 	beq	r2,zero,2004ab0 <alt_get_errno+0x24>
 2004aa4:	d0a00917 	ldw	r2,-32732(gp)
 2004aa8:	103ee83a 	callr	r2
 2004aac:	00000106 	br	2004ab4 <alt_get_errno+0x28>
 2004ab0:	d0a31904 	addi	r2,gp,-29596
 2004ab4:	e037883a 	mov	sp,fp
 2004ab8:	dfc00117 	ldw	ra,4(sp)
 2004abc:	df000017 	ldw	fp,0(sp)
 2004ac0:	dec00204 	addi	sp,sp,8
 2004ac4:	f800283a 	ret

02004ac8 <altera_avalon_uart_read>:
 2004ac8:	defff204 	addi	sp,sp,-56
 2004acc:	dfc00d15 	stw	ra,52(sp)
 2004ad0:	df000c15 	stw	fp,48(sp)
 2004ad4:	df000c04 	addi	fp,sp,48
 2004ad8:	e13ffc15 	stw	r4,-16(fp)
 2004adc:	e17ffd15 	stw	r5,-12(fp)
 2004ae0:	e1bffe15 	stw	r6,-8(fp)
 2004ae4:	e1ffff15 	stw	r7,-4(fp)
 2004ae8:	e03ff405 	stb	zero,-48(fp)
 2004aec:	e03ff515 	stw	zero,-44(fp)
 2004af0:	e0bfff17 	ldw	r2,-4(fp)
 2004af4:	1090000c 	andi	r2,r2,16384
 2004af8:	1005003a 	cmpeq	r2,r2,zero
 2004afc:	10803fcc 	andi	r2,r2,255
 2004b00:	e0bff615 	stw	r2,-40(fp)
 2004b04:	00001306 	br	2004b54 <altera_avalon_uart_read+0x8c>
 2004b08:	e0bff517 	ldw	r2,-44(fp)
 2004b0c:	10800044 	addi	r2,r2,1
 2004b10:	e0bff515 	stw	r2,-44(fp)
 2004b14:	e0bffd17 	ldw	r2,-12(fp)
 2004b18:	10c00044 	addi	r3,r2,1
 2004b1c:	e0fffd15 	stw	r3,-12(fp)
 2004b20:	e0fffc17 	ldw	r3,-16(fp)
 2004b24:	18c00217 	ldw	r3,8(r3)
 2004b28:	e13ffc17 	ldw	r4,-16(fp)
 2004b2c:	20c7883a 	add	r3,r4,r3
 2004b30:	18c00704 	addi	r3,r3,28
 2004b34:	18c00003 	ldbu	r3,0(r3)
 2004b38:	10c00005 	stb	r3,0(r2)
 2004b3c:	e0bffc17 	ldw	r2,-16(fp)
 2004b40:	10800217 	ldw	r2,8(r2)
 2004b44:	10800044 	addi	r2,r2,1
 2004b48:	10c00fcc 	andi	r3,r2,63
 2004b4c:	e0bffc17 	ldw	r2,-16(fp)
 2004b50:	10c00215 	stw	r3,8(r2)
 2004b54:	e0fff517 	ldw	r3,-44(fp)
 2004b58:	e0bffe17 	ldw	r2,-8(fp)
 2004b5c:	1880050e 	bge	r3,r2,2004b74 <altera_avalon_uart_read+0xac>
 2004b60:	e0bffc17 	ldw	r2,-16(fp)
 2004b64:	10c00217 	ldw	r3,8(r2)
 2004b68:	e0bffc17 	ldw	r2,-16(fp)
 2004b6c:	10800317 	ldw	r2,12(r2)
 2004b70:	18bfe51e 	bne	r3,r2,2004b08 <__alt_mem_epcs_flash_controller+0xfe004308>
 2004b74:	e0bff517 	ldw	r2,-44(fp)
 2004b78:	1000251e 	bne	r2,zero,2004c10 <altera_avalon_uart_read+0x148>
 2004b7c:	e0bffc17 	ldw	r2,-16(fp)
 2004b80:	10c00217 	ldw	r3,8(r2)
 2004b84:	e0bffc17 	ldw	r2,-16(fp)
 2004b88:	10800317 	ldw	r2,12(r2)
 2004b8c:	1880201e 	bne	r3,r2,2004c10 <altera_avalon_uart_read+0x148>
 2004b90:	e0bff617 	ldw	r2,-40(fp)
 2004b94:	1000071e 	bne	r2,zero,2004bb4 <altera_avalon_uart_read+0xec>
 2004b98:	2004a8c0 	call	2004a8c <alt_get_errno>
 2004b9c:	1007883a 	mov	r3,r2
 2004ba0:	008002c4 	movi	r2,11
 2004ba4:	18800015 	stw	r2,0(r3)
 2004ba8:	00800044 	movi	r2,1
 2004bac:	e0bff405 	stb	r2,-48(fp)
 2004bb0:	00001b06 	br	2004c20 <altera_avalon_uart_read+0x158>
 2004bb4:	0005303a 	rdctl	r2,status
 2004bb8:	e0bff915 	stw	r2,-28(fp)
 2004bbc:	e0fff917 	ldw	r3,-28(fp)
 2004bc0:	00bfff84 	movi	r2,-2
 2004bc4:	1884703a 	and	r2,r3,r2
 2004bc8:	1001703a 	wrctl	status,r2
 2004bcc:	e0bff917 	ldw	r2,-28(fp)
 2004bd0:	e0bff815 	stw	r2,-32(fp)
 2004bd4:	e0bffc17 	ldw	r2,-16(fp)
 2004bd8:	10800117 	ldw	r2,4(r2)
 2004bdc:	10c02014 	ori	r3,r2,128
 2004be0:	e0bffc17 	ldw	r2,-16(fp)
 2004be4:	10c00115 	stw	r3,4(r2)
 2004be8:	e0bffc17 	ldw	r2,-16(fp)
 2004bec:	10800017 	ldw	r2,0(r2)
 2004bf0:	10800304 	addi	r2,r2,12
 2004bf4:	e0fffc17 	ldw	r3,-16(fp)
 2004bf8:	18c00117 	ldw	r3,4(r3)
 2004bfc:	10c00035 	stwio	r3,0(r2)
 2004c00:	e0bff817 	ldw	r2,-32(fp)
 2004c04:	e0bffa15 	stw	r2,-24(fp)
 2004c08:	e0bffa17 	ldw	r2,-24(fp)
 2004c0c:	1001703a 	wrctl	status,r2
 2004c10:	e0bff517 	ldw	r2,-44(fp)
 2004c14:	1000021e 	bne	r2,zero,2004c20 <altera_avalon_uart_read+0x158>
 2004c18:	e0bffe17 	ldw	r2,-8(fp)
 2004c1c:	103fcd1e 	bne	r2,zero,2004b54 <__alt_mem_epcs_flash_controller+0xfe004354>
 2004c20:	0005303a 	rdctl	r2,status
 2004c24:	e0bffb15 	stw	r2,-20(fp)
 2004c28:	e0fffb17 	ldw	r3,-20(fp)
 2004c2c:	00bfff84 	movi	r2,-2
 2004c30:	1884703a 	and	r2,r3,r2
 2004c34:	1001703a 	wrctl	status,r2
 2004c38:	e0bffb17 	ldw	r2,-20(fp)
 2004c3c:	e0bff815 	stw	r2,-32(fp)
 2004c40:	e0bffc17 	ldw	r2,-16(fp)
 2004c44:	10800117 	ldw	r2,4(r2)
 2004c48:	10c02014 	ori	r3,r2,128
 2004c4c:	e0bffc17 	ldw	r2,-16(fp)
 2004c50:	10c00115 	stw	r3,4(r2)
 2004c54:	e0bffc17 	ldw	r2,-16(fp)
 2004c58:	10800017 	ldw	r2,0(r2)
 2004c5c:	10800304 	addi	r2,r2,12
 2004c60:	e0fffc17 	ldw	r3,-16(fp)
 2004c64:	18c00117 	ldw	r3,4(r3)
 2004c68:	10c00035 	stwio	r3,0(r2)
 2004c6c:	e0bff817 	ldw	r2,-32(fp)
 2004c70:	e0bff715 	stw	r2,-36(fp)
 2004c74:	e0bff717 	ldw	r2,-36(fp)
 2004c78:	1001703a 	wrctl	status,r2
 2004c7c:	e0bff403 	ldbu	r2,-48(fp)
 2004c80:	10000226 	beq	r2,zero,2004c8c <altera_avalon_uart_read+0x1c4>
 2004c84:	00bffd44 	movi	r2,-11
 2004c88:	00000106 	br	2004c90 <altera_avalon_uart_read+0x1c8>
 2004c8c:	e0bff517 	ldw	r2,-44(fp)
 2004c90:	e037883a 	mov	sp,fp
 2004c94:	dfc00117 	ldw	ra,4(sp)
 2004c98:	df000017 	ldw	fp,0(sp)
 2004c9c:	dec00204 	addi	sp,sp,8
 2004ca0:	f800283a 	ret

02004ca4 <alt_get_errno>:
 2004ca4:	defffe04 	addi	sp,sp,-8
 2004ca8:	dfc00115 	stw	ra,4(sp)
 2004cac:	df000015 	stw	fp,0(sp)
 2004cb0:	d839883a 	mov	fp,sp
 2004cb4:	d0a00917 	ldw	r2,-32732(gp)
 2004cb8:	10000326 	beq	r2,zero,2004cc8 <alt_get_errno+0x24>
 2004cbc:	d0a00917 	ldw	r2,-32732(gp)
 2004cc0:	103ee83a 	callr	r2
 2004cc4:	00000106 	br	2004ccc <alt_get_errno+0x28>
 2004cc8:	d0a31904 	addi	r2,gp,-29596
 2004ccc:	e037883a 	mov	sp,fp
 2004cd0:	dfc00117 	ldw	ra,4(sp)
 2004cd4:	df000017 	ldw	fp,0(sp)
 2004cd8:	dec00204 	addi	sp,sp,8
 2004cdc:	f800283a 	ret

02004ce0 <altera_avalon_uart_write>:
 2004ce0:	defff204 	addi	sp,sp,-56
 2004ce4:	dfc00d15 	stw	ra,52(sp)
 2004ce8:	df000c15 	stw	fp,48(sp)
 2004cec:	df000c04 	addi	fp,sp,48
 2004cf0:	e13ffc15 	stw	r4,-16(fp)
 2004cf4:	e17ffd15 	stw	r5,-12(fp)
 2004cf8:	e1bffe15 	stw	r6,-8(fp)
 2004cfc:	e1ffff15 	stw	r7,-4(fp)
 2004d00:	e0bffe17 	ldw	r2,-8(fp)
 2004d04:	e0bff415 	stw	r2,-48(fp)
 2004d08:	e0bfff17 	ldw	r2,-4(fp)
 2004d0c:	1090000c 	andi	r2,r2,16384
 2004d10:	e0bff515 	stw	r2,-44(fp)
 2004d14:	00003c06 	br	2004e08 <altera_avalon_uart_write+0x128>
 2004d18:	e0bffc17 	ldw	r2,-16(fp)
 2004d1c:	10800517 	ldw	r2,20(r2)
 2004d20:	10800044 	addi	r2,r2,1
 2004d24:	10800fcc 	andi	r2,r2,63
 2004d28:	e0bff715 	stw	r2,-36(fp)
 2004d2c:	e0bffc17 	ldw	r2,-16(fp)
 2004d30:	10c00417 	ldw	r3,16(r2)
 2004d34:	e0bff717 	ldw	r2,-36(fp)
 2004d38:	1880221e 	bne	r3,r2,2004dc4 <altera_avalon_uart_write+0xe4>
 2004d3c:	e0bff517 	ldw	r2,-44(fp)
 2004d40:	10000526 	beq	r2,zero,2004d58 <altera_avalon_uart_write+0x78>
 2004d44:	2004ca40 	call	2004ca4 <alt_get_errno>
 2004d48:	1007883a 	mov	r3,r2
 2004d4c:	008002c4 	movi	r2,11
 2004d50:	18800015 	stw	r2,0(r3)
 2004d54:	00002e06 	br	2004e10 <altera_avalon_uart_write+0x130>
 2004d58:	0005303a 	rdctl	r2,status
 2004d5c:	e0bff915 	stw	r2,-28(fp)
 2004d60:	e0fff917 	ldw	r3,-28(fp)
 2004d64:	00bfff84 	movi	r2,-2
 2004d68:	1884703a 	and	r2,r3,r2
 2004d6c:	1001703a 	wrctl	status,r2
 2004d70:	e0bff917 	ldw	r2,-28(fp)
 2004d74:	e0bff815 	stw	r2,-32(fp)
 2004d78:	e0bffc17 	ldw	r2,-16(fp)
 2004d7c:	10800117 	ldw	r2,4(r2)
 2004d80:	10c11014 	ori	r3,r2,1088
 2004d84:	e0bffc17 	ldw	r2,-16(fp)
 2004d88:	10c00115 	stw	r3,4(r2)
 2004d8c:	e0bffc17 	ldw	r2,-16(fp)
 2004d90:	10800017 	ldw	r2,0(r2)
 2004d94:	10800304 	addi	r2,r2,12
 2004d98:	e0fffc17 	ldw	r3,-16(fp)
 2004d9c:	18c00117 	ldw	r3,4(r3)
 2004da0:	10c00035 	stwio	r3,0(r2)
 2004da4:	e0bff817 	ldw	r2,-32(fp)
 2004da8:	e0bff615 	stw	r2,-40(fp)
 2004dac:	e0bff617 	ldw	r2,-40(fp)
 2004db0:	1001703a 	wrctl	status,r2
 2004db4:	e0bffc17 	ldw	r2,-16(fp)
 2004db8:	10c00417 	ldw	r3,16(r2)
 2004dbc:	e0bff717 	ldw	r2,-36(fp)
 2004dc0:	18bffc26 	beq	r3,r2,2004db4 <__alt_mem_epcs_flash_controller+0xfe0045b4>
 2004dc4:	e0bff417 	ldw	r2,-48(fp)
 2004dc8:	10bfffc4 	addi	r2,r2,-1
 2004dcc:	e0bff415 	stw	r2,-48(fp)
 2004dd0:	e0bffc17 	ldw	r2,-16(fp)
 2004dd4:	10c00517 	ldw	r3,20(r2)
 2004dd8:	e0bffd17 	ldw	r2,-12(fp)
 2004ddc:	11000044 	addi	r4,r2,1
 2004de0:	e13ffd15 	stw	r4,-12(fp)
 2004de4:	10800003 	ldbu	r2,0(r2)
 2004de8:	1009883a 	mov	r4,r2
 2004dec:	e0bffc17 	ldw	r2,-16(fp)
 2004df0:	10c5883a 	add	r2,r2,r3
 2004df4:	10801704 	addi	r2,r2,92
 2004df8:	11000005 	stb	r4,0(r2)
 2004dfc:	e0bffc17 	ldw	r2,-16(fp)
 2004e00:	e0fff717 	ldw	r3,-36(fp)
 2004e04:	10c00515 	stw	r3,20(r2)
 2004e08:	e0bff417 	ldw	r2,-48(fp)
 2004e0c:	103fc21e 	bne	r2,zero,2004d18 <__alt_mem_epcs_flash_controller+0xfe004518>
 2004e10:	0005303a 	rdctl	r2,status
 2004e14:	e0bffb15 	stw	r2,-20(fp)
 2004e18:	e0fffb17 	ldw	r3,-20(fp)
 2004e1c:	00bfff84 	movi	r2,-2
 2004e20:	1884703a 	and	r2,r3,r2
 2004e24:	1001703a 	wrctl	status,r2
 2004e28:	e0bffb17 	ldw	r2,-20(fp)
 2004e2c:	e0bff815 	stw	r2,-32(fp)
 2004e30:	e0bffc17 	ldw	r2,-16(fp)
 2004e34:	10800117 	ldw	r2,4(r2)
 2004e38:	10c11014 	ori	r3,r2,1088
 2004e3c:	e0bffc17 	ldw	r2,-16(fp)
 2004e40:	10c00115 	stw	r3,4(r2)
 2004e44:	e0bffc17 	ldw	r2,-16(fp)
 2004e48:	10800017 	ldw	r2,0(r2)
 2004e4c:	10800304 	addi	r2,r2,12
 2004e50:	e0fffc17 	ldw	r3,-16(fp)
 2004e54:	18c00117 	ldw	r3,4(r3)
 2004e58:	10c00035 	stwio	r3,0(r2)
 2004e5c:	e0bff817 	ldw	r2,-32(fp)
 2004e60:	e0bffa15 	stw	r2,-24(fp)
 2004e64:	e0bffa17 	ldw	r2,-24(fp)
 2004e68:	1001703a 	wrctl	status,r2
 2004e6c:	e0fffe17 	ldw	r3,-8(fp)
 2004e70:	e0bff417 	ldw	r2,-48(fp)
 2004e74:	1885c83a 	sub	r2,r3,r2
 2004e78:	e037883a 	mov	sp,fp
 2004e7c:	dfc00117 	ldw	ra,4(sp)
 2004e80:	df000017 	ldw	fp,0(sp)
 2004e84:	dec00204 	addi	sp,sp,8
 2004e88:	f800283a 	ret

02004e8c <epcs_read_status_register>:
 2004e8c:	defff904 	addi	sp,sp,-28
 2004e90:	dfc00615 	stw	ra,24(sp)
 2004e94:	df000515 	stw	fp,20(sp)
 2004e98:	df000504 	addi	fp,sp,20
 2004e9c:	e13fff15 	stw	r4,-4(fp)
 2004ea0:	00800144 	movi	r2,5
 2004ea4:	e0bffe05 	stb	r2,-8(fp)
 2004ea8:	d8000215 	stw	zero,8(sp)
 2004eac:	e0bffe44 	addi	r2,fp,-7
 2004eb0:	d8800115 	stw	r2,4(sp)
 2004eb4:	00800044 	movi	r2,1
 2004eb8:	d8800015 	stw	r2,0(sp)
 2004ebc:	e1fffe04 	addi	r7,fp,-8
 2004ec0:	01800044 	movi	r6,1
 2004ec4:	000b883a 	mov	r5,zero
 2004ec8:	e13fff17 	ldw	r4,-4(fp)
 2004ecc:	2005df80 	call	2005df8 <alt_avalon_spi_command>
 2004ed0:	e0bffe43 	ldbu	r2,-7(fp)
 2004ed4:	e037883a 	mov	sp,fp
 2004ed8:	dfc00117 	ldw	ra,4(sp)
 2004edc:	df000017 	ldw	fp,0(sp)
 2004ee0:	dec00204 	addi	sp,sp,8
 2004ee4:	f800283a 	ret

02004ee8 <epcs_test_wip>:
 2004ee8:	defffd04 	addi	sp,sp,-12
 2004eec:	dfc00215 	stw	ra,8(sp)
 2004ef0:	df000115 	stw	fp,4(sp)
 2004ef4:	df000104 	addi	fp,sp,4
 2004ef8:	e13fff15 	stw	r4,-4(fp)
 2004efc:	e13fff17 	ldw	r4,-4(fp)
 2004f00:	2004e8c0 	call	2004e8c <epcs_read_status_register>
 2004f04:	10803fcc 	andi	r2,r2,255
 2004f08:	1080004c 	andi	r2,r2,1
 2004f0c:	e037883a 	mov	sp,fp
 2004f10:	dfc00117 	ldw	ra,4(sp)
 2004f14:	df000017 	ldw	fp,0(sp)
 2004f18:	dec00204 	addi	sp,sp,8
 2004f1c:	f800283a 	ret

02004f20 <epcs_await_wip_released>:
 2004f20:	defffd04 	addi	sp,sp,-12
 2004f24:	dfc00215 	stw	ra,8(sp)
 2004f28:	df000115 	stw	fp,4(sp)
 2004f2c:	df000104 	addi	fp,sp,4
 2004f30:	e13fff15 	stw	r4,-4(fp)
 2004f34:	0001883a 	nop
 2004f38:	e13fff17 	ldw	r4,-4(fp)
 2004f3c:	2004ee80 	call	2004ee8 <epcs_test_wip>
 2004f40:	103ffd1e 	bne	r2,zero,2004f38 <__alt_mem_epcs_flash_controller+0xfe004738>
 2004f44:	0001883a 	nop
 2004f48:	e037883a 	mov	sp,fp
 2004f4c:	dfc00117 	ldw	ra,4(sp)
 2004f50:	df000017 	ldw	fp,0(sp)
 2004f54:	dec00204 	addi	sp,sp,8
 2004f58:	f800283a 	ret

02004f5c <epcs_sector_erase>:
 2004f5c:	defff604 	addi	sp,sp,-40
 2004f60:	dfc00915 	stw	ra,36(sp)
 2004f64:	df000815 	stw	fp,32(sp)
 2004f68:	df000804 	addi	fp,sp,32
 2004f6c:	e13ffd15 	stw	r4,-12(fp)
 2004f70:	e17ffe15 	stw	r5,-8(fp)
 2004f74:	e1bfff15 	stw	r6,-4(fp)
 2004f78:	e0bfff17 	ldw	r2,-4(fp)
 2004f7c:	10001226 	beq	r2,zero,2004fc8 <epcs_sector_erase+0x6c>
 2004f80:	00bff604 	movi	r2,-40
 2004f84:	e0bffb45 	stb	r2,-19(fp)
 2004f88:	e0bffe17 	ldw	r2,-8(fp)
 2004f8c:	1004d63a 	srli	r2,r2,24
 2004f90:	e0bffb85 	stb	r2,-18(fp)
 2004f94:	e0bffe17 	ldw	r2,-8(fp)
 2004f98:	1004d43a 	srli	r2,r2,16
 2004f9c:	e0bffbc5 	stb	r2,-17(fp)
 2004fa0:	e0bffe17 	ldw	r2,-8(fp)
 2004fa4:	1004d23a 	srli	r2,r2,8
 2004fa8:	e0bffc05 	stb	r2,-16(fp)
 2004fac:	e0bffe17 	ldw	r2,-8(fp)
 2004fb0:	e0bffc45 	stb	r2,-15(fp)
 2004fb4:	00800144 	movi	r2,5
 2004fb8:	e0bffb05 	stb	r2,-20(fp)
 2004fbc:	e13ffd17 	ldw	r4,-12(fp)
 2004fc0:	20054100 	call	2005410 <epcs_enter_4_bytes_mode>
 2004fc4:	00000c06 	br	2004ff8 <epcs_sector_erase+0x9c>
 2004fc8:	00bff604 	movi	r2,-40
 2004fcc:	e0bffb45 	stb	r2,-19(fp)
 2004fd0:	e0bffe17 	ldw	r2,-8(fp)
 2004fd4:	1004d43a 	srli	r2,r2,16
 2004fd8:	e0bffb85 	stb	r2,-18(fp)
 2004fdc:	e0bffe17 	ldw	r2,-8(fp)
 2004fe0:	1004d23a 	srli	r2,r2,8
 2004fe4:	e0bffbc5 	stb	r2,-17(fp)
 2004fe8:	e0bffe17 	ldw	r2,-8(fp)
 2004fec:	e0bffc05 	stb	r2,-16(fp)
 2004ff0:	00800104 	movi	r2,4
 2004ff4:	e0bffb05 	stb	r2,-20(fp)
 2004ff8:	e13ffd17 	ldw	r4,-12(fp)
 2004ffc:	200514c0 	call	200514c <epcs_write_enable>
 2005000:	e0bffb03 	ldbu	r2,-20(fp)
 2005004:	e0fffb44 	addi	r3,fp,-19
 2005008:	d8000215 	stw	zero,8(sp)
 200500c:	d8000115 	stw	zero,4(sp)
 2005010:	d8000015 	stw	zero,0(sp)
 2005014:	180f883a 	mov	r7,r3
 2005018:	100d883a 	mov	r6,r2
 200501c:	000b883a 	mov	r5,zero
 2005020:	e13ffd17 	ldw	r4,-12(fp)
 2005024:	2005df80 	call	2005df8 <alt_avalon_spi_command>
 2005028:	e13ffd17 	ldw	r4,-12(fp)
 200502c:	2004f200 	call	2004f20 <epcs_await_wip_released>
 2005030:	e0bfff17 	ldw	r2,-4(fp)
 2005034:	10000226 	beq	r2,zero,2005040 <epcs_sector_erase+0xe4>
 2005038:	e13ffd17 	ldw	r4,-12(fp)
 200503c:	200546c0 	call	200546c <epcs_exit_4_bytes_mode>
 2005040:	0001883a 	nop
 2005044:	e037883a 	mov	sp,fp
 2005048:	dfc00117 	ldw	ra,4(sp)
 200504c:	df000017 	ldw	fp,0(sp)
 2005050:	dec00204 	addi	sp,sp,8
 2005054:	f800283a 	ret

02005058 <epcs_read_buffer>:
 2005058:	defff404 	addi	sp,sp,-48
 200505c:	dfc00b15 	stw	ra,44(sp)
 2005060:	df000a15 	stw	fp,40(sp)
 2005064:	df000a04 	addi	fp,sp,40
 2005068:	e13ffc15 	stw	r4,-16(fp)
 200506c:	e17ffd15 	stw	r5,-12(fp)
 2005070:	e1bffe15 	stw	r6,-8(fp)
 2005074:	e1ffff15 	stw	r7,-4(fp)
 2005078:	008000c4 	movi	r2,3
 200507c:	e0bffa05 	stb	r2,-24(fp)
 2005080:	e0800217 	ldw	r2,8(fp)
 2005084:	10001026 	beq	r2,zero,20050c8 <epcs_read_buffer+0x70>
 2005088:	e0bffd17 	ldw	r2,-12(fp)
 200508c:	1004d63a 	srli	r2,r2,24
 2005090:	e0bffa45 	stb	r2,-23(fp)
 2005094:	e0bffd17 	ldw	r2,-12(fp)
 2005098:	1005d43a 	srai	r2,r2,16
 200509c:	e0bffa85 	stb	r2,-22(fp)
 20050a0:	e0bffd17 	ldw	r2,-12(fp)
 20050a4:	1005d23a 	srai	r2,r2,8
 20050a8:	e0bffac5 	stb	r2,-21(fp)
 20050ac:	e0bffd17 	ldw	r2,-12(fp)
 20050b0:	e0bffb05 	stb	r2,-20(fp)
 20050b4:	00800144 	movi	r2,5
 20050b8:	e0bff915 	stw	r2,-28(fp)
 20050bc:	e13ffc17 	ldw	r4,-16(fp)
 20050c0:	20054100 	call	2005410 <epcs_enter_4_bytes_mode>
 20050c4:	00000a06 	br	20050f0 <epcs_read_buffer+0x98>
 20050c8:	e0bffd17 	ldw	r2,-12(fp)
 20050cc:	1005d43a 	srai	r2,r2,16
 20050d0:	e0bffa45 	stb	r2,-23(fp)
 20050d4:	e0bffd17 	ldw	r2,-12(fp)
 20050d8:	1005d23a 	srai	r2,r2,8
 20050dc:	e0bffa85 	stb	r2,-22(fp)
 20050e0:	e0bffd17 	ldw	r2,-12(fp)
 20050e4:	e0bffac5 	stb	r2,-21(fp)
 20050e8:	00800104 	movi	r2,4
 20050ec:	e0bff915 	stw	r2,-28(fp)
 20050f0:	e13ffc17 	ldw	r4,-16(fp)
 20050f4:	2004f200 	call	2004f20 <epcs_await_wip_released>
 20050f8:	e0bfff17 	ldw	r2,-4(fp)
 20050fc:	e13ffa04 	addi	r4,fp,-24
 2005100:	d8000215 	stw	zero,8(sp)
 2005104:	e0fffe17 	ldw	r3,-8(fp)
 2005108:	d8c00115 	stw	r3,4(sp)
 200510c:	d8800015 	stw	r2,0(sp)
 2005110:	200f883a 	mov	r7,r4
 2005114:	e1bff917 	ldw	r6,-28(fp)
 2005118:	000b883a 	mov	r5,zero
 200511c:	e13ffc17 	ldw	r4,-16(fp)
 2005120:	2005df80 	call	2005df8 <alt_avalon_spi_command>
 2005124:	e0800217 	ldw	r2,8(fp)
 2005128:	10000226 	beq	r2,zero,2005134 <epcs_read_buffer+0xdc>
 200512c:	e13ffc17 	ldw	r4,-16(fp)
 2005130:	200546c0 	call	200546c <epcs_exit_4_bytes_mode>
 2005134:	e0bfff17 	ldw	r2,-4(fp)
 2005138:	e037883a 	mov	sp,fp
 200513c:	dfc00117 	ldw	ra,4(sp)
 2005140:	df000017 	ldw	fp,0(sp)
 2005144:	dec00204 	addi	sp,sp,8
 2005148:	f800283a 	ret

0200514c <epcs_write_enable>:
 200514c:	defff904 	addi	sp,sp,-28
 2005150:	dfc00615 	stw	ra,24(sp)
 2005154:	df000515 	stw	fp,20(sp)
 2005158:	df000504 	addi	fp,sp,20
 200515c:	e13fff15 	stw	r4,-4(fp)
 2005160:	00800184 	movi	r2,6
 2005164:	e0bffe05 	stb	r2,-8(fp)
 2005168:	d8000215 	stw	zero,8(sp)
 200516c:	d8000115 	stw	zero,4(sp)
 2005170:	d8000015 	stw	zero,0(sp)
 2005174:	e1fffe04 	addi	r7,fp,-8
 2005178:	01800044 	movi	r6,1
 200517c:	000b883a 	mov	r5,zero
 2005180:	e13fff17 	ldw	r4,-4(fp)
 2005184:	2005df80 	call	2005df8 <alt_avalon_spi_command>
 2005188:	0001883a 	nop
 200518c:	e037883a 	mov	sp,fp
 2005190:	dfc00117 	ldw	ra,4(sp)
 2005194:	df000017 	ldw	fp,0(sp)
 2005198:	dec00204 	addi	sp,sp,8
 200519c:	f800283a 	ret

020051a0 <epcs_write_status_register>:
 20051a0:	defff804 	addi	sp,sp,-32
 20051a4:	dfc00715 	stw	ra,28(sp)
 20051a8:	df000615 	stw	fp,24(sp)
 20051ac:	df000604 	addi	fp,sp,24
 20051b0:	e13ffe15 	stw	r4,-8(fp)
 20051b4:	2805883a 	mov	r2,r5
 20051b8:	e0bfff05 	stb	r2,-4(fp)
 20051bc:	00800044 	movi	r2,1
 20051c0:	e0bffd05 	stb	r2,-12(fp)
 20051c4:	e0bfff03 	ldbu	r2,-4(fp)
 20051c8:	e0bffd45 	stb	r2,-11(fp)
 20051cc:	d8000215 	stw	zero,8(sp)
 20051d0:	d8000115 	stw	zero,4(sp)
 20051d4:	d8000015 	stw	zero,0(sp)
 20051d8:	e1fffd04 	addi	r7,fp,-12
 20051dc:	01800084 	movi	r6,2
 20051e0:	000b883a 	mov	r5,zero
 20051e4:	e13ffe17 	ldw	r4,-8(fp)
 20051e8:	2005df80 	call	2005df8 <alt_avalon_spi_command>
 20051ec:	e13ffe17 	ldw	r4,-8(fp)
 20051f0:	2004f200 	call	2004f20 <epcs_await_wip_released>
 20051f4:	0001883a 	nop
 20051f8:	e037883a 	mov	sp,fp
 20051fc:	dfc00117 	ldw	ra,4(sp)
 2005200:	df000017 	ldw	fp,0(sp)
 2005204:	dec00204 	addi	sp,sp,8
 2005208:	f800283a 	ret

0200520c <epcs_write_buffer>:
 200520c:	defff404 	addi	sp,sp,-48
 2005210:	dfc00b15 	stw	ra,44(sp)
 2005214:	df000a15 	stw	fp,40(sp)
 2005218:	df000a04 	addi	fp,sp,40
 200521c:	e13ffc15 	stw	r4,-16(fp)
 2005220:	e17ffd15 	stw	r5,-12(fp)
 2005224:	e1bffe15 	stw	r6,-8(fp)
 2005228:	e1ffff15 	stw	r7,-4(fp)
 200522c:	00800084 	movi	r2,2
 2005230:	e0bffa05 	stb	r2,-24(fp)
 2005234:	e0800217 	ldw	r2,8(fp)
 2005238:	10001026 	beq	r2,zero,200527c <epcs_write_buffer+0x70>
 200523c:	e0bffd17 	ldw	r2,-12(fp)
 2005240:	1004d63a 	srli	r2,r2,24
 2005244:	e0bffa45 	stb	r2,-23(fp)
 2005248:	e0bffd17 	ldw	r2,-12(fp)
 200524c:	1005d43a 	srai	r2,r2,16
 2005250:	e0bffa85 	stb	r2,-22(fp)
 2005254:	e0bffd17 	ldw	r2,-12(fp)
 2005258:	1005d23a 	srai	r2,r2,8
 200525c:	e0bffac5 	stb	r2,-21(fp)
 2005260:	e0bffd17 	ldw	r2,-12(fp)
 2005264:	e0bffb05 	stb	r2,-20(fp)
 2005268:	00800144 	movi	r2,5
 200526c:	e0bff915 	stw	r2,-28(fp)
 2005270:	e13ffc17 	ldw	r4,-16(fp)
 2005274:	20054100 	call	2005410 <epcs_enter_4_bytes_mode>
 2005278:	00000a06 	br	20052a4 <epcs_write_buffer+0x98>
 200527c:	e0bffd17 	ldw	r2,-12(fp)
 2005280:	1005d43a 	srai	r2,r2,16
 2005284:	e0bffa45 	stb	r2,-23(fp)
 2005288:	e0bffd17 	ldw	r2,-12(fp)
 200528c:	1005d23a 	srai	r2,r2,8
 2005290:	e0bffa85 	stb	r2,-22(fp)
 2005294:	e0bffd17 	ldw	r2,-12(fp)
 2005298:	e0bffac5 	stb	r2,-21(fp)
 200529c:	00800104 	movi	r2,4
 20052a0:	e0bff915 	stw	r2,-28(fp)
 20052a4:	e13ffc17 	ldw	r4,-16(fp)
 20052a8:	200514c0 	call	200514c <epcs_write_enable>
 20052ac:	e0fffa04 	addi	r3,fp,-24
 20052b0:	00800044 	movi	r2,1
 20052b4:	d8800215 	stw	r2,8(sp)
 20052b8:	d8000115 	stw	zero,4(sp)
 20052bc:	d8000015 	stw	zero,0(sp)
 20052c0:	180f883a 	mov	r7,r3
 20052c4:	e1bff917 	ldw	r6,-28(fp)
 20052c8:	000b883a 	mov	r5,zero
 20052cc:	e13ffc17 	ldw	r4,-16(fp)
 20052d0:	2005df80 	call	2005df8 <alt_avalon_spi_command>
 20052d4:	e0bfff17 	ldw	r2,-4(fp)
 20052d8:	d8000215 	stw	zero,8(sp)
 20052dc:	d8000115 	stw	zero,4(sp)
 20052e0:	d8000015 	stw	zero,0(sp)
 20052e4:	e1fffe17 	ldw	r7,-8(fp)
 20052e8:	100d883a 	mov	r6,r2
 20052ec:	000b883a 	mov	r5,zero
 20052f0:	e13ffc17 	ldw	r4,-16(fp)
 20052f4:	2005df80 	call	2005df8 <alt_avalon_spi_command>
 20052f8:	e13ffc17 	ldw	r4,-16(fp)
 20052fc:	2004f200 	call	2004f20 <epcs_await_wip_released>
 2005300:	e0800217 	ldw	r2,8(fp)
 2005304:	10000226 	beq	r2,zero,2005310 <epcs_write_buffer+0x104>
 2005308:	e13ffc17 	ldw	r4,-16(fp)
 200530c:	200546c0 	call	200546c <epcs_exit_4_bytes_mode>
 2005310:	e0bfff17 	ldw	r2,-4(fp)
 2005314:	e037883a 	mov	sp,fp
 2005318:	dfc00117 	ldw	ra,4(sp)
 200531c:	df000017 	ldw	fp,0(sp)
 2005320:	dec00204 	addi	sp,sp,8
 2005324:	f800283a 	ret

02005328 <epcs_read_electronic_signature>:
 2005328:	defff804 	addi	sp,sp,-32
 200532c:	dfc00715 	stw	ra,28(sp)
 2005330:	df000615 	stw	fp,24(sp)
 2005334:	df000604 	addi	fp,sp,24
 2005338:	e13fff15 	stw	r4,-4(fp)
 200533c:	00bfeac4 	movi	r2,-85
 2005340:	e0bffd05 	stb	r2,-12(fp)
 2005344:	e03ffd45 	stb	zero,-11(fp)
 2005348:	e03ffd85 	stb	zero,-10(fp)
 200534c:	e03ffdc5 	stb	zero,-9(fp)
 2005350:	d8000215 	stw	zero,8(sp)
 2005354:	e0bffe04 	addi	r2,fp,-8
 2005358:	d8800115 	stw	r2,4(sp)
 200535c:	00800044 	movi	r2,1
 2005360:	d8800015 	stw	r2,0(sp)
 2005364:	e1fffd04 	addi	r7,fp,-12
 2005368:	01800104 	movi	r6,4
 200536c:	000b883a 	mov	r5,zero
 2005370:	e13fff17 	ldw	r4,-4(fp)
 2005374:	2005df80 	call	2005df8 <alt_avalon_spi_command>
 2005378:	e0bffe03 	ldbu	r2,-8(fp)
 200537c:	e037883a 	mov	sp,fp
 2005380:	dfc00117 	ldw	ra,4(sp)
 2005384:	df000017 	ldw	fp,0(sp)
 2005388:	dec00204 	addi	sp,sp,8
 200538c:	f800283a 	ret

02005390 <epcs_read_device_id>:
 2005390:	defff904 	addi	sp,sp,-28
 2005394:	dfc00615 	stw	ra,24(sp)
 2005398:	df000515 	stw	fp,20(sp)
 200539c:	df000504 	addi	fp,sp,20
 20053a0:	e13fff15 	stw	r4,-4(fp)
 20053a4:	00bfe7c4 	movi	r2,-97
 20053a8:	e0bffe05 	stb	r2,-8(fp)
 20053ac:	d8000215 	stw	zero,8(sp)
 20053b0:	e0bffe44 	addi	r2,fp,-7
 20053b4:	d8800115 	stw	r2,4(sp)
 20053b8:	008000c4 	movi	r2,3
 20053bc:	d8800015 	stw	r2,0(sp)
 20053c0:	e1fffe04 	addi	r7,fp,-8
 20053c4:	01800044 	movi	r6,1
 20053c8:	000b883a 	mov	r5,zero
 20053cc:	e13fff17 	ldw	r4,-4(fp)
 20053d0:	2005df80 	call	2005df8 <alt_avalon_spi_command>
 20053d4:	e0bffe43 	ldbu	r2,-7(fp)
 20053d8:	10803fcc 	andi	r2,r2,255
 20053dc:	1006943a 	slli	r3,r2,16
 20053e0:	e0bffe83 	ldbu	r2,-6(fp)
 20053e4:	10803fcc 	andi	r2,r2,255
 20053e8:	1004923a 	slli	r2,r2,8
 20053ec:	1886b03a 	or	r3,r3,r2
 20053f0:	e0bffec3 	ldbu	r2,-5(fp)
 20053f4:	10803fcc 	andi	r2,r2,255
 20053f8:	1884b03a 	or	r2,r3,r2
 20053fc:	e037883a 	mov	sp,fp
 2005400:	dfc00117 	ldw	ra,4(sp)
 2005404:	df000017 	ldw	fp,0(sp)
 2005408:	dec00204 	addi	sp,sp,8
 200540c:	f800283a 	ret

02005410 <epcs_enter_4_bytes_mode>:
 2005410:	defff904 	addi	sp,sp,-28
 2005414:	dfc00615 	stw	ra,24(sp)
 2005418:	df000515 	stw	fp,20(sp)
 200541c:	df000504 	addi	fp,sp,20
 2005420:	e13fff15 	stw	r4,-4(fp)
 2005424:	00bfedc4 	movi	r2,-73
 2005428:	e0bffe05 	stb	r2,-8(fp)
 200542c:	e13fff17 	ldw	r4,-4(fp)
 2005430:	200514c0 	call	200514c <epcs_write_enable>
 2005434:	d8000215 	stw	zero,8(sp)
 2005438:	d8000115 	stw	zero,4(sp)
 200543c:	d8000015 	stw	zero,0(sp)
 2005440:	e1fffe04 	addi	r7,fp,-8
 2005444:	01800044 	movi	r6,1
 2005448:	000b883a 	mov	r5,zero
 200544c:	e13fff17 	ldw	r4,-4(fp)
 2005450:	2005df80 	call	2005df8 <alt_avalon_spi_command>
 2005454:	0001883a 	nop
 2005458:	e037883a 	mov	sp,fp
 200545c:	dfc00117 	ldw	ra,4(sp)
 2005460:	df000017 	ldw	fp,0(sp)
 2005464:	dec00204 	addi	sp,sp,8
 2005468:	f800283a 	ret

0200546c <epcs_exit_4_bytes_mode>:
 200546c:	defff904 	addi	sp,sp,-28
 2005470:	dfc00615 	stw	ra,24(sp)
 2005474:	df000515 	stw	fp,20(sp)
 2005478:	df000504 	addi	fp,sp,20
 200547c:	e13fff15 	stw	r4,-4(fp)
 2005480:	00bffa44 	movi	r2,-23
 2005484:	e0bffe05 	stb	r2,-8(fp)
 2005488:	e13fff17 	ldw	r4,-4(fp)
 200548c:	200514c0 	call	200514c <epcs_write_enable>
 2005490:	d8000215 	stw	zero,8(sp)
 2005494:	d8000115 	stw	zero,4(sp)
 2005498:	d8000015 	stw	zero,0(sp)
 200549c:	e1fffe04 	addi	r7,fp,-8
 20054a0:	01800044 	movi	r6,1
 20054a4:	000b883a 	mov	r5,zero
 20054a8:	e13fff17 	ldw	r4,-4(fp)
 20054ac:	2005df80 	call	2005df8 <alt_avalon_spi_command>
 20054b0:	0001883a 	nop
 20054b4:	e037883a 	mov	sp,fp
 20054b8:	dfc00117 	ldw	ra,4(sp)
 20054bc:	df000017 	ldw	fp,0(sp)
 20054c0:	dec00204 	addi	sp,sp,8
 20054c4:	f800283a 	ret

020054c8 <alt_dcache_flush_all>:
 20054c8:	defffe04 	addi	sp,sp,-8
 20054cc:	df000115 	stw	fp,4(sp)
 20054d0:	df000104 	addi	fp,sp,4
 20054d4:	e03fff15 	stw	zero,-4(fp)
 20054d8:	00000506 	br	20054f0 <alt_dcache_flush_all+0x28>
 20054dc:	e0bfff17 	ldw	r2,-4(fp)
 20054e0:	1000003b 	flushd	0(r2)
 20054e4:	e0bfff17 	ldw	r2,-4(fp)
 20054e8:	10800804 	addi	r2,r2,32
 20054ec:	e0bfff15 	stw	r2,-4(fp)
 20054f0:	e0bfff17 	ldw	r2,-4(fp)
 20054f4:	10840030 	cmpltui	r2,r2,4096
 20054f8:	103ff81e 	bne	r2,zero,20054dc <__alt_mem_epcs_flash_controller+0xfe004cdc>
 20054fc:	0001883a 	nop
 2005500:	e037883a 	mov	sp,fp
 2005504:	df000017 	ldw	fp,0(sp)
 2005508:	dec00104 	addi	sp,sp,4
 200550c:	f800283a 	ret

02005510 <alt_get_errno>:
 2005510:	defffe04 	addi	sp,sp,-8
 2005514:	dfc00115 	stw	ra,4(sp)
 2005518:	df000015 	stw	fp,0(sp)
 200551c:	d839883a 	mov	fp,sp
 2005520:	d0a00917 	ldw	r2,-32732(gp)
 2005524:	10000326 	beq	r2,zero,2005534 <alt_get_errno+0x24>
 2005528:	d0a00917 	ldw	r2,-32732(gp)
 200552c:	103ee83a 	callr	r2
 2005530:	00000106 	br	2005538 <alt_get_errno+0x28>
 2005534:	d0a31904 	addi	r2,gp,-29596
 2005538:	e037883a 	mov	sp,fp
 200553c:	dfc00117 	ldw	ra,4(sp)
 2005540:	df000017 	ldw	fp,0(sp)
 2005544:	dec00204 	addi	sp,sp,8
 2005548:	f800283a 	ret

0200554c <alt_dev_llist_insert>:
 200554c:	defffa04 	addi	sp,sp,-24
 2005550:	dfc00515 	stw	ra,20(sp)
 2005554:	df000415 	stw	fp,16(sp)
 2005558:	df000404 	addi	fp,sp,16
 200555c:	e13ffe15 	stw	r4,-8(fp)
 2005560:	e17fff15 	stw	r5,-4(fp)
 2005564:	e0bffe17 	ldw	r2,-8(fp)
 2005568:	10000326 	beq	r2,zero,2005578 <alt_dev_llist_insert+0x2c>
 200556c:	e0bffe17 	ldw	r2,-8(fp)
 2005570:	10800217 	ldw	r2,8(r2)
 2005574:	1000061e 	bne	r2,zero,2005590 <alt_dev_llist_insert+0x44>
 2005578:	20055100 	call	2005510 <alt_get_errno>
 200557c:	1007883a 	mov	r3,r2
 2005580:	00800584 	movi	r2,22
 2005584:	18800015 	stw	r2,0(r3)
 2005588:	00bffa84 	movi	r2,-22
 200558c:	00001306 	br	20055dc <alt_dev_llist_insert+0x90>
 2005590:	e0bffe17 	ldw	r2,-8(fp)
 2005594:	e0ffff17 	ldw	r3,-4(fp)
 2005598:	e0fffc15 	stw	r3,-16(fp)
 200559c:	e0bffd15 	stw	r2,-12(fp)
 20055a0:	e0bffd17 	ldw	r2,-12(fp)
 20055a4:	e0fffc17 	ldw	r3,-16(fp)
 20055a8:	10c00115 	stw	r3,4(r2)
 20055ac:	e0bffc17 	ldw	r2,-16(fp)
 20055b0:	10c00017 	ldw	r3,0(r2)
 20055b4:	e0bffd17 	ldw	r2,-12(fp)
 20055b8:	10c00015 	stw	r3,0(r2)
 20055bc:	e0bffc17 	ldw	r2,-16(fp)
 20055c0:	10800017 	ldw	r2,0(r2)
 20055c4:	e0fffd17 	ldw	r3,-12(fp)
 20055c8:	10c00115 	stw	r3,4(r2)
 20055cc:	e0bffc17 	ldw	r2,-16(fp)
 20055d0:	e0fffd17 	ldw	r3,-12(fp)
 20055d4:	10c00015 	stw	r3,0(r2)
 20055d8:	0005883a 	mov	r2,zero
 20055dc:	e037883a 	mov	sp,fp
 20055e0:	dfc00117 	ldw	ra,4(sp)
 20055e4:	df000017 	ldw	fp,0(sp)
 20055e8:	dec00204 	addi	sp,sp,8
 20055ec:	f800283a 	ret

020055f0 <_do_ctors>:
 20055f0:	defffd04 	addi	sp,sp,-12
 20055f4:	dfc00215 	stw	ra,8(sp)
 20055f8:	df000115 	stw	fp,4(sp)
 20055fc:	df000104 	addi	fp,sp,4
 2005600:	00808034 	movhi	r2,512
 2005604:	1099bb04 	addi	r2,r2,26348
 2005608:	e0bfff15 	stw	r2,-4(fp)
 200560c:	00000606 	br	2005628 <_do_ctors+0x38>
 2005610:	e0bfff17 	ldw	r2,-4(fp)
 2005614:	10800017 	ldw	r2,0(r2)
 2005618:	103ee83a 	callr	r2
 200561c:	e0bfff17 	ldw	r2,-4(fp)
 2005620:	10bfff04 	addi	r2,r2,-4
 2005624:	e0bfff15 	stw	r2,-4(fp)
 2005628:	e0ffff17 	ldw	r3,-4(fp)
 200562c:	00808034 	movhi	r2,512
 2005630:	1099bc04 	addi	r2,r2,26352
 2005634:	18bff62e 	bgeu	r3,r2,2005610 <__alt_mem_epcs_flash_controller+0xfe004e10>
 2005638:	0001883a 	nop
 200563c:	e037883a 	mov	sp,fp
 2005640:	dfc00117 	ldw	ra,4(sp)
 2005644:	df000017 	ldw	fp,0(sp)
 2005648:	dec00204 	addi	sp,sp,8
 200564c:	f800283a 	ret

02005650 <_do_dtors>:
 2005650:	defffd04 	addi	sp,sp,-12
 2005654:	dfc00215 	stw	ra,8(sp)
 2005658:	df000115 	stw	fp,4(sp)
 200565c:	df000104 	addi	fp,sp,4
 2005660:	00808034 	movhi	r2,512
 2005664:	1099bb04 	addi	r2,r2,26348
 2005668:	e0bfff15 	stw	r2,-4(fp)
 200566c:	00000606 	br	2005688 <_do_dtors+0x38>
 2005670:	e0bfff17 	ldw	r2,-4(fp)
 2005674:	10800017 	ldw	r2,0(r2)
 2005678:	103ee83a 	callr	r2
 200567c:	e0bfff17 	ldw	r2,-4(fp)
 2005680:	10bfff04 	addi	r2,r2,-4
 2005684:	e0bfff15 	stw	r2,-4(fp)
 2005688:	e0ffff17 	ldw	r3,-4(fp)
 200568c:	00808034 	movhi	r2,512
 2005690:	1099bc04 	addi	r2,r2,26352
 2005694:	18bff62e 	bgeu	r3,r2,2005670 <__alt_mem_epcs_flash_controller+0xfe004e70>
 2005698:	0001883a 	nop
 200569c:	e037883a 	mov	sp,fp
 20056a0:	dfc00117 	ldw	ra,4(sp)
 20056a4:	df000017 	ldw	fp,0(sp)
 20056a8:	dec00204 	addi	sp,sp,8
 20056ac:	f800283a 	ret

020056b0 <alt_flash_open_dev>:
 20056b0:	defffc04 	addi	sp,sp,-16
 20056b4:	dfc00315 	stw	ra,12(sp)
 20056b8:	df000215 	stw	fp,8(sp)
 20056bc:	df000204 	addi	fp,sp,8
 20056c0:	e13fff15 	stw	r4,-4(fp)
 20056c4:	d1600b04 	addi	r5,gp,-32724
 20056c8:	e13fff17 	ldw	r4,-4(fp)
 20056cc:	2005ff40 	call	2005ff4 <alt_find_dev>
 20056d0:	e0bffe15 	stw	r2,-8(fp)
 20056d4:	e0bffe17 	ldw	r2,-8(fp)
 20056d8:	10000926 	beq	r2,zero,2005700 <alt_flash_open_dev+0x50>
 20056dc:	e0bffe17 	ldw	r2,-8(fp)
 20056e0:	10800317 	ldw	r2,12(r2)
 20056e4:	10000626 	beq	r2,zero,2005700 <alt_flash_open_dev+0x50>
 20056e8:	e0bffe17 	ldw	r2,-8(fp)
 20056ec:	10800317 	ldw	r2,12(r2)
 20056f0:	e17fff17 	ldw	r5,-4(fp)
 20056f4:	e13ffe17 	ldw	r4,-8(fp)
 20056f8:	103ee83a 	callr	r2
 20056fc:	00000106 	br	2005704 <alt_flash_open_dev+0x54>
 2005700:	e0bffe17 	ldw	r2,-8(fp)
 2005704:	e037883a 	mov	sp,fp
 2005708:	dfc00117 	ldw	ra,4(sp)
 200570c:	df000017 	ldw	fp,0(sp)
 2005710:	dec00204 	addi	sp,sp,8
 2005714:	f800283a 	ret

02005718 <alt_flash_close_dev>:
 2005718:	defffd04 	addi	sp,sp,-12
 200571c:	dfc00215 	stw	ra,8(sp)
 2005720:	df000115 	stw	fp,4(sp)
 2005724:	df000104 	addi	fp,sp,4
 2005728:	e13fff15 	stw	r4,-4(fp)
 200572c:	e0bfff17 	ldw	r2,-4(fp)
 2005730:	10000826 	beq	r2,zero,2005754 <alt_flash_close_dev+0x3c>
 2005734:	e0bfff17 	ldw	r2,-4(fp)
 2005738:	10800417 	ldw	r2,16(r2)
 200573c:	10000526 	beq	r2,zero,2005754 <alt_flash_close_dev+0x3c>
 2005740:	e0bfff17 	ldw	r2,-4(fp)
 2005744:	10800417 	ldw	r2,16(r2)
 2005748:	e13fff17 	ldw	r4,-4(fp)
 200574c:	103ee83a 	callr	r2
 2005750:	0001883a 	nop
 2005754:	0001883a 	nop
 2005758:	e037883a 	mov	sp,fp
 200575c:	dfc00117 	ldw	ra,4(sp)
 2005760:	df000017 	ldw	fp,0(sp)
 2005764:	dec00204 	addi	sp,sp,8
 2005768:	f800283a 	ret

0200576c <alt_icache_flush_all>:
 200576c:	defffe04 	addi	sp,sp,-8
 2005770:	dfc00115 	stw	ra,4(sp)
 2005774:	df000015 	stw	fp,0(sp)
 2005778:	d839883a 	mov	fp,sp
 200577c:	01480004 	movi	r5,8192
 2005780:	0009883a 	mov	r4,zero
 2005784:	20062300 	call	2006230 <alt_icache_flush>
 2005788:	0001883a 	nop
 200578c:	e037883a 	mov	sp,fp
 2005790:	dfc00117 	ldw	ra,4(sp)
 2005794:	df000017 	ldw	fp,0(sp)
 2005798:	dec00204 	addi	sp,sp,8
 200579c:	f800283a 	ret

020057a0 <alt_ic_isr_register>:
 20057a0:	defff904 	addi	sp,sp,-28
 20057a4:	dfc00615 	stw	ra,24(sp)
 20057a8:	df000515 	stw	fp,20(sp)
 20057ac:	df000504 	addi	fp,sp,20
 20057b0:	e13ffc15 	stw	r4,-16(fp)
 20057b4:	e17ffd15 	stw	r5,-12(fp)
 20057b8:	e1bffe15 	stw	r6,-8(fp)
 20057bc:	e1ffff15 	stw	r7,-4(fp)
 20057c0:	e0800217 	ldw	r2,8(fp)
 20057c4:	d8800015 	stw	r2,0(sp)
 20057c8:	e1ffff17 	ldw	r7,-4(fp)
 20057cc:	e1bffe17 	ldw	r6,-8(fp)
 20057d0:	e17ffd17 	ldw	r5,-12(fp)
 20057d4:	e13ffc17 	ldw	r4,-16(fp)
 20057d8:	20059500 	call	2005950 <alt_iic_isr_register>
 20057dc:	e037883a 	mov	sp,fp
 20057e0:	dfc00117 	ldw	ra,4(sp)
 20057e4:	df000017 	ldw	fp,0(sp)
 20057e8:	dec00204 	addi	sp,sp,8
 20057ec:	f800283a 	ret

020057f0 <alt_ic_irq_enable>:
 20057f0:	defff904 	addi	sp,sp,-28
 20057f4:	df000615 	stw	fp,24(sp)
 20057f8:	df000604 	addi	fp,sp,24
 20057fc:	e13ffe15 	stw	r4,-8(fp)
 2005800:	e17fff15 	stw	r5,-4(fp)
 2005804:	e0bfff17 	ldw	r2,-4(fp)
 2005808:	e0bffa15 	stw	r2,-24(fp)
 200580c:	0005303a 	rdctl	r2,status
 2005810:	e0bffb15 	stw	r2,-20(fp)
 2005814:	e0fffb17 	ldw	r3,-20(fp)
 2005818:	00bfff84 	movi	r2,-2
 200581c:	1884703a 	and	r2,r3,r2
 2005820:	1001703a 	wrctl	status,r2
 2005824:	e0bffb17 	ldw	r2,-20(fp)
 2005828:	e0bffc15 	stw	r2,-16(fp)
 200582c:	00c00044 	movi	r3,1
 2005830:	e0bffa17 	ldw	r2,-24(fp)
 2005834:	1884983a 	sll	r2,r3,r2
 2005838:	1007883a 	mov	r3,r2
 200583c:	d0a31d17 	ldw	r2,-29580(gp)
 2005840:	1884b03a 	or	r2,r3,r2
 2005844:	d0a31d15 	stw	r2,-29580(gp)
 2005848:	d0a31d17 	ldw	r2,-29580(gp)
 200584c:	100170fa 	wrctl	ienable,r2
 2005850:	e0bffc17 	ldw	r2,-16(fp)
 2005854:	e0bffd15 	stw	r2,-12(fp)
 2005858:	e0bffd17 	ldw	r2,-12(fp)
 200585c:	1001703a 	wrctl	status,r2
 2005860:	0005883a 	mov	r2,zero
 2005864:	0001883a 	nop
 2005868:	e037883a 	mov	sp,fp
 200586c:	df000017 	ldw	fp,0(sp)
 2005870:	dec00104 	addi	sp,sp,4
 2005874:	f800283a 	ret

02005878 <alt_ic_irq_disable>:
 2005878:	defff904 	addi	sp,sp,-28
 200587c:	df000615 	stw	fp,24(sp)
 2005880:	df000604 	addi	fp,sp,24
 2005884:	e13ffe15 	stw	r4,-8(fp)
 2005888:	e17fff15 	stw	r5,-4(fp)
 200588c:	e0bfff17 	ldw	r2,-4(fp)
 2005890:	e0bffa15 	stw	r2,-24(fp)
 2005894:	0005303a 	rdctl	r2,status
 2005898:	e0bffb15 	stw	r2,-20(fp)
 200589c:	e0fffb17 	ldw	r3,-20(fp)
 20058a0:	00bfff84 	movi	r2,-2
 20058a4:	1884703a 	and	r2,r3,r2
 20058a8:	1001703a 	wrctl	status,r2
 20058ac:	e0bffb17 	ldw	r2,-20(fp)
 20058b0:	e0bffc15 	stw	r2,-16(fp)
 20058b4:	00c00044 	movi	r3,1
 20058b8:	e0bffa17 	ldw	r2,-24(fp)
 20058bc:	1884983a 	sll	r2,r3,r2
 20058c0:	0084303a 	nor	r2,zero,r2
 20058c4:	1007883a 	mov	r3,r2
 20058c8:	d0a31d17 	ldw	r2,-29580(gp)
 20058cc:	1884703a 	and	r2,r3,r2
 20058d0:	d0a31d15 	stw	r2,-29580(gp)
 20058d4:	d0a31d17 	ldw	r2,-29580(gp)
 20058d8:	100170fa 	wrctl	ienable,r2
 20058dc:	e0bffc17 	ldw	r2,-16(fp)
 20058e0:	e0bffd15 	stw	r2,-12(fp)
 20058e4:	e0bffd17 	ldw	r2,-12(fp)
 20058e8:	1001703a 	wrctl	status,r2
 20058ec:	0005883a 	mov	r2,zero
 20058f0:	0001883a 	nop
 20058f4:	e037883a 	mov	sp,fp
 20058f8:	df000017 	ldw	fp,0(sp)
 20058fc:	dec00104 	addi	sp,sp,4
 2005900:	f800283a 	ret

02005904 <alt_ic_irq_enabled>:
 2005904:	defffc04 	addi	sp,sp,-16
 2005908:	df000315 	stw	fp,12(sp)
 200590c:	df000304 	addi	fp,sp,12
 2005910:	e13ffe15 	stw	r4,-8(fp)
 2005914:	e17fff15 	stw	r5,-4(fp)
 2005918:	000530fa 	rdctl	r2,ienable
 200591c:	e0bffd15 	stw	r2,-12(fp)
 2005920:	00c00044 	movi	r3,1
 2005924:	e0bfff17 	ldw	r2,-4(fp)
 2005928:	1884983a 	sll	r2,r3,r2
 200592c:	1007883a 	mov	r3,r2
 2005930:	e0bffd17 	ldw	r2,-12(fp)
 2005934:	1884703a 	and	r2,r3,r2
 2005938:	1004c03a 	cmpne	r2,r2,zero
 200593c:	10803fcc 	andi	r2,r2,255
 2005940:	e037883a 	mov	sp,fp
 2005944:	df000017 	ldw	fp,0(sp)
 2005948:	dec00104 	addi	sp,sp,4
 200594c:	f800283a 	ret

02005950 <alt_iic_isr_register>:
 2005950:	defff504 	addi	sp,sp,-44
 2005954:	dfc00a15 	stw	ra,40(sp)
 2005958:	df000915 	stw	fp,36(sp)
 200595c:	df000904 	addi	fp,sp,36
 2005960:	e13ffc15 	stw	r4,-16(fp)
 2005964:	e17ffd15 	stw	r5,-12(fp)
 2005968:	e1bffe15 	stw	r6,-8(fp)
 200596c:	e1ffff15 	stw	r7,-4(fp)
 2005970:	00bffa84 	movi	r2,-22
 2005974:	e0bff715 	stw	r2,-36(fp)
 2005978:	e0bffd17 	ldw	r2,-12(fp)
 200597c:	e0bff815 	stw	r2,-32(fp)
 2005980:	e0bff817 	ldw	r2,-32(fp)
 2005984:	10800808 	cmpgei	r2,r2,32
 2005988:	1000271e 	bne	r2,zero,2005a28 <alt_iic_isr_register+0xd8>
 200598c:	0005303a 	rdctl	r2,status
 2005990:	e0bffb15 	stw	r2,-20(fp)
 2005994:	e0fffb17 	ldw	r3,-20(fp)
 2005998:	00bfff84 	movi	r2,-2
 200599c:	1884703a 	and	r2,r3,r2
 20059a0:	1001703a 	wrctl	status,r2
 20059a4:	e0bffb17 	ldw	r2,-20(fp)
 20059a8:	e0bffa15 	stw	r2,-24(fp)
 20059ac:	00808074 	movhi	r2,513
 20059b0:	10a00304 	addi	r2,r2,-32756
 20059b4:	e0fff817 	ldw	r3,-32(fp)
 20059b8:	180690fa 	slli	r3,r3,3
 20059bc:	10c5883a 	add	r2,r2,r3
 20059c0:	e0fffe17 	ldw	r3,-8(fp)
 20059c4:	10c00015 	stw	r3,0(r2)
 20059c8:	00808074 	movhi	r2,513
 20059cc:	10a00304 	addi	r2,r2,-32756
 20059d0:	e0fff817 	ldw	r3,-32(fp)
 20059d4:	180690fa 	slli	r3,r3,3
 20059d8:	10c5883a 	add	r2,r2,r3
 20059dc:	10800104 	addi	r2,r2,4
 20059e0:	e0ffff17 	ldw	r3,-4(fp)
 20059e4:	10c00015 	stw	r3,0(r2)
 20059e8:	e0bffe17 	ldw	r2,-8(fp)
 20059ec:	10000526 	beq	r2,zero,2005a04 <alt_iic_isr_register+0xb4>
 20059f0:	e0bff817 	ldw	r2,-32(fp)
 20059f4:	100b883a 	mov	r5,r2
 20059f8:	e13ffc17 	ldw	r4,-16(fp)
 20059fc:	20057f00 	call	20057f0 <alt_ic_irq_enable>
 2005a00:	00000406 	br	2005a14 <alt_iic_isr_register+0xc4>
 2005a04:	e0bff817 	ldw	r2,-32(fp)
 2005a08:	100b883a 	mov	r5,r2
 2005a0c:	e13ffc17 	ldw	r4,-16(fp)
 2005a10:	20058780 	call	2005878 <alt_ic_irq_disable>
 2005a14:	e0bff715 	stw	r2,-36(fp)
 2005a18:	e0bffa17 	ldw	r2,-24(fp)
 2005a1c:	e0bff915 	stw	r2,-28(fp)
 2005a20:	e0bff917 	ldw	r2,-28(fp)
 2005a24:	1001703a 	wrctl	status,r2
 2005a28:	e0bff717 	ldw	r2,-36(fp)
 2005a2c:	e037883a 	mov	sp,fp
 2005a30:	dfc00117 	ldw	ra,4(sp)
 2005a34:	df000017 	ldw	fp,0(sp)
 2005a38:	dec00204 	addi	sp,sp,8
 2005a3c:	f800283a 	ret

02005a40 <alt_open_fd>:
 2005a40:	defff904 	addi	sp,sp,-28
 2005a44:	dfc00615 	stw	ra,24(sp)
 2005a48:	df000515 	stw	fp,20(sp)
 2005a4c:	df000504 	addi	fp,sp,20
 2005a50:	e13ffc15 	stw	r4,-16(fp)
 2005a54:	e17ffd15 	stw	r5,-12(fp)
 2005a58:	e1bffe15 	stw	r6,-8(fp)
 2005a5c:	e1ffff15 	stw	r7,-4(fp)
 2005a60:	e1bfff17 	ldw	r6,-4(fp)
 2005a64:	e17ffe17 	ldw	r5,-8(fp)
 2005a68:	e13ffd17 	ldw	r4,-12(fp)
 2005a6c:	2005c800 	call	2005c80 <open>
 2005a70:	e0bffb15 	stw	r2,-20(fp)
 2005a74:	e0bffb17 	ldw	r2,-20(fp)
 2005a78:	10001c16 	blt	r2,zero,2005aec <alt_open_fd+0xac>
 2005a7c:	00808034 	movhi	r2,512
 2005a80:	109bf504 	addi	r2,r2,28628
 2005a84:	e0fffb17 	ldw	r3,-20(fp)
 2005a88:	18c00324 	muli	r3,r3,12
 2005a8c:	10c5883a 	add	r2,r2,r3
 2005a90:	10c00017 	ldw	r3,0(r2)
 2005a94:	e0bffc17 	ldw	r2,-16(fp)
 2005a98:	10c00015 	stw	r3,0(r2)
 2005a9c:	00808034 	movhi	r2,512
 2005aa0:	109bf504 	addi	r2,r2,28628
 2005aa4:	e0fffb17 	ldw	r3,-20(fp)
 2005aa8:	18c00324 	muli	r3,r3,12
 2005aac:	10c5883a 	add	r2,r2,r3
 2005ab0:	10800104 	addi	r2,r2,4
 2005ab4:	10c00017 	ldw	r3,0(r2)
 2005ab8:	e0bffc17 	ldw	r2,-16(fp)
 2005abc:	10c00115 	stw	r3,4(r2)
 2005ac0:	00808034 	movhi	r2,512
 2005ac4:	109bf504 	addi	r2,r2,28628
 2005ac8:	e0fffb17 	ldw	r3,-20(fp)
 2005acc:	18c00324 	muli	r3,r3,12
 2005ad0:	10c5883a 	add	r2,r2,r3
 2005ad4:	10800204 	addi	r2,r2,8
 2005ad8:	10c00017 	ldw	r3,0(r2)
 2005adc:	e0bffc17 	ldw	r2,-16(fp)
 2005ae0:	10c00215 	stw	r3,8(r2)
 2005ae4:	e13ffb17 	ldw	r4,-20(fp)
 2005ae8:	20037880 	call	2003788 <alt_release_fd>
 2005aec:	0001883a 	nop
 2005af0:	e037883a 	mov	sp,fp
 2005af4:	dfc00117 	ldw	ra,4(sp)
 2005af8:	df000017 	ldw	fp,0(sp)
 2005afc:	dec00204 	addi	sp,sp,8
 2005b00:	f800283a 	ret

02005b04 <alt_io_redirect>:
 2005b04:	defffb04 	addi	sp,sp,-20
 2005b08:	dfc00415 	stw	ra,16(sp)
 2005b0c:	df000315 	stw	fp,12(sp)
 2005b10:	df000304 	addi	fp,sp,12
 2005b14:	e13ffd15 	stw	r4,-12(fp)
 2005b18:	e17ffe15 	stw	r5,-8(fp)
 2005b1c:	e1bfff15 	stw	r6,-4(fp)
 2005b20:	01c07fc4 	movi	r7,511
 2005b24:	01800044 	movi	r6,1
 2005b28:	e17ffd17 	ldw	r5,-12(fp)
 2005b2c:	01008034 	movhi	r4,512
 2005b30:	211bf804 	addi	r4,r4,28640
 2005b34:	2005a400 	call	2005a40 <alt_open_fd>
 2005b38:	01c07fc4 	movi	r7,511
 2005b3c:	000d883a 	mov	r6,zero
 2005b40:	e17ffe17 	ldw	r5,-8(fp)
 2005b44:	01008034 	movhi	r4,512
 2005b48:	211bf504 	addi	r4,r4,28628
 2005b4c:	2005a400 	call	2005a40 <alt_open_fd>
 2005b50:	01c07fc4 	movi	r7,511
 2005b54:	01800044 	movi	r6,1
 2005b58:	e17fff17 	ldw	r5,-4(fp)
 2005b5c:	01008034 	movhi	r4,512
 2005b60:	211bfb04 	addi	r4,r4,28652
 2005b64:	2005a400 	call	2005a40 <alt_open_fd>
 2005b68:	0001883a 	nop
 2005b6c:	e037883a 	mov	sp,fp
 2005b70:	dfc00117 	ldw	ra,4(sp)
 2005b74:	df000017 	ldw	fp,0(sp)
 2005b78:	dec00204 	addi	sp,sp,8
 2005b7c:	f800283a 	ret

02005b80 <alt_get_errno>:
 2005b80:	defffe04 	addi	sp,sp,-8
 2005b84:	dfc00115 	stw	ra,4(sp)
 2005b88:	df000015 	stw	fp,0(sp)
 2005b8c:	d839883a 	mov	fp,sp
 2005b90:	d0a00917 	ldw	r2,-32732(gp)
 2005b94:	10000326 	beq	r2,zero,2005ba4 <alt_get_errno+0x24>
 2005b98:	d0a00917 	ldw	r2,-32732(gp)
 2005b9c:	103ee83a 	callr	r2
