
nios_proj.elf:     file format elf32-littlenios2
nios_proj.elf
architecture: nios2:r1, flags 0x00000112:
EXEC_P, HAS_SYMS, D_PAGED
start address 0x00000244

Program Header:
    LOAD off    0x00001000 vaddr 0x00000000 paddr 0x00000000 align 2**12
         filesz 0x00000020 memsz 0x00000020 flags r-x
    LOAD off    0x00001020 vaddr 0x00000020 paddr 0x00000020 align 2**12
         filesz 0x00060b58 memsz 0x00060b58 flags r-x
    LOAD off    0x00061b78 vaddr 0x00060b78 paddr 0x00062ca8 align 2**12
         filesz 0x00002130 memsz 0x00002130 flags rw-
    LOAD off    0x00063dd8 vaddr 0x00064dd8 paddr 0x00064dd8 align 2**12
         filesz 0x00000000 memsz 0x00003180 flags rw-

Sections:
Idx Name          Size      VMA       LMA       File off  Algn
  0 .entry        00000020  00000000  00000000  00001000  2**5
                  CONTENTS, ALLOC, LOAD, READONLY, CODE
  1 .exceptions   00000224  00000020  00000020  00001020  2**2
                  CONTENTS, ALLOC, LOAD, READONLY, CODE
  2 .text         0005b158  00000244  00000244  00001244  2**2
                  CONTENTS, ALLOC, LOAD, READONLY, CODE
  3 .rodata       000057dc  0005b39c  0005b39c  0005c39c  2**2
                  CONTENTS, ALLOC, LOAD, READONLY, DATA
  4 .rwdata       00002130  00060b78  00062ca8  00061b78  2**2
                  CONTENTS, ALLOC, LOAD, DATA, SMALL_DATA
  5 .bss          00003180  00064dd8  00064dd8  00063dd8  2**2
                  ALLOC, SMALL_DATA
  6 .sdram        00000000  00067f58  00067f58  00063ca8  2**0
                  CONTENTS
  7 .onchip_memory2 00000000  02008000  02008000  00063ca8  2**0
                  CONTENTS
  8 .epcs_flash_controller 00000000  02011000  02011000  00063ca8  2**0
                  CONTENTS
  9 .comment      00000023  00000000  00000000  00063ca8  2**0
                  CONTENTS, READONLY
 10 .debug_aranges 00001810  00000000  00000000  00063cd0  2**3
                  CONTENTS, READONLY, DEBUGGING
 11 .debug_info   0004916c  00000000  00000000  000654e0  2**0
                  CONTENTS, READONLY, DEBUGGING
 12 .debug_abbrev 0000f86c  00000000  00000000  000ae64c  2**0
                  CONTENTS, READONLY, DEBUGGING
 13 .debug_line   0001b226  00000000  00000000  000bdeb8  2**0
                  CONTENTS, READONLY, DEBUGGING
 14 .debug_frame  00007d00  00000000  00000000  000d90e0  2**2
                  CONTENTS, READONLY, DEBUGGING
 15 .debug_str    00008b92  00000000  00000000  000e0de0  2**0
                  CONTENTS, READONLY, DEBUGGING
 16 .debug_loc    0001e63b  00000000  00000000  000e9972  2**0
                  CONTENTS, READONLY, DEBUGGING
 17 .debug_alt_sim_info 00000060  00000000  00000000  00107fb0  2**2
                  CONTENTS, READONLY, DEBUGGING
 18 .debug_ranges 00001f08  00000000  00000000  00108010  2**3
                  CONTENTS, READONLY, DEBUGGING
 19 .thread_model 00000003  00000000  00000000  0011304d  2**0
                  CONTENTS, READONLY
 20 .cpu          00000003  00000000  00000000  00113050  2**0
                  CONTENTS, READONLY
 21 .qsys         00000001  00000000  00000000  00113053  2**0
                  CONTENTS, READONLY
 22 .simulation_enabled 00000001  00000000  00000000  00113054  2**0
                  CONTENTS, READONLY
 23 .sysid_hash   00000004  00000000  00000000  00113055  2**0
                  CONTENTS, READONLY
 24 .sysid_base   00000004  00000000  00000000  00113059  2**0
                  CONTENTS, READONLY
 25 .sysid_time   00000004  00000000  00000000  0011305d  2**0
                  CONTENTS, READONLY
 26 .stderr_dev   00000009  00000000  00000000  00113061  2**0
                  CONTENTS, READONLY
 27 .stdin_dev    00000009  00000000  00000000  0011306a  2**0
                  CONTENTS, READONLY
 28 .stdout_dev   00000009  00000000  00000000  00113073  2**0
                  CONTENTS, READONLY
 29 .sopc_system_name 00000018  00000000  00000000  0011307c  2**0
                  CONTENTS, READONLY
 30 .quartus_project_dir 0000003d  00000000  00000000  00113094  2**0
                  CONTENTS, READONLY
 31 .sopcinfo     000602be  00000000  00000000  001130d1  2**0
                  CONTENTS, READONLY
SYMBOL TABLE:
00000000 l    d  .entry	00000000 .entry
00000020 l    d  .exceptions	00000000 .exceptions
00000244 l    d  .text	00000000 .text
0005b39c l    d  .rodata	00000000 .rodata
00060b78 l    d  .rwdata	00000000 .rwdata
00064dd8 l    d  .bss	00000000 .bss
00067f58 l    d  .sdram	00000000 .sdram
02008000 l    d  .onchip_memory2	00000000 .onchip_memory2
02011000 l    d  .epcs_flash_controller	00000000 .epcs_flash_controller
00000000 l    d  .comment	00000000 .comment
00000000 l    d  .debug_aranges	00000000 .debug_aranges
00000000 l    d  .debug_info	00000000 .debug_info
00000000 l    d  .debug_abbrev	00000000 .debug_abbrev
00000000 l    d  .debug_line	00000000 .debug_line
00000000 l    d  .debug_frame	00000000 .debug_frame
00000000 l    d  .debug_str	00000000 .debug_str
00000000 l    d  .debug_loc	00000000 .debug_loc
00000000 l    d  .debug_alt_sim_info	00000000 .debug_alt_sim_info
00000000 l    d  .debug_ranges	00000000 .debug_ranges
00000000 l    df *ABS*	00000000 C:/Users/Class2018/Documents/Projects/Crypto_wallet/impl/nios_proj_bsp//obj/HAL/src/crt0.o
0000028c l       .text	00000000 alt_after_alt_main
00000000 l    df *ABS*	00000000 alt_irq_handler.c
00000000 l    df *ABS*	00000000 alt_instruction_exception_entry.c
00000000 l    df *ABS*	00000000 hashmap.c
00060b78 l     O .rwdata	00000400 crc32_tab
00000000 l    df *ABS*	00000000 main.c
00062c04 l     O .rwdata	00000004 MAX_SCRIPT_SIZE
00000bfc l     F .text	00000040 showError
0005b770 l     O .rodata	0000000d __func__.4520
00060f78 l     O .rwdata	0000000b digits.4537
00000000 l    df *ABS*	00000000 rand.c
00000000 l    df *ABS*	00000000 uart_usb.c
00002c28 l     F .text	0000012c IsrUart
00000000 l    df *ABS*	00000000 base58.c
0005b780 l     O .rodata	00000080 b58digits_map
0005b800 l     O .rodata	0000003b b58digits_ordered
00000000 l    df *ABS*	00000000 bip32.c
00003ea8 l     F .text	00000044 btc_hash_sngl_sha256
00004090 l     F .text	00000074 write_be
00004104 l     F .text	00000074 read_be
000048d4 l     F .text	000000fc btc_hdnode_serialize
0005b8d8 l     O .rodata	00000014 __func__.3772
00062c0c l     O .rwdata	00000002 delim.3768
00062c10 l     O .rwdata	00000005 prime.3769
00060f84 l     O .rwdata	0000000b digits.3770
00000000 l    df *ABS*	00000000 chainparams.c
00000000 l    df *ABS*	00000000 commontools.c
00062c18 l     O .rwdata	00000004 MAX_SCRIPT_SIZE
0005da50 l     O .rodata	00000016 __func__.4356
0005da68 l     O .rodata	00000017 __func__.4365
0005da80 l     O .rodata	0000000e __func__.4380
0005da90 l     O .rodata	0000000e __func__.4393
00000000 l    df *ABS*	00000000 cstr.c
00005a38 l     F .text	000000ec cstr_alloc_min_sz
00000000 l    df *ABS*	00000000 ecc_key.c
00006254 l     F .text	00000054 btc_hash
000062a8 l     F .text	00000044 btc_hash_sngl_sha256
00062c1c l     O .rwdata	00000004 MAX_SCRIPT_SIZE
0005db70 l     O .rodata	00000010 __func__.3816
0005db80 l     O .rodata	0000001a __func__.3825
0005db9c l     O .rodata	00000017 __func__.3835
00000000 l    df *ABS*	00000000 ecc_libsecp256k1.c
00064de0 l     O .bss	00000004 secp256k1_ctx
0005dc48 l     O .rodata	0000000e __func__.3322
0005dc58 l     O .rodata	00000013 __func__.3336
0005dc6c l     O .rodata	0000001e __func__.3341
0005dc8c l     O .rodata	0000001d __func__.3348
0005dcac l     O .rodata	0000001a __func__.3352
0005dcc8 l     O .rodata	00000016 __func__.3358
0005dce0 l     O .rodata	0000000d __func__.3365
0005dcf0 l     O .rodata	00000015 __func__.3373
0005dd08 l     O .rodata	00000021 __func__.3382
0005dd2c l     O .rodata	00000017 __func__.3391
0005dd44 l     O .rodata	00000013 __func__.3401
0005dd58 l     O .rodata	00000022 __func__.3409
0005dd7c l     O .rodata	00000017 __func__.3417
00000000 l    df *ABS*	00000000 memory.c
0005dd94 l     O .rodata	00000010 default_mem_mapper
00060f90 l     O .rwdata	00000010 current_mem_mapper
00000000 l    df *ABS*	00000000 random.c
00062c20 l     O .rwdata	00000008 default_rnd_mapper
00062c28 l     O .rwdata	00000008 current_rnd_mapper
00000000 l    df *ABS*	00000000 ripemd160.c
00007c64 l     F .text	00003c40 compress
00000000 l    df *ABS*	00000000 script.c
00062c30 l     O .rwdata	00000004 MAX_SCRIPT_SIZE
0000bce0 l     F .text	00000044 btc_hash_sngl_sha256
0005ded0 l     O .rodata	00000029 __func__.3795
0000c368 l     F .text	00000028 btc_script_is_pushdata
0000c390 l     F .text	00000034 btc_script_is_op
0000c3c4 l     F .text	000000a4 btc_script_is_op_pubkey
0000c468 l     F .text	00000064 btc_script_is_op_pubkeyhash
0000c7e8 l     F .text	00000058 btc_script_is_op_smallint
0005defc l     O .rodata	00000010 __func__.3882
0000d128 l     F .text	00000078 btc_decode_op_n
0005df0c l     O .rodata	00000010 __func__.3930
0005df1c l     O .rodata	0000001d __func__.3937
00000000 l    df *ABS*	00000000 bench_internal.c
0000d35c l     F .text	0000004c secp256k1_callback_call
0000d3a8 l     F .text	00000054 checked_malloc
0000d3fc l     F .text	000000ac secp256k1_sha256_initialize
0000d4a8 l     F .text	00004f20 secp256k1_sha256_transform
000123c8 l     F .text	0000010c secp256k1_sha256_write
000124d4 l     F .text	000001c8 secp256k1_sha256_finalize
0005fdc4 l     O .rodata	00000040 pad.3486
0001269c l     F .text	000001bc secp256k1_hmac_sha256_initialize
00012858 l     F .text	00000048 secp256k1_hmac_sha256_write
000128a0 l     F .text	0000007c secp256k1_hmac_sha256_finalize
0001291c l     F .text	000001a0 secp256k1_rfc6979_hmac_sha256_initialize
00062c4c l     O .rwdata	00000001 zero.3523
00062c4d l     O .rwdata	00000001 one.3524
00012abc l     F .text	0000019c secp256k1_rfc6979_hmac_sha256_generate
00062c4e l     O .rwdata	00000001 zero.3530
00012c58 l     F .text	00000060 secp256k1_rfc6979_hmac_sha256_finalize
00012cb8 l     F .text	000003c0 secp256k1_fe_verify
00013078 l     F .text	000005f0 secp256k1_fe_normalize
00013668 l     F .text	00000328 secp256k1_fe_normalize_weak
00013990 l     F .text	000005f0 secp256k1_fe_normalize_var
00013f80 l     F .text	000003f8 secp256k1_fe_normalizes_to_zero
00014378 l     F .text	00000420 secp256k1_fe_normalizes_to_zero_var
00014798 l     F .text	000000e4 secp256k1_fe_set_int
0001487c l     F .text	00000120 secp256k1_fe_is_zero
0001499c l     F .text	00000084 secp256k1_fe_is_odd
00014a20 l     F .text	00000070 secp256k1_fe_clear
00014a90 l     F .text	00000168 secp256k1_fe_cmp_var
00014bf8 l     F .text	00000284 secp256k1_fe_set_b32
00014e7c l     F .text	00000178 secp256k1_fe_get_b32
00014ff4 l     F .text	00000240 secp256k1_fe_negate
00015234 l     F .text	00000148 secp256k1_fe_mul_int
0001537c l     F .text	0000017c secp256k1_fe_add
000154f8 l     F .text	00005968 secp256k1_fe_mul_inner
0001ae60 l     F .text	000044d8 secp256k1_fe_sqr_inner
0001f338 l     F .text	00000154 secp256k1_fe_mul
0001f48c l     F .text	000000b0 secp256k1_fe_sqr
0001f53c l     F .text	0000023c secp256k1_fe_cmov
0001f778 l     F .text	000001a4 secp256k1_fe_storage_cmov
0001f91c l     F .text	000001a8 secp256k1_fe_to_storage
0001fac4 l     F .text	000001e0 secp256k1_fe_from_storage
0001fca4 l     F .text	00000050 secp256k1_fe_equal
0001fcf4 l     F .text	00000050 secp256k1_fe_equal_var
0001fd44 l     F .text	000007f4 secp256k1_fe_sqrt
00020538 l     F .text	00000848 secp256k1_fe_inv
00020d80 l     F .text	0000003c secp256k1_fe_inv_var
00020dbc l     F .text	0000027c secp256k1_fe_inv_all_var
00021038 l     F .text	00000034 secp256k1_fe_is_quad_var
0005ef48 l     O .rodata	00000064 secp256k1_ge_const_g
0002106c l     F .text	000000a0 secp256k1_ge_set_gej_zinv
0002110c l     F .text	00000104 secp256k1_ge_set_xy
00021210 l     F .text	00000028 secp256k1_ge_is_infinity
00021238 l     F .text	00000080 secp256k1_ge_neg
000212b8 l     F .text	000001ac secp256k1_ge_set_gej
00021464 l     F .text	000001bc secp256k1_ge_set_gej_var
00021620 l     F .text	000001f0 secp256k1_ge_set_all_gej_var
00021810 l     F .text	00000110 secp256k1_ge_set_table_gej_var
00021920 l     F .text	000002c4 secp256k1_ge_globalz_set_table_gej
00021be4 l     F .text	00000070 secp256k1_gej_set_infinity
00021c54 l     F .text	00000060 secp256k1_gej_clear
00021cb4 l     F .text	00000050 secp256k1_ge_clear
00021d04 l     F .text	000000f8 secp256k1_ge_set_xquad
00021dfc l     F .text	00000098 secp256k1_ge_set_xo_var
00021e94 l     F .text	00000124 secp256k1_gej_set_ge
00021fb8 l     F .text	00000118 secp256k1_gej_eq_x_var
000220d0 l     F .text	000001a8 secp256k1_gej_neg
00022278 l     F .text	00000028 secp256k1_gej_is_infinity
000222a0 l     F .text	00000108 secp256k1_gej_is_valid_var
000223a8 l     F .text	000000c0 secp256k1_ge_is_valid_var
00022468 l     F .text	000002e8 secp256k1_gej_double_var
00022750 l     F .text	0000008c secp256k1_gej_double_nonzero
000227dc l     F .text	000004e8 secp256k1_gej_add_var
00022cc4 l     F .text	00000520 secp256k1_gej_add_ge_var
000231e4 l     F .text	00000548 secp256k1_gej_add_zinv_var
0002372c l     F .text	000006f4 secp256k1_gej_add_ge
0005fe04 l     O .rodata	00000030 fe_1.4308
00023e20 l     F .text	000000fc secp256k1_gej_rescale
00023f1c l     F .text	0000017c secp256k1_ge_to_storage
00024098 l     F .text	00000068 secp256k1_ge_from_storage
00024100 l     F .text	0000006c secp256k1_ge_storage_cmov
0002416c l     F .text	00000064 secp256k1_gej_has_quad_y_var
000241d0 l     F .text	00000064 secp256k1_scalar_clear
00024234 l     F .text	0000006c secp256k1_scalar_set_int
000242a0 l     F .text	000000c8 secp256k1_scalar_get_bits
00024368 l     F .text	000001b4 secp256k1_scalar_get_bits_var
0002451c l     F .text	00000218 secp256k1_scalar_check_overflow
00024734 l     F .text	00000418 secp256k1_scalar_reduce
00024b4c l     F .text	000004ec secp256k1_scalar_add
00025038 l     F .text	00000600 secp256k1_scalar_cadd_bit
00025638 l     F .text	0000035c secp256k1_scalar_set_b32
00025994 l     F .text	00000308 secp256k1_scalar_get_b32
00025c9c l     F .text	00000084 secp256k1_scalar_is_zero
00025d20 l     F .text	00000494 secp256k1_scalar_negate
000261b4 l     F .text	00000088 secp256k1_scalar_is_one
0002623c l     F .text	00000240 secp256k1_scalar_is_high
0002647c l     F .text	000005c4 secp256k1_scalar_cond_negate
00026a40 l     F .text	00004bf0 secp256k1_scalar_reduce_512
0002b630 l     F .text	00004bec secp256k1_scalar_mul_512
0003021c l     F .text	000052e8 secp256k1_scalar_sqr_512
00035504 l     F .text	00000050 secp256k1_scalar_mul
00035554 l     F .text	0000025c secp256k1_scalar_shr_int
000357b0 l     F .text	00000048 secp256k1_scalar_sqr
000357f8 l     F .text	00000b44 secp256k1_scalar_inverse
0003633c l     F .text	0000003c secp256k1_scalar_inverse_var
00036378 l     F .text	000003bc secp256k1_ecmult_odd_multiples_table
00036734 l     F .text	00000068 secp256k1_ecmult_odd_multiples_table_globalz_windowa
0003679c l     F .text	0000010c secp256k1_ecmult_odd_multiples_table_storage_var
000368a8 l     F .text	0000002c secp256k1_ecmult_context_init
000368d4 l     F .text	00000084 secp256k1_ecmult_context_build
00036958 l     F .text	0000008c secp256k1_ecmult_context_clone
000369e4 l     F .text	00000030 secp256k1_ecmult_context_is_built
00036a14 l     F .text	00000044 secp256k1_ecmult_context_clear
00036a58 l     F .text	000003d8 secp256k1_ecmult_wnaf
00036e30 l     F .text	00000454 secp256k1_ecmult
00037284 l     F .text	00000274 secp256k1_wnaf_const
000374f8 l     F .text	00000748 secp256k1_ecmult_const
00037c40 l     F .text	000000c8 gettimedouble
000380e4 l     F .text	0000002c secp256k1_ecmult_gen_context_init
00038110 l     F .text	00000830 secp256k1_ecmult_gen_context_build
0005fe34 l     O .rodata	00000021 nums_b32.6041
00038c3c l     F .text	000002d8 secp256k1_ecmult_gen_blind
00038940 l     F .text	00000030 secp256k1_ecmult_gen_context_is_built
00038970 l     F .text	000000f0 secp256k1_ecmult_gen_context_clone
00038a60 l     F .text	00000064 secp256k1_ecmult_gen_context_clear
00038ac4 l     F .text	00000178 secp256k1_ecmult_gen
0005f960 l     O .rodata	00000030 secp256k1_ecdsa_const_order_as_fe
0005f990 l     O .rodata	00000030 secp256k1_ecdsa_const_p_minus_order
00038f14 l     F .text	00000180 secp256k1_der_read_len
00039094 l     F .text	0000025c secp256k1_der_parse_integer
000392f0 l     F .text	00000120 secp256k1_ecdsa_sig_parse
00039410 l     F .text	0000026c secp256k1_ecdsa_sig_serialize
0003967c l     F .text	00000178 secp256k1_ecdsa_sig_verify
000397f4 l     F .text	000001d0 secp256k1_ecdsa_sig_sign
000399c4 l     F .text	000001b0 secp256k1_eckey_pubkey_parse
00039b74 l     F .text	000000f4 secp256k1_eckey_pubkey_serialize
00039c68 l     F .text	00000054 secp256k1_eckey_privkey_tweak_add
00039cbc l     F .text	00000090 secp256k1_eckey_pubkey_tweak_add
00039d4c l     F .text	00000054 secp256k1_eckey_privkey_tweak_mul
00039da0 l     F .text	00000098 secp256k1_eckey_pubkey_tweak_mul
00039e38 l     F .text	00000038 default_illegal_callback_fn
00062c34 l     O .rwdata	00000008 default_illegal_callback
00039e70 l     F .text	00000038 default_error_callback_fn
00062c3c l     O .rwdata	00000008 default_error_callback
0003a17c l     F .text	0000008c secp256k1_pubkey_load
0003a208 l     F .text	00000050 secp256k1_pubkey_save
0003a580 l     F .text	00000064 secp256k1_ecdsa_signature_load
0003a5e4 l     F .text	00000060 secp256k1_ecdsa_signature_save
0003ae18 l     F .text	00000134 nonce_function_rfc6979
0003bd8c l     F .text	00000078 secp256k1_ecdsa_recoverable_signature_load
0003be04 l     F .text	00000074 secp256k1_ecdsa_recoverable_signature_save
0003c1d4 l     F .text	000001e0 secp256k1_ecdsa_sig_recover
0005fe55 l     O .rodata	00000020 init_x.6633
0005fe75 l     O .rodata	00000020 init_y.6634
00000000 l    df *ABS*	00000000 segwit_addr.c
00062c50 l     O .rwdata	00000004 charset
0005feb9 l     O .rodata	00000080 charset_rev
0003df94 l     F .text	00000178 convert_bits
00000000 l    df *ABS*	00000000 serialize.c
00000000 l    df *ABS*	00000000 sha2.c
0005ff3c l     O .rodata	00000100 K256
0006003c l     O .rodata	00000020 sha256_initial_hash_value
0006005c l     O .rodata	00000280 K512
000602dc l     O .rodata	00000040 sha512_initial_hash_value
00000000 l    df *ABS*	00000000 tx.c
00041988 l     F .text	00000060 btc_hash_is_empty
000419e8 l     F .text	0000003c btc_hash_clear
00041a24 l     F .text	00000054 btc_hash
00062c54 l     O .rwdata	00000004 MAX_SCRIPT_SIZE
000603ec l     O .rodata	00000012 __func__.4360
00000000 l    df *ABS*	00000000 utils.c
00064e30 l     O .bss	00000800 buffer_hex_to_uint8
00065630 l     O .bss	00000800 buffer_uint8_to_hex
00060fa0 l     O .rwdata	00000011 digits.3639
00060fb4 l     O .rwdata	00000011 digits.3648
00000000 l    df *ABS*	00000000 vector.c
00045004 l     F .text	000000fc vector_free_data
00045168 l     F .text	000000bc vector_grow
00000000 l    df *ABS*	00000000 libgcc2.c
00000000 l    df *ABS*	00000000 lib2-divmod.c
00000000 l    df *ABS*	00000000 adddf3.c
00000000 l    df *ABS*	00000000 divdf3.c
00000000 l    df *ABS*	00000000 gedf2.c
00000000 l    df *ABS*	00000000 ledf2.c
00000000 l    df *ABS*	00000000 muldf3.c
00000000 l    df *ABS*	00000000 subdf3.c
00000000 l    df *ABS*	00000000 floatsidf.c
00000000 l    df *ABS*	00000000 libgcc2.c
00000000 l    df *ABS*	00000000 libgcc2.c
00000000 l    df *ABS*	00000000 abort.c
00000000 l    df *ABS*	00000000 assert.c
00000000 l    df *ABS*	00000000 atoi.c
00000000 l    df *ABS*	00000000 calloc.c
00000000 l    df *ABS*	00000000 mallocr.c
00000000 l    df *ABS*	00000000 ctype_.c
00060798 l     O .rodata	00000180 _ctype_b
00000000 l    df *ABS*	00000000 exit.c
00000000 l    df *ABS*	00000000 fiprintf.c
00000000 l    df *ABS*	00000000 fprintf.c
00000000 l    df *ABS*	00000000 getenv.c
00000000 l    df *ABS*	00000000 getenv_r.c
00000000 l    df *ABS*	00000000 impure.c
00060fc8 l     O .rwdata	00000424 impure_data
00000000 l    df *ABS*	00000000 malloc.c
00000000 l    df *ABS*	00000000 mallocr.c
00000000 l    df *ABS*	00000000 memcmp.c
00000000 l    df *ABS*	00000000 memcpy.c
00000000 l    df *ABS*	00000000 memmove.c
00000000 l    df *ABS*	00000000 memset.c
00000000 l    df *ABS*	00000000 printf.c
00000000 l    df *ABS*	00000000 putchar.c
00000000 l    df *ABS*	00000000 puts.c
00000000 l    df *ABS*	00000000 rand.c
00000000 l    df *ABS*	00000000 realloc.c
00000000 l    df *ABS*	00000000 mallocr.c
00000000 l    df *ABS*	00000000 sbrkr.c
00000000 l    df *ABS*	00000000 signal.c
00000000 l    df *ABS*	00000000 signalr.c
00000000 l    df *ABS*	00000000 sprintf.c
00000000 l    df *ABS*	00000000 strcat.c
00000000 l    df *ABS*	00000000 strchr.c
00000000 l    df *ABS*	00000000 strcmp.c
00000000 l    df *ABS*	00000000 strcpy.c
00000000 l    df *ABS*	00000000 strcspn.c
00000000 l    df *ABS*	00000000 strlen.c
00000000 l    df *ABS*	00000000 strncmp.c
00000000 l    df *ABS*	00000000 strncpy.c
00000000 l    df *ABS*	00000000 strnlen.c
00000000 l    df *ABS*	00000000 strtok.c
00000000 l    df *ABS*	00000000 strtok_r.c
00000000 l    df *ABS*	00000000 strtol.c
00000000 l    df *ABS*	00000000 strtoull.c
00000000 l    df *ABS*	00000000 strtoull_r.c
00000000 l    df *ABS*	00000000 vfprintf.c
00060962 l     O .rodata	00000010 zeroes.4389
00060972 l     O .rodata	00000010 blanks.4388
00000000 l    df *ABS*	00000000 time.c
00000000 l    df *ABS*	00000000 vfiprintfr_1.c
00000000 l    df *ABS*	00000000 vfprintf.c
00060982 l     O .rodata	00000010 zeroes.4404
0004ea00 l     F .text	000000bc __sbprintf
00060992 l     O .rodata	00000010 blanks.4403
00000000 l    df *ABS*	00000000 wsetup.c
00000000 l    df *ABS*	00000000 __call_atexit.c
00000000 l    df *ABS*	00000000 dtoa.c
0004ed90 l     F .text	00000200 quorem
00000000 l    df *ABS*	00000000 environ.c
00064df0 l     O .bss	00000004 initial_env
00000000 l    df *ABS*	00000000 fflush.c
00000000 l    df *ABS*	00000000 findfp.c
000508c0 l     F .text	00000008 __fp_unlock
000508d4 l     F .text	0000019c __sinit.part.1
00050a70 l     F .text	00000008 __fp_lock
00000000 l    df *ABS*	00000000 mallocr.c
00000000 l    df *ABS*	00000000 fvwrite.c
00000000 l    df *ABS*	00000000 fwalk.c
00000000 l    df *ABS*	00000000 gettimeofdayr.c
00000000 l    df *ABS*	00000000 int_errno.c
00000000 l    df *ABS*	00000000 locale.c
00061814 l     O .rwdata	00000020 lc_ctype_charset
000617f4 l     O .rwdata	00000020 lc_message_charset
00061834 l     O .rwdata	00000038 lconv
00000000 l    df *ABS*	00000000 makebuf.c
00000000 l    df *ABS*	00000000 memchr.c
00000000 l    df *ABS*	00000000 mprec.c
000609c0 l     O .rodata	0000000c p05.2768
00000000 l    df *ABS*	00000000 putc.c
00000000 l    df *ABS*	00000000 s_fpclassify.c
00000000 l    df *ABS*	00000000 stdio.c
00000000 l    df *ABS*	00000000 vfprintf.c
00060af4 l     O .rodata	00000010 blanks.4332
00060ae4 l     O .rodata	00000010 zeroes.4333
00000000 l    df *ABS*	00000000 vfprintf.c
000541d0 l     F .text	000000fc __sprint_r.part.0
00060b14 l     O .rodata	00000010 blanks.4348
00060b04 l     O .rodata	00000010 zeroes.4349
0005575c l     F .text	000000bc __sbprintf
00000000 l    df *ABS*	00000000 wbuf.c
00000000 l    df *ABS*	00000000 writer.c
00000000 l    df *ABS*	00000000 closer.c
00000000 l    df *ABS*	00000000 fclose.c
00000000 l    df *ABS*	00000000 fputwc.c
00000000 l    df *ABS*	00000000 fstatr.c
00000000 l    df *ABS*	00000000 isattyr.c
00000000 l    df *ABS*	00000000 lseekr.c
00000000 l    df *ABS*	00000000 readr.c
00000000 l    df *ABS*	00000000 wcrtomb.c
00000000 l    df *ABS*	00000000 wctomb_r.c
00000000 l    df *ABS*	00000000 libgcc2.c
00000000 l    df *ABS*	00000000 libgcc2.c
00000000 l    df *ABS*	00000000 eqdf2.c
00000000 l    df *ABS*	00000000 fixdfsi.c
00000000 l    df *ABS*	00000000 floatunsidf.c
00000000 l    df *ABS*	00000000 alt_close.c
00056ce8 l     F .text	0000003c alt_get_errno
00000000 l    df *ABS*	00000000 alt_dev.c
00056df4 l     F .text	0000002c alt_dev_null_write
00000000 l    df *ABS*	00000000 alt_env_lock.c
00000000 l    df *ABS*	00000000 alt_errno.c
00000000 l    df *ABS*	00000000 alt_exit.c
00000000 l    df *ABS*	00000000 alt_fstat.c
00056e9c l     F .text	0000003c alt_get_errno
00000000 l    df *ABS*	00000000 alt_getpid.c
00000000 l    df *ABS*	00000000 alt_gettod.c
00000000 l    df *ABS*	00000000 alt_iic.c
00000000 l    df *ABS*	00000000 alt_iic_isr_register.c
00000000 l    df *ABS*	00000000 alt_irq_vars.c
00000000 l    df *ABS*	00000000 alt_isatty.c
0005743c l     F .text	0000003c alt_get_errno
00000000 l    df *ABS*	00000000 alt_kill.c
0005751c l     F .text	0000003c alt_get_errno
00000000 l    df *ABS*	00000000 alt_load.c
00057688 l     F .text	00000068 alt_load_section
00000000 l    df *ABS*	00000000 alt_lseek.c
00057774 l     F .text	0000003c alt_get_errno
00000000 l    df *ABS*	00000000 alt_main.c
00000000 l    df *ABS*	00000000 alt_malloc_lock.c
00000000 l    df *ABS*	00000000 alt_read.c
00057948 l     F .text	0000003c alt_get_errno
00000000 l    df *ABS*	00000000 alt_release_fd.c
00000000 l    df *ABS*	00000000 alt_sbrk.c
00062c94 l     O .rwdata	00000004 heap_end
00000000 l    df *ABS*	00000000 alt_tick.c
00000000 l    df *ABS*	00000000 alt_usleep.c
00000000 l    df *ABS*	00000000 alt_write.c
00057d68 l     F .text	0000003c alt_get_errno
00000000 l    df *ABS*	00000000 alt_sys_init.c
00057e9c l     F .text	00000034 alt_dev_reg
00061a14 l     O .rwdata	000000cc epcs_flash_controller
00061ae0 l     O .rwdata	00001060 jtag_uart
00062b40 l     O .rwdata	000000c4 uart
00000000 l    df *ABS*	00000000 altera_avalon_epcs_flash_controller.c
00057f80 l     F .text	00000034 alt_flash_device_register
00058008 l     F .text	000003f8 alt_epcs_flash_query
00058400 l     F .text	000000ec alt_epcs_flash_memcmp
000587d8 l     F .text	00000094 alt_epcs_test_address
00000000 l    df *ABS*	00000000 altera_avalon_jtag_uart_fd.c
00000000 l    df *ABS*	00000000 altera_avalon_jtag_uart_init.c
00058ca0 l     F .text	0000020c altera_avalon_jtag_uart_irq
00058eac l     F .text	000000a0 altera_avalon_jtag_uart_timeout
00000000 l    df *ABS*	00000000 altera_avalon_jtag_uart_ioctl.c
00000000 l    df *ABS*	00000000 altera_avalon_jtag_uart_read.c
00000000 l    df *ABS*	00000000 altera_avalon_jtag_uart_write.c
00000000 l    df *ABS*	00000000 altera_avalon_uart_fd.c
00000000 l    df *ABS*	00000000 altera_avalon_uart_init.c
000596a0 l     F .text	0000009c altera_avalon_uart_irq
0005973c l     F .text	000000e4 altera_avalon_uart_rxirq
00059820 l     F .text	00000148 altera_avalon_uart_txirq
00000000 l    df *ABS*	00000000 altera_avalon_uart_read.c
000599bc l     F .text	0000003c alt_get_errno
00000000 l    df *ABS*	00000000 altera_avalon_uart_write.c
00059bd4 l     F .text	0000003c alt_get_errno
00000000 l    df *ABS*	00000000 epcs_commands.c
00059e18 l     F .text	00000038 epcs_test_wip
00059e50 l     F .text	0000003c epcs_await_wip_released
00000000 l    df *ABS*	00000000 alt_alarm_start.c
00000000 l    df *ABS*	00000000 alt_busy_sleep.c
00000000 l    df *ABS*	00000000 alt_dcache_flush_all.c
00000000 l    df *ABS*	00000000 alt_dev_llist_insert.c
0005a6c4 l     F .text	0000003c alt_get_errno
00000000 l    df *ABS*	00000000 alt_do_ctors.c
00000000 l    df *ABS*	00000000 alt_do_dtors.c
00000000 l    df *ABS*	00000000 alt_flash_dev.c
00000000 l    df *ABS*	00000000 alt_icache_flush_all.c
00000000 l    df *ABS*	00000000 alt_io_redirect.c
0005a9f0 l     F .text	000000c4 alt_open_fd
00000000 l    df *ABS*	00000000 alt_open.c
0005ab30 l     F .text	0000003c alt_get_errno
0005ab6c l     F .text	000000c4 alt_file_locked
00000000 l    df *ABS*	00000000 altera_nios2_gen2_irq.c
00000000 l    df *ABS*	00000000 altera_avalon_spi.c
00000000 l    df *ABS*	00000000 alt_find_dev.c
00000000 l    df *ABS*	00000000 alt_find_file.c
00000000 l    df *ABS*	00000000 alt_get_fd.c
00000000 l    df *ABS*	00000000 alt_icache_flush.c
00000000 l    df *ABS*	00000000 atexit.c
00000000 l    df *ABS*	00000000 __atexit.c
00064e2c g     O .bss	00000004 alt_instruction_exception_handler
00002e08 g     F .text	0000003c EmptyUart
0000c5b0 g     F .text	00000140 btc_script_is_pubkeyhash
000076a8 g     F .text	00000090 btc_ecc_der_to_compact
00048e28 g     F .text	00000018 putchar
00052934 g     F .text	00000074 _mprec_log10
0003c8b8 g     F .text	000001e4 bench_setup
0005874c g     F .text	0000008c alt_epcs_flash_get_info
0003ccec g     F .text	00000088 bench_scalar_inverse_var
00052a20 g     F .text	0000008c __any_on
00055d8c g     F .text	00000054 _isatty_r
000609cc g     O .rodata	00000028 __mprec_tinytens
00057884 g     F .text	0000007c alt_main
000053d4 g     F .text	00000080 gen_privatekey
00049bec g     F .text	00000090 strcpy
0005c99c g     O .rodata	00000858 btc_chainparams_regtest
000423e0 g     F .text	000002c4 btc_tx_serialize
00048e40 g     F .text	000000c0 _puts_r
00044b64 g     F .text	0000003c utils_hex_digit
00067e58 g     O .bss	00000100 alt_irq
00006c24 g     F .text	000000a4 btc_pubkey_getaddr_p2sh_p2wpkh
00055de0 g     F .text	00000060 _lseek_r
0003a0cc g     F .text	00000058 secp256k1_context_set_illegal_callback
00062ca8 g       *ABS*	00000000 __flash_rwdata_start
00056b38 g     F .text	00000088 .hidden __eqdf2
00005f80 g     F .text	00000044 cstr_append_c
00004a88 g     F .text	00000058 btc_hdnode_get_hash160
000516d8 g     F .text	0000005c _gettimeofday_r
00007a40 g     F .text	00000034 btc_free_internal
00067f58 g       *ABS*	00000000 __alt_heap_start
0004a014 g     F .text	00000008 strtok_r
00007b04 g     F .text	00000038 btc_rnd_set_mapper
00005514 g     F .text	000003fc hd_print_node
00049804 g     F .text	0000005c _kill_r
0000ca24 g     F .text	000001dc btc_script_classify
0003b98c g     F .text	000001b0 secp256k1_ec_pubkey_tweak_mul
0003a374 g     F .text	0000020c secp256k1_ec_pubkey_serialize
00048de4 g     F .text	0000003c printf
00055ea0 g     F .text	0000009c _wcrtomb_r
000495cc g     F .text	00000084 _signal_r
0003ab34 g     F .text	00000114 secp256k1_ecdsa_signature_normalize
0003bb3c g     F .text	000000c4 secp256k1_context_randomize
00041bc8 g     F .text	00000074 btc_tx_in_new
00052d60 g     F .text	0000005c __sseek
00050c10 g     F .text	00000010 __sinit
0003cbec g     F .text	00000078 bench_scalar_mul
000454d8 g     F .text	00000060 vector_remove
00006e6c g     F .text	00000044 btc_ecc_stop
0003e8cc g     F .text	00000058 deser_u32
00055818 g     F .text	00000140 __swbuf_r
00051734 g     F .text	0000007c _setlocale_r
00050a78 g     F .text	00000068 __sfmoreglue
00042948 g     F .text	00000200 btc_tx_copy
00057924 g     F .text	00000024 __malloc_unlock
00006a10 g     F .text	0000004c btc_key_sign_hash
00000818 g     F .text	0000010c hashmap_get
00044da8 g     F .text	00000064 safe_malloc
00005ca8 g     F .text	00000044 cstr_new_cstr
000072c8 g     F .text	000000bc btc_ecc_sign_compact
00040f34 g     F .text	00000490 sha512_Last
00048b30 g     F .text	0000015c memmove
00050bf8 g     F .text	00000018 _cleanup
00051ab0 g     F .text	000000a8 _Balloc
00049f78 g     F .text	0000009c __strtok_r
00044074 g     F .text	00000050 utils_clear_buffers
00045100 g     F .text	00000068 vector_free
00041618 g     F .text	00000058 sha512_Raw
00046a48 g     F .text	000000dc .hidden __gtdf2
0005ad84 g     F .text	00000024 altera_nios2_gen2_irq_init
0004449c g     F .text	000003dc utils_hex_to_uint8
00007880 g     F .text	00000044 btc_realloc
00059e8c g     F .text	000000fc epcs_sector_erase
0003cf38 g     F .text	0000008c bench_field_inverse
00003cec g     F .text	000000fc btc_base58_decode_check
00000000 g     F .entry	0000001c __reset
0000ccb8 g     F .text	000000f8 btc_script_append_pushdata
0003af4c g     F .text	000002e0 secp256k1_ecdsa_sign
00047fec g     F .text	0000002c getenv
00006fbc g     F .text	00000068 btc_ecc_private_key_tweak_add
00000020 g       *ABS*	00000000 __flash_exceptions_start
00006aa8 g     F .text	00000054 btc_key_sign_hash_compact_recoverable
00007904 g     F .text	00000064 btc_malloc_internal
00055d30 g     F .text	0000005c _fstat_r
00006bc0 g     F .text	00000064 btc_pubkey_verify_sig
00064df4 g     O .bss	00000004 errno
0003bffc g     F .text	0000010c secp256k1_ecdsa_recoverable_signature_serialize_compact
00052cdc g     F .text	00000008 __seofread
00052f94 g     F .text	0000123c ___svfiprintf_internal_r
00006434 g     F .text	000000d4 btc_privkey_verify_pubkey
00064e1c g     O .bss	00000004 alt_argv
0006ac04 g       *ABS*	00000000 _gp
00057d38 g     F .text	00000030 usleep
0000d030 g     F .text	00000070 btc_script_get_scripthash
00056f88 g     F .text	00000020 getpid
00062c44 g     O .rwdata	00000004 secp256k1_nonce_function_rfc6979
00005b24 g     F .text	00000090 cstr_alloc_minsize
0003b22c g     F .text	000000f0 secp256k1_ec_seckey_verify
00061894 g     O .rwdata	00000180 alt_fd_list
00002af8 g     F .text	00000084 add_newline
00048e20 g     F .text	00000008 _putchar_r
0005a0d0 g     F .text	0000006c epcs_write_status_register
0005afa4 g     F .text	00000090 alt_find_dev
000489e8 g     F .text	00000148 memcpy
0003f9a4 g     F .text	00000058 sha256_Raw
000508c8 g     F .text	0000000c _cleanup_r
00047c2c g     F .text	000000dc .hidden __floatsidf
0000487c g     F .text	00000058 btc_hdnode_fill_public_key
00003eec g     F .text	000001a4 print_node
000029b8 g     F .text	00000068 u32getRandom
0005aab4 g     F .text	0000007c alt_io_redirect
00046b24 g     F .text	000000f4 .hidden __ltdf2
0003d3d4 g     F .text	000000c0 bench_wnaf_const
0005b39c g       *ABS*	00000000 __DTOR_END__
00041b7c g     F .text	0000004c btc_tx_in_witness_stack_free_cb
000422ec g     F .text	00000060 btc_tx_out_serialize
00048f00 g     F .text	00000014 puts
0005a954 g     F .text	0000009c alt_exception_cause_generated_bad_addr
0003cb14 g     F .text	0000006c bench_scalar_negate
00007384 g     F .text	000000c0 btc_ecc_sign_compact_recoverable
00004178 g     F .text	00000038 btc_hdnode_new
000588e4 g     F .text	00000100 alt_epcs_flash_write_block
000041b0 g     F .text	000000c4 btc_hdnode_copy
00052c14 g     F .text	00000074 __fpclassifyd
00052890 g     F .text	000000a4 __ratio
00055740 g     F .text	0000001c __vfiprintf_internal
00041b34 g     F .text	00000048 btc_tx_in_free_cb
000590a4 g     F .text	0000021c altera_avalon_jtag_uart_read
00048138 g     F .text	00000014 malloc
00048db4 g     F .text	00000030 _printf_r
0003d528 g     F .text	000000a4 bench_hmac_sha256
000457f8 g     F .text	00000064 .hidden __udivsi3
00057478 g     F .text	000000a4 isatty
0003e874 g     F .text	00000058 deser_s32
00049650 g     F .text	000000bc _raise_r
0004391c g     F .text	00000024 btc_tx_outpoint_is_null
00047d84 g     F .text	00000068 __assert_func
00060a1c g     O .rodata	000000c8 __mprec_tens
000517b0 g     F .text	0000000c __locale_charset
00043544 g     F .text	00000264 btc_tx_add_address_out
00064e04 g     O .bss	00000008 alt_timezone
0005b1e0 g     F .text	00000090 alt_icache_flush
00006754 g     F .text	00000058 btc_pubkey_init
00006068 g     F .text	000000dc cstr_compare
00064dec g     O .bss	00000004 __malloc_top_pad
00049860 g     F .text	00000004 _getpid_r
00007160 g     F .text	000000b4 btc_ecc_verify_pubkey
000077a8 g     F .text	00000058 btc_mem_set_mapper
00062c70 g     O .rwdata	00000004 __mb_cur_max
000517e0 g     F .text	0000000c _localeconv_r
0004a28c g     F .text	00000320 _strtoull_r
00003e54 g     F .text	00000054 btc_p2wpkh_addr_from_hash160
00051ebc g     F .text	0000003c __i2b
00051094 g     F .text	000004bc __sfvwrite_r
0004970c g     F .text	000000a8 __sigtramp_r
0003ebbc g     F .text	00000104 deser_varstr
0004950c g     F .text	00000054 _sbrk_r
00041cc0 g     F .text	00000048 btc_tx_out_free_cb
0003a8e8 g     F .text	00000138 secp256k1_ecdsa_signature_serialize_der
00007acc g     F .text	00000038 btc_rnd_set_mapper_default
0003bc00 g     F .text	0000018c secp256k1_ec_pubkey_combine
0003e3a8 g     F .text	0000004c ser_u16
00002990 g     F .text	00000028 u08getRandom
00055e40 g     F .text	00000060 _read_r
000065b8 g     F .text	0000019c btc_privkey_decode_wif
000018e4 g     F .text	00000658 sign_tx
00007b6c g     F .text	0000004c btc_random_bytes
00062c88 g     O .rwdata	00000004 alt_max_fd
00044e0c g     F .text	0000007c btc_cheap_random_bytes
00045498 g     F .text	00000040 vector_remove_idx
00055a24 g     F .text	000000f0 _fclose_r
0003e4d0 g     F .text	0000004c ser_s64
00050890 g     F .text	00000030 fflush
00064de8 g     O .bss	00000004 __malloc_max_sbrked_mem
0003d340 g     F .text	00000094 bench_ecmult_wnaf
0000c6f0 g     F .text	000000f8 btc_script_is_scripthash
0003e200 g     F .text	00000164 segwit_addr_decode
0003ca9c g     F .text	00000078 bench_scalar_add
000458b4 g     F .text	000008ac .hidden __adddf3
0005886c g     F .text	00000078 alt_epcs_flash_erase_block
0003c108 g     F .text	000000cc secp256k1_ecdsa_recoverable_signature_convert
00052638 g     F .text	0000010c __b2d
00056600 g     F .text	00000538 .hidden __umoddi3
000577b0 g     F .text	000000d4 lseek
00062c5c g     O .rwdata	00000004 _global_impure_ptr
0005a39c g     F .text	0000005c epcs_exit_4_bytes_mode
00048fa8 g     F .text	00000564 _realloc_r
00002dd4 g     F .text	00000034 closeUart
00067f58 g       *ABS*	00000000 __bss_end
0005734c g     F .text	000000f0 alt_iic_isr_register
00057c30 g     F .text	00000108 alt_tick
00056088 g     F .text	00000578 .hidden __udivdi3
000440c4 g     F .text	000003d8 utils_hex_to_bin
00055c8c g     F .text	00000024 _fputwc_r
000609f4 g     O .rodata	00000028 __mprec_bigtens
00051ca0 g     F .text	00000104 __s2b
00005cec g     F .text	0000006c cstr_new
00047d6c g     F .text	00000018 abort
00005f34 g     F .text	0000004c cstr_append_cstr
00056c40 g     F .text	000000a8 .hidden __floatunsidf
00052378 g     F .text	00000060 __mcmp
000595f4 g     F .text	000000ac altera_avalon_uart_init
000062ec g     F .text	00000040 btc_privkey_init
00050c30 g     F .text	00000018 __fp_lock_all
00057300 g     F .text	0000004c alt_ic_irq_enabled
00057b94 g     F .text	0000009c alt_alarm_stop
0004a254 g     F .text	0000001c strtol
000042f0 g     F .text	000000fc btc_hdnode_from_seed
00064e14 g     O .bss	00000004 alt_irq_active
00049f1c g     F .text	00000044 strnlen
000063ac g     F .text	00000088 btc_privkey_gen
00039ea8 g     F .text	00000110 secp256k1_context_create
000000fc g     F .exceptions	000000d4 alt_irq_handler
0006186c g     O .rwdata	00000028 alt_dev_null
00005e84 g     F .text	000000b0 cstr_append_buf
00041d08 g     F .text	00000038 btc_tx_out_new
00041670 g     F .text	0000018c hmac_sha256
00000e7c g     F .text	00000364 hd_save_node
0005a67c g     F .text	00000048 alt_dcache_flush_all
00051da4 g     F .text	00000068 __hi0bits
00005dc4 g     F .text	000000c0 cstr_resize
00006820 g     F .text	00000048 btc_pubkey_is_valid
00056bc0 g     F .text	00000080 .hidden __fixdfsi
00047e18 g     F .text	00000018 calloc
0003ce44 g     F .text	00000080 bench_field_mul
000051f0 g     F .text	0000010c addresses_from_pubkey
0000c98c g     F .text	00000098 btc_script_classify_ops
0003d658 g     F .text	0000005c bench_context_verify
00062ca8 g       *ABS*	00000000 __ram_rwdata_end
0003d494 g     F .text	00000094 bench_sha256
00062c80 g     O .rwdata	00000008 alt_dev_list
00057da4 g     F .text	000000f8 write
00052aac g     F .text	000000a0 _putc_r
0000d1a0 g     F .text	000001bc btc_script_is_witnessprogram
00065e58 g     O .bss	00001000 rx_buffer
00062c6c g     O .rwdata	00000004 environ
00044e88 g     F .text	000000a8 btc_get_default_datadir
00060b78 g       *ABS*	00000000 __ram_rodata_end
00056ed8 g     F .text	000000b0 fstat
00047fb0 g     F .text	00000024 fprintf
00057558 g     F .text	00000130 kill
00046b24 g     F .text	000000f4 .hidden __ledf2
00066e58 g     O .bss	00001000 tx_buffer
00049928 g     F .text	00000084 strcat
0003e364 g     F .text	00000044 ser_bytes
000005f8 g     F .text	00000134 hashmap_rehash
000520f0 g     F .text	00000140 __pow5mult
00064e00 g     O .bss	00000004 __nlocale_changed
000542e4 g     F .text	0000145c ___vfiprintf_internal_r
0004585c g     F .text	00000058 .hidden __umodsi3
0005a258 g     F .text	00000068 epcs_read_electronic_signature
00067f58 g       *ABS*	00000000 end
000003bc g     F .text	00000118 hashmap_hash_int
000079d4 g     F .text	0000006c btc_realloc_internal
000439c0 g     F .text	000000d0 btc_tx_sign_result_to_str
0003ecf8 g     F .text	00000074 sha256_Init
0000bd24 g     F .text	00000348 btc_script_copy_without_op_codeseperator
00047e0c g     F .text	0000000c _atoi_r
00003b6c g     F .text	00000180 btc_base58_encode_check
00059c10 g     F .text	000001ac altera_avalon_uart_write
00058be0 g     F .text	000000c0 altera_avalon_jtag_uart_init
000001d0 g     F .exceptions	00000074 alt_instruction_exception_entry
0005b39c g       *ABS*	00000000 __CTOR_LIST__
02000000 g       *ABS*	00000000 __alt_stack_pointer
000413c4 g     F .text	00000254 sha512_Final
000045c4 g     F .text	000002b8 btc_hdnode_private_ckd
00059544 g     F .text	00000060 altera_avalon_uart_write_fd
00047d08 g     F .text	00000064 .hidden __clzsi2
00007024 g     F .text	000000dc btc_ecc_public_key_tweak_add
000595a4 g     F .text	00000050 altera_avalon_uart_close_fd
000592c0 g     F .text	00000224 altera_avalon_jtag_uart_write
00050c20 g     F .text	00000004 __sfp_lock_acquire
000519cc g     F .text	000000e4 memchr
0004c7ec g     F .text	000021f8 ___vfprintf_internal_r
000011e0 g     F .text	00000704 hdderive
00049864 g     F .text	00000058 _sprintf_r
00043838 g     F .text	00000090 btc_tx_add_p2sh_hash160_out
0003b31c g     F .text	000001c8 secp256k1_ec_pubkey_create
00050d84 g     F .text	00000310 _free_r
00000328 g     F .text	00000094 crc32
00041d40 g     F .text	00000074 btc_tx_free
000517bc g     F .text	00000010 __locale_mb_cur_max
0004ec10 g     F .text	00000180 __call_exitprocs
0003ecc0 g     F .text	00000038 deser_s64
0003e778 g     F .text	000000a4 deser_bytes
0003e984 g     F .text	0000003c deser_u256
00064dfc g     O .bss	00000004 __mlocale_changed
00037d08 g     F .text	000000d4 print_number
00005c20 g     F .text	00000088 cstr_new_buf
00062c64 g     O .rwdata	00000004 __malloc_sbrk_base
00000244 g     F .text	0000004c _start
0004234c g     F .text	00000094 btc_tx_has_witness
00064e24 g     O .bss	00000004 _alt_tick_rate
000052fc g     F .text	000000d8 pubkey_from_privatekey
00048f2c g     F .text	00000064 rand
0003cec4 g     F .text	00000074 bench_field_sqr
0003e6f8 g     F .text	00000080 deser_skip
0003d6b4 g     F .text	0000005c bench_context_sign
00052230 g     F .text	00000148 __lshift
0005ada8 g     F .text	000001fc alt_avalon_spi_command
00064e28 g     O .bss	00000004 _alt_nticks
00001f3c g     F .text	0000015c parseData
000497c8 g     F .text	00000018 signal
00057984 g     F .text	000000fc read
00057f08 g     F .text	00000078 alt_sys_init
00052dc4 g     F .text	000001d0 __ssprint_r
00002be4 g     F .text	00000044 uartGetChar
000009f4 g     F .text	0000013c hashmap_remove
00003698 g     F .text	00000150 btc_b58check
0005b284 g     F .text	00000118 __register_exitproc
0005d788 g     O .rodata	00000150 btc_mainnet_checkpoint_array
00049d60 g     F .text	000000d0 strncmp
00000de8 g     F .text	00000094 hdgenmaster
00051ef8 g     F .text	000001f8 __multiply
00058f4c g     F .text	00000068 altera_avalon_jtag_uart_close
00060b78 g       *ABS*	00000000 __ram_rwdata_start
0005b39c g       *ABS*	00000000 __ram_rodata_start
00049e30 g     F .text	000000ec strncpy
00065e30 g     O .bss	00000028 __malloc_current_mallinfo
0000b8a4 g     F .text	0000043c btc_ripemd160
000037e8 g     F .text	00000384 btc_base58_encode
00052744 g     F .text	0000014c __d2b
0003be78 g     F .text	00000184 secp256k1_ecdsa_recoverable_signature_parse_compact
00006928 g     F .text	00000070 btc_pubkey_get_hex
0000c06c g     F .text	00000038 btc_script_op_new
00007a74 g     F .text	00000058 btc_mem_zero
00059dbc g     F .text	0000005c epcs_read_status_register
0003ed6c g     F .text	000005c0 sha256_Transform
00037ddc g     F .text	00000308 run_benchmark
00000b30 g     F .text	0000004c hashmap_free
00048f90 g     F .text	00000018 realloc
0003b810 g     F .text	0000017c secp256k1_ec_privkey_tweak_mul
00058a7c g     F .text	00000060 altera_avalon_jtag_uart_read_fd
0005b13c g     F .text	000000a4 alt_get_fd
0005a524 g     F .text	00000158 alt_busy_sleep
00004de8 g     F .text	000003a0 btc_hd_generate_key
000559d0 g     F .text	00000054 _close_r
00041a78 g     F .text	000000bc btc_tx_in_free
00049f60 g     F .text	00000018 strtok
0005a2c0 g     F .text	00000080 epcs_read_device_id
00045538 g     F .text	00000168 vector_resize
0004896c g     F .text	0000007c memcmp
00058b3c g     F .text	00000050 altera_avalon_jtag_uart_close_fd
00006144 g     F .text	00000110 cstr_erase
00067f58 g       *ABS*	00000000 __alt_stack_base
00058b8c g     F .text	00000054 altera_avalon_jtag_uart_ioctl_fd
000438c8 g     F .text	00000054 btc_tx_add_p2pkh_out
0003cb80 g     F .text	0000006c bench_scalar_sqr
00042270 g     F .text	0000007c btc_tx_in_serialize
0004eabc g     F .text	00000154 __swsetup_r
00042c20 g     F .text	000000c8 btc_tx_sequence_hash
00046160 g     F .text	000008e8 .hidden __divdf3
00050ae0 g     F .text	00000118 __sfp
00000b7c g     F .text	00000040 hashmap_length
000529a8 g     F .text	00000078 __copybits
000613ec g     O .rwdata	00000408 __malloc_av_
00042da8 g     F .text	00000610 btc_tx_sighash
00050c2c g     F .text	00000004 __sinit_lock_release
00000924 g     F .text	000000d0 hashmap_iterate
00006370 g     F .text	0000003c btc_privkey_cleanse
00046c18 g     F .text	00000718 .hidden __muldf3
02011000 g       *ABS*	00000000 __alt_mem_epcs_flash_controller
00052c88 g     F .text	00000054 __sread
0005b034 g     F .text	00000108 alt_find_file
0005a700 g     F .text	000000a4 alt_dev_llist_insert
00057900 g     F .text	00000024 __malloc_lock
00047f88 g     F .text	00000028 _fprintf_r
00057ae4 g     F .text	000000b0 sbrk
0004a5ac g     F .text	000021d8 ___svfprintf_internal_r
00050834 g     F .text	0000005c _fflush_r
00047e30 g     F .text	000000c4 _calloc_r
0003a074 g     F .text	00000058 secp256k1_context_destroy
00006998 g     F .text	00000078 btc_pubkey_from_key
00062ca0 g     O .rwdata	00000008 alt_flash_dev_list
0004a270 g     F .text	0000001c strtoull
00056fa8 g     F .text	000001f4 gettimeofday
0000cfcc g     F .text	00000064 btc_script_build_p2sh
00005bb4 g     F .text	0000006c cstr_new_sz
0000c840 g     F .text	0000014c btc_script_is_multisig
00064dd8 g       *ABS*	00000000 __bss_start
00048c8c g     F .text	00000128 memset
0000cc00 g     F .text	00000074 btc_encode_op_n
00002098 g     F .text	00000894 main
0003f5d4 g     F .text	000003d0 sha256_Final
00007bf0 g     F .text	00000074 btc_random_bytes_internal
00006d90 g     F .text	000000dc btc_ecc_start
00064e20 g     O .bss	00000004 alt_envp
00064de4 g     O .bss	00000004 __malloc_max_total_mem
00007968 g     F .text	0000006c btc_calloc_internal
00041e38 g     F .text	000000a0 btc_tx_in_deserialize
00058adc g     F .text	00000060 altera_avalon_jtag_uart_write_fd
00055958 g     F .text	00000018 __swbuf
00048f14 g     F .text	00000018 srand
000004d4 g     F .text	00000124 hashmap_hash
0003db74 g     F .text	00000420 bech32_decode
0000632c g     F .text	00000044 btc_privkey_is_valid
00005188 g     F .text	00000068 btc_hdnode_has_privkey
00052dbc g     F .text	00000008 __sclose
02000000 g       *ABS*	00000000 __alt_heap_limit
00055b14 g     F .text	00000014 fclose
00002fcc g     F .text	0000011c PutCUart
0004a01c g     F .text	00000238 _strtol_r
00048018 g     F .text	00000104 _findenv_r
0004ef90 g     F .text	00001688 _dtoa_r
00048160 g     F .text	0000080c _malloc_r
00055ffc g     F .text	00000030 __ascii_wctomb
0004c784 g     F .text	00000050 time
00062c8c g     O .rwdata	00000004 alt_errno
00047f2c g     F .text	00000020 _fiprintf_r
000497e0 g     F .text	00000010 _init_signal
00056e44 g     F .text	00000024 __env_unlock
000437a8 g     F .text	00000090 btc_tx_add_p2pkh_hash160_out
00051550 g     F .text	000000c4 _fwalk
00047fd4 g     F .text	00000018 _findenv
0005b8ec g     O .rodata	00000858 btc_chainparams_main
0003d154 g     F .text	00000084 bench_group_add_var
00052b4c g     F .text	000000c8 putc
00045700 g     F .text	00000084 .hidden __divsi3
00062c08 g     O .rwdata	00000004 chain
00050c60 g     F .text	00000124 _malloc_trim_r
0005b39c g       *ABS*	00000000 __CTOR_END__
00044878 g     F .text	000000ec utils_bin_to_hex
00043940 g     F .text	00000080 btc_tx_is_coinbase
00002b7c g     F .text	00000068 uartGetLine
00000c3c g     F .text	000001ac create_priv_key
000584ec g     F .text	00000260 alt_epcs_flash_write
0000cdb0 g     F .text	00000148 btc_script_build_multisig
00049b10 g     F .text	000000dc strcmp
0003d710 g     F .text	000000b0 have_flag
0005b39c g       *ABS*	00000000 __flash_rodata_start
0003a258 g     F .text	0000011c secp256k1_ec_pubkey_parse
0005b39c g       *ABS*	00000000 __DTOR_LIST__
00004ae0 g     F .text	00000068 btc_hdnode_get_p2pkh_address
00007b3c g     F .text	00000030 btc_random_init
00040ae8 g     F .text	0000044c sha512_Update
0003cc64 g     F .text	00000088 bench_scalar_inverse
0003d050 g     F .text	0000008c bench_field_sqrt
00056b38 g     F .text	00000088 .hidden __nedf2
000426a4 g     F .text	00000088 btc_tx_hash
00041db4 g     F .text	00000084 btc_tx_new
00004a2c g     F .text	0000005c btc_hdnode_serialize_private
00057ed0 g     F .text	00000038 alt_irq_init
00057a80 g     F .text	00000064 alt_release_fd
000049d0 g     F .text	0000005c btc_hdnode_serialize_public
0003f9fc g     F .text	0000008c sha512_Init
000498bc g     F .text	0000006c sprintf
00060556 g     O .rodata	00000100 .hidden __clz_tab
000433b8 g     F .text	000000bc btc_tx_add_data_out
00064df8 g     O .bss	00000004 _PathLocale
0003e674 g     F .text	00000084 ser_varstr
00045224 g     F .text	0000008c vector_find
0005b270 g     F .text	00000014 atexit
00049c7c g     F .text	0000004c strcspn
00055970 g     F .text	00000060 _write_r
0000c104 g     F .text	00000044 btc_script_op_free_cb
0003d8c0 g     F .text	000002b4 bech32_encode
000517ec g     F .text	00000018 setlocale
00060400 g     O .rodata	00000100 p_util_hexdigit
0003d1d8 g     F .text	00000080 bench_group_add_affine
0003cddc g     F .text	00000068 bench_field_normalize_weak
0003e47c g     F .text	00000054 ser_u64
00005454 g     F .text	000000c0 hd_gen_master
0003d0dc g     F .text	00000078 bench_group_double_var
00062c60 g     O .rwdata	00000004 _impure_ptr
00064e18 g     O .bss	00000004 alt_argc
0003e9c0 g     F .text	00000118 deser_varlen
00050618 g     F .text	0000021c __sflush_r
00007214 g     F .text	000000b4 btc_ecc_sign
0005a804 g     F .text	00000060 _do_dtors
0003cd74 g     F .text	00000068 bench_field_normalize
000517d8 g     F .text	00000008 __locale_cjk_lang
000067ac g     F .text	00000074 btc_pubkey_get_length
0003e81c g     F .text	00000058 deser_u16
00064ddc g     O .bss	00000002 RxHead
00064dde g     O .bss	00000002 RxTail
0000c148 g     F .text	00000220 btc_script_get_ops
0003e43c g     F .text	00000040 ser_s32
00000020 g       .exceptions	00000000 alt_irq_entry
00007100 g     F .text	00000060 btc_ecc_verify_privatekey
000043ec g     F .text	000001d8 btc_hdnode_public_ckd
000078c4 g     F .text	00000040 btc_free
000525d4 g     F .text	00000064 __ulp
00050c48 g     F .text	00000018 __fp_unlock_all
00006868 g     F .text	0000004c btc_pubkey_cleanse
00000290 g     F .text	00000098 hashmap_new
0003e614 g     F .text	00000060 ser_str
0000cf74 g     F .text	00000058 btc_script_build_p2wpkh
00041f44 g     F .text	0000032c btc_tx_deserialize
00062c78 g     O .rwdata	00000008 alt_fs_list
000030e8 g     F .text	000005b0 btc_base58_decode
00006a5c g     F .text	0000004c btc_key_sign_hash_compact
00064e0c g     O .bss	00000008 alt_resettime
0003fa88 g     F .text	00001060 sha512_Transform
0000072c g     F .text	000000ec hashmap_put
0003e55c g     F .text	000000b8 ser_varlen
00000020 g       *ABS*	00000000 __ram_exceptions_start
00051804 g     F .text	0000000c localeconv
00059f88 g     F .text	000000f4 epcs_read_buffer
02008000 g       *ABS*	00000000 __alt_mem_onchip_memory2
00002ea0 g     F .text	0000012c PutStrUart
00057fb4 g     F .text	00000054 alt_epcs_flash_init
00062c48 g     O .rwdata	00000004 secp256k1_nonce_function_default
00044f30 g     F .text	000000d4 vector_new
0005719c g     F .text	00000050 alt_ic_isr_register
00041c3c g     F .text	00000084 btc_tx_out_free
000075fc g     F .text	000000ac btc_ecc_compact_to_der_normalized
00039fb8 g     F .text	000000bc secp256k1_context_clone
00062ca8 g       *ABS*	00000000 _edata
000594e4 g     F .text	00000060 altera_avalon_uart_read_fd
000452b0 g     F .text	000000a4 vector_add
00067f58 g       *ABS*	00000000 _end
0005a864 g     F .text	00000068 alt_flash_open_dev
0000cc74 g     F .text	00000044 btc_script_append_op
00007738 g     F .text	00000070 btc_mem_set_mapper_default
00002a20 g     F .text	00000070 getRandomBuffer
00007444 g     F .text	000000dc btc_ecc_recover_pubkey
00006d2c g     F .text	00000064 btc_pubkey_getaddr_p2wpkh
00055b28 g     F .text	00000164 __fputwc
00000244 g       *ABS*	00000000 __ram_exceptions_end
00058fb4 g     F .text	000000f0 altera_avalon_jtag_uart_ioctl
0003a644 g     F .text	00000124 secp256k1_ecdsa_signature_parse_der
00004b48 g     F .text	0000006c btc_hdnode_get_pub_hex
00057274 g     F .text	0000008c alt_ic_irq_disable
00000bbc g     F .text	00000040 initialize
0005a340 g     F .text	0000005c epcs_enter_4_bytes_mode
00052ce4 g     F .text	0000007c __swrite
0000cef8 g     F .text	0000007c btc_script_build_p2pkh
00062c68 g     O .rwdata	00000004 __malloc_trim_threshold
000517cc g     F .text	0000000c __locale_msgcharset
0003f32c g     F .text	000002a8 sha256_Update
00047ef4 g     F .text	00000038 exit
00047f4c g     F .text	0000003c fiprintf
0004c7d4 g     F .text	00000018 _vfiprintf_r
00051614 g     F .text	000000c4 _fwalk_reent
00005fc4 g     F .text	000000a4 cstr_equal
000523d8 g     F .text	000001fc __mdiff
0003d258 g     F .text	00000084 bench_group_add_affine_var
00002a90 g     F .text	00000068 append
0005a8cc g     F .text	00000054 alt_flash_close_dev
00045354 g     F .text	00000144 vector_remove_range
0003a768 g     F .text	00000180 secp256k1_ecdsa_signature_parse_compact
0003b4e4 g     F .text	0000017c secp256k1_ec_privkey_tweak_add
00045784 g     F .text	00000074 .hidden __modsi3
00062c58 g     O .rwdata	00000004 __ctype_ptr__
00042ce8 g     F .text	000000c0 btc_tx_outputs_hash
00041ed8 g     F .text	0000006c btc_tx_out_deserialize
0000292c g     F .text	00000064 initRandom
02000000 g       *ABS*	00000000 __alt_data_end
00000020 g     F .exceptions	00000000 alt_exception
00050c24 g     F .text	00000004 __sfp_lock_release
00004274 g     F .text	0000007c btc_hdnode_free
00000000 g       *ABS*	00000000 __alt_mem_sdram
0003aa20 g     F .text	00000114 secp256k1_ecdsa_signature_serialize_compact
00006afc g     F .text	000000c4 btc_key_sign_recover_pubkey
00042898 g     F .text	000000b0 btc_tx_out_copy
00047e00 g     F .text	0000000c atoi
0003d2dc g     F .text	00000064 bench_group_jacobi_var
0003e10c g     F .text	000000f4 segwit_addr_encode
00060697 g     O .rodata	00000101 _ctype_
00007520 g     F .text	000000dc btc_ecc_verify_sig
00006508 g     F .text	000000b0 btc_privkey_encode_wif
00004bb4 g     F .text	00000234 btc_hdnode_deserialize
0003c6a0 g     F .text	00000218 secp256k1_ecdsa_recover
000068b4 g     F .text	00000074 btc_pubkey_get_hash160
0000c4cc g     F .text	000000e4 btc_script_is_pubkey
00059968 g     F .text	00000054 altera_avalon_uart_close
0003e924 g     F .text	00000060 deser_u64
0003ead8 g     F .text	000000e4 deser_str
00056e68 g     F .text	00000034 _exit
0005a3f8 g     F .text	0000012c alt_alarm_start
00005910 g     F .text	00000128 hd_derive
000456a0 g     F .text	00000060 .hidden __muldi3
00051810 g     F .text	000001bc __smakebuf_r
00005d58 g     F .text	0000006c cstr_free
0005c144 g     O .rodata	00000858 btc_chainparams_test
00049cc8 g     F .text	00000098 strlen
0005a07c g     F .text	00000054 epcs_write_enable
0003d5cc g     F .text	0000008c bench_rfc6979_hmac_sha256
00049560 g     F .text	0000006c _init_signal_r
0005ac30 g     F .text	00000154 open
0000d0a0 g     F .text	00000088 btc_tx_out_type_to_str
00046a48 g     F .text	000000dc .hidden __gedf2
0003d7c0 g     F .text	00000100 bech32_polymod_step
0000783c g     F .text	00000044 btc_calloc
00047dec g     F .text	00000014 __assert
0003a124 g     F .text	00000058 secp256k1_context_set_error_callback
00062c74 g     O .rwdata	00000004 __wctomb
00042b48 g     F .text	000000d8 btc_tx_prevout_hash
000542cc g     F .text	00000018 __sprint_r
0005a920 g     F .text	00000034 alt_icache_flush_all
000499ac g     F .text	00000164 strchr
00006cc8 g     F .text	00000064 btc_pubkey_getaddr_p2pkh
000417fc g     F .text	0000018c hmac_sha512
00003de8 g     F .text	0000006c btc_p2pkh_addr_from_hash160
00006eb0 g     F .text	0000010c btc_ecc_get_pubkey
0003ac48 g     F .text	000001d0 secp256k1_ecdsa_verify
00062c90 g     O .rwdata	00000004 alt_priority_mask
0004272c g     F .text	0000016c btc_tx_in_copy
00007800 g     F .text	0000003c btc_malloc
000571ec g     F .text	00000088 alt_ic_irq_enable
0004e9e4 g     F .text	0000001c __vfprintf_internal
0000c0a4 g     F .text	00000060 btc_script_op_free
000599f8 g     F .text	000001dc altera_avalon_uart_read
0005602c g     F .text	0000005c _wctomb_r
00056e20 g     F .text	00000024 __env_lock
00047330 g     F .text	000008fc .hidden __subdf3
0003c3b4 g     F .text	000002ec secp256k1_ecdsa_sign_recoverable
0003e3f4 g     F .text	00000048 ser_u32
000589e4 g     F .text	00000098 alt_epcs_flash_read
00043474 g     F .text	000000d0 btc_tx_add_puzzle_out
00051e0c g     F .text	000000b0 __lo0bits
00043a90 g     F .text	000005e4 btc_tx_sign_input
00044964 g     F .text	00000128 utils_uint8_to_hex
00062c98 g     O .rwdata	00000008 alt_alarm_list
00002d54 g     F .text	00000080 initUart
0005a7a4 g     F .text	00000060 _do_ctors
000497f0 g     F .text	00000014 __sigtramp
00007bb8 g     F .text	00000038 btc_random_init_internal
00055f3c g     F .text	000000c0 wcrtomb
00056d24 g     F .text	000000d0 close
0003cfc4 g     F .text	0000008c bench_field_inverse_var
00002e44 g     F .text	0000005c GetCUart
0003e51c g     F .text	00000040 ser_u256
000576f0 g     F .text	00000084 alt_load
00044ba0 g     F .text	00000208 utils_uint256_sethex
0003b660 g     F .text	000001b0 secp256k1_ec_pubkey_tweak_add
00044a8c g     F .text	000000d8 utils_reverse_hex
00064dd8 g     O .bss	00000002 TxHead
00055cb0 g     F .text	00000080 fputwc
000497b4 g     F .text	00000014 raise
0004814c g     F .text	00000014 free
00050c28 g     F .text	00000004 __sinit_lock_acquire
0005a13c g     F .text	0000011c epcs_write_buffer
00051b80 g     F .text	00000120 __multadd
00051b58 g     F .text	00000028 _Bfree
0004811c g     F .text	0000001c _getenv_r
00064dda g     O .bss	00000002 TxTail



Disassembly of section .entry:

00000000 <__reset>:
#if NIOS2_ICACHE_SIZE > 0 && defined(ALT_ALLOW_CODE_AT_RESET) && (!defined(ALT_SIM_OPTIMIZE) || defined(NIOS2_ECC_PRESENT))
    /* Assume the instruction cache size is always a power of two. */
#if NIOS2_ICACHE_SIZE > 0x8000
    movhi r2, %hi(NIOS2_ICACHE_SIZE)
#else
    movui r2, NIOS2_ICACHE_SIZE
   0:	00840014 	movui	r2,4096
#endif

0:
    initi r2
   4:	1001483a 	initi	r2
    addi r2, r2, -NIOS2_ICACHE_LINE_SIZE
   8:	10bff804 	addi	r2,r2,-32
    bgt r2, zero, 0b
   c:	00bffd16 	blt	zero,r2,4 <__alt_mem_epcs_flash_controller+0xfdfef004>
 * Jump to the _start entry point in the .text section if reset code
 * is allowed or if optimizing for RTL simulation.
 */
#if defined(ALT_ALLOW_CODE_AT_RESET) || defined(ALT_SIM_OPTIMIZE)
    /* Jump to the _start entry point in the .text section. */
    movhi r1, %hi(_start)
  10:	00400034 	movhi	at,0
    ori r1, r1, %lo(_start)
  14:	08409114 	ori	at,at,580
    jmp r1
  18:	0800683a 	jmp	at
  1c:	00000000 	call	0 <__reset>

Disassembly of section .exceptions:

00000020 <alt_exception>:

#else /* ALT_EXCEPTION_STACK disabled */
        /* 
         * Reserve space on normal stack for registers about to be pushed.
         */
        addi  sp, sp, -76
  20:	deffed04 	addi	sp,sp,-76
         * documentation for details).
         *
         * Leave a gap in the stack frame at 4(sp) for the muldiv handler to
         * store zero into.
         */
        stw   ra,  0(sp)
  24:	dfc00015 	stw	ra,0(sp)
        stw   r1,   8(sp)
  28:	d8400215 	stw	at,8(sp)
        stw   r2,  12(sp)
  2c:	d8800315 	stw	r2,12(sp)
        stw   r3,  16(sp)
  30:	d8c00415 	stw	r3,16(sp)
        stw   r4,  20(sp)
  34:	d9000515 	stw	r4,20(sp)
        stw   r5,  24(sp)
  38:	d9400615 	stw	r5,24(sp)
        stw   r6,  28(sp)
  3c:	d9800715 	stw	r6,28(sp)
        stw   r7,  32(sp)
  40:	d9c00815 	stw	r7,32(sp)
        rdctl r5, estatus   /* Read early to avoid usage stall */
  44:	000b307a 	rdctl	r5,estatus
        stw   r8,  36(sp)
  48:	da000915 	stw	r8,36(sp)
        stw   r9,  40(sp)
  4c:	da400a15 	stw	r9,40(sp)
        stw   r10, 44(sp)
  50:	da800b15 	stw	r10,44(sp)
        stw   r11, 48(sp)
  54:	dac00c15 	stw	r11,48(sp)
        stw   r12, 52(sp)
  58:	db000d15 	stw	r12,52(sp)
        stw   r13, 56(sp)
  5c:	db400e15 	stw	r13,56(sp)
        stw   r14, 60(sp)
  60:	db800f15 	stw	r14,60(sp)
        stw   r15, 64(sp)
  64:	dbc01015 	stw	r15,64(sp)
        /*
         * ea-4 contains the address of the instruction being executed
         * when the exception occured. For interrupt exceptions, we will
         * will be re-issue the isntruction. Store it in 72(sp)
         */
        stw   r5,  68(sp)  /* estatus */
  68:	d9401115 	stw	r5,68(sp)
        addi  r15, ea, -4  /* instruction that caused exception */
  6c:	ebffff04 	addi	r15,ea,-4
        stw   r15,  72(sp)
  70:	dbc01215 	stw	r15,72(sp)
#else
        /*
         * Test to see if the exception was a software exception or caused 
         * by an external interrupt, and vector accordingly.
         */
        rdctl r4, ipending
  74:	0009313a 	rdctl	r4,ipending
        andi  r2, r5, 1
  78:	2880004c 	andi	r2,r5,1
        beq   r2, zero, .Lnot_irq
  7c:	10000326 	beq	r2,zero,8c <alt_exception+0x6c>
        beq   r4, zero, .Lnot_irq
  80:	20000226 	beq	r4,zero,8c <alt_exception+0x6c>
        /*
         * Now that all necessary registers have been preserved, call 
         * alt_irq_handler() to process the interrupts.
         */

        call alt_irq_handler
  84:	00000fc0 	call	fc <alt_irq_handler>

        .section .exceptions.irqreturn, "xa"

        br    .Lexception_exit
  88:	00000706 	br	a8 <alt_exception+0x88>
         * upon completion, so we write ea (address of instruction *after*
         * the one where the exception occured) into 72(sp). The actual
         * instruction that caused the exception is written in r2, which these
         * handlers will utilize.
         */
        stw ea, 72(sp) /* EA is PC+4 so will skip over instruction causing exception */
  8c:	df401215 	stw	ea,72(sp)
.Lunknown_16bit:
        addi.n r4, r4, 2 /* Need PC+2 to skip over instruction causing exception */
        stw r4, 72(sp)

#else /* CDX is not Enabled and all instructions are 32bits */
        ldw r2, -4(ea) /* Instruction value that caused exception */
  90:	e8bfff17 	ldw	r2,-4(ea)
         * debugger is present) or go into an infinite loop since the
         * handling behavior is undefined; in that case we will not return here.
         */

        /* Load exception-causing address as first argument (r4) */
        addi   r4, ea, -4
  94:	e93fff04 	addi	r4,ea,-4

        /* Call the instruction-exception entry */
        call   alt_instruction_exception_entry
  98:	00001d00 	call	1d0 <alt_instruction_exception_entry>
         * instruction
         *
         * Return code was 0: Skip. The instruction after the exception is
         * already stored in 72(sp).
         */
        bne   r2, r0, .Lexception_exit
  9c:	1000021e 	bne	r2,zero,a8 <alt_exception+0x88>

        /*
         * Otherwise, modify 72(sp) to re-issue the instruction that caused the
         * exception.
         */
        addi  r15, ea, -4  /* instruction that caused exception */
  a0:	ebffff04 	addi	r15,ea,-4
        stw   r15,  72(sp)
  a4:	dbc01215 	stw	r15,72(sp)
        /* 
         * Restore the saved registers, so that all general purpose registers 
         * have been restored to their state at the time the interrupt occured.
         */

        ldw   r5,  68(sp)
  a8:	d9401117 	ldw	r5,68(sp)
        ldw   ea,  72(sp)  /* This becomes the PC once eret is executed */
  ac:	df401217 	ldw	ea,72(sp)
        ldw   ra,   0(sp)
  b0:	dfc00017 	ldw	ra,0(sp)

        wrctl estatus, r5
  b4:	2801707a 	wrctl	estatus,r5

        ldw   r1,   8(sp)
  b8:	d8400217 	ldw	at,8(sp)
        ldw   r2,  12(sp)
  bc:	d8800317 	ldw	r2,12(sp)
        ldw   r3,  16(sp)
  c0:	d8c00417 	ldw	r3,16(sp)
        ldw   r4,  20(sp)
  c4:	d9000517 	ldw	r4,20(sp)
        ldw   r5,  24(sp)
  c8:	d9400617 	ldw	r5,24(sp)
        ldw   r6,  28(sp)
  cc:	d9800717 	ldw	r6,28(sp)
        ldw   r7,  32(sp)
  d0:	d9c00817 	ldw	r7,32(sp)

#if defined(ALT_EXCEPTION_STACK) && defined(ALT_STACK_CHECK)
        ldw   et, %gprel(alt_exception_old_stack_limit)(gp)
#endif

        ldw   r8,  36(sp)
  d4:	da000917 	ldw	r8,36(sp)
        ldw   r9,  40(sp)
  d8:	da400a17 	ldw	r9,40(sp)
        ldw   r10, 44(sp)
  dc:	da800b17 	ldw	r10,44(sp)
        ldw   r11, 48(sp)
  e0:	dac00c17 	ldw	r11,48(sp)
        ldw   r12, 52(sp)
  e4:	db000d17 	ldw	r12,52(sp)
        ldw   r13, 56(sp)
  e8:	db400e17 	ldw	r13,56(sp)
        ldw   r14, 60(sp)
  ec:	db800f17 	ldw	r14,60(sp)
        ldw   r15, 64(sp)
  f0:	dbc01017 	ldw	r15,64(sp)
        stw   et, %gprel(alt_stack_limit_value)(gp)
        stw   zero, %gprel(alt_exception_old_stack_limit)(gp)
#endif /* ALT_STACK_CHECK */
        ldw   sp,  76(sp)
#else /* ALT_EXCEPTION_STACK disabled */
        addi  sp, sp, 76
  f4:	dec01304 	addi	sp,sp,76

        /*
         * Return to the interrupted instruction.
         */

        eret
  f8:	ef80083a 	eret

000000fc <alt_irq_handler>:
 * instruction is present if the macro ALT_CI_INTERRUPT_VECTOR defined.
 */

void alt_irq_handler (void) __attribute__ ((section (".exceptions")));
void alt_irq_handler (void)
{
  fc:	defff904 	addi	sp,sp,-28
 100:	dfc00615 	stw	ra,24(sp)
 104:	df000515 	stw	fp,20(sp)
 108:	df000504 	addi	fp,sp,20
  
  /*
   * Notify the operating system that we are at interrupt level.
   */ 
  
  ALT_OS_INT_ENTER();
 10c:	0001883a 	nop
#ifndef NIOS2_EIC_PRESENT
static ALT_INLINE alt_u32 ALT_ALWAYS_INLINE alt_irq_pending (void)
{
  alt_u32 active;

  NIOS2_READ_IPENDING (active);
 110:	0005313a 	rdctl	r2,ipending
 114:	e0bffe15 	stw	r2,-8(fp)

  return active;
 118:	e0bffe17 	ldw	r2,-8(fp)
   * Consider the case where the high priority interupt is asserted during
   * the interrupt entry sequence for a lower priority interrupt to see why
   * this is the case.
   */

  active = alt_irq_pending ();
 11c:	e0bffb15 	stw	r2,-20(fp)

  do
  {
    i = 0;
 120:	e03ffd15 	stw	zero,-12(fp)
    mask = 1;
 124:	00800044 	movi	r2,1
 128:	e0bffc15 	stw	r2,-16(fp)
     * called to clear the interrupt condition.
     */

    do
    {
      if (active & mask)
 12c:	e0fffb17 	ldw	r3,-20(fp)
 130:	e0bffc17 	ldw	r2,-16(fp)
 134:	1884703a 	and	r2,r3,r2
 138:	10001426 	beq	r2,zero,18c <alt_irq_handler+0x90>
      { 
#ifdef ALT_ENHANCED_INTERRUPT_API_PRESENT
        alt_irq[i].handler(alt_irq[i].context); 
 13c:	008001b4 	movhi	r2,6
 140:	109f9604 	addi	r2,r2,32344
 144:	e0fffd17 	ldw	r3,-12(fp)
 148:	180690fa 	slli	r3,r3,3
 14c:	10c5883a 	add	r2,r2,r3
 150:	10c00017 	ldw	r3,0(r2)
 154:	008001b4 	movhi	r2,6
 158:	109f9604 	addi	r2,r2,32344
 15c:	e13ffd17 	ldw	r4,-12(fp)
 160:	200890fa 	slli	r4,r4,3
 164:	1105883a 	add	r2,r2,r4
 168:	10800104 	addi	r2,r2,4
 16c:	10800017 	ldw	r2,0(r2)
 170:	1009883a 	mov	r4,r2
 174:	183ee83a 	callr	r3
#else
        alt_irq[i].handler(alt_irq[i].context, i); 
#endif
        break;
 178:	0001883a 	nop
#ifndef NIOS2_EIC_PRESENT
static ALT_INLINE alt_u32 ALT_ALWAYS_INLINE alt_irq_pending (void)
{
  alt_u32 active;

  NIOS2_READ_IPENDING (active);
 17c:	0005313a 	rdctl	r2,ipending
 180:	e0bfff15 	stw	r2,-4(fp)

  return active;
 184:	e0bfff17 	ldw	r2,-4(fp)
 188:	00000706 	br	1a8 <alt_irq_handler+0xac>
      }
      mask <<= 1;
 18c:	e0bffc17 	ldw	r2,-16(fp)
 190:	1085883a 	add	r2,r2,r2
 194:	e0bffc15 	stw	r2,-16(fp)
      i++;
 198:	e0bffd17 	ldw	r2,-12(fp)
 19c:	10800044 	addi	r2,r2,1
 1a0:	e0bffd15 	stw	r2,-12(fp)

    } while (1);
 1a4:	003fe106 	br	12c <__alt_mem_epcs_flash_controller+0xfdfef12c>

    active = alt_irq_pending ();
 1a8:	e0bffb15 	stw	r2,-20(fp)
    
  } while (active);
 1ac:	e0bffb17 	ldw	r2,-20(fp)
 1b0:	103fdb1e 	bne	r2,zero,120 <__alt_mem_epcs_flash_controller+0xfdfef120>

  /*
   * Notify the operating system that interrupt processing is complete.
   */ 

  ALT_OS_INT_EXIT();
 1b4:	0001883a 	nop
}
 1b8:	0001883a 	nop
 1bc:	e037883a 	mov	sp,fp
 1c0:	dfc00117 	ldw	ra,4(sp)
 1c4:	df000017 	ldw	fp,0(sp)
 1c8:	dec00204 	addi	sp,sp,8
 1cc:	f800283a 	ret

000001d0 <alt_instruction_exception_entry>:
 * that handler if it has been registered. Absent a handler, it will
 * break break or hang as discussed below.
 */
int 
alt_instruction_exception_entry (alt_u32 exception_pc)
{
 1d0:	defffb04 	addi	sp,sp,-20
 1d4:	dfc00415 	stw	ra,16(sp)
 1d8:	df000315 	stw	fp,12(sp)
 1dc:	df000304 	addi	fp,sp,12
 1e0:	e13fff15 	stw	r4,-4(fp)
 * NIOS2_EXCEPTION_CAUSE_NOT_PRESENT. Your handling routine should
 * check the validity of the cause argument before proceeding.
 */
#ifdef NIOS2_HAS_EXTRA_EXCEPTION_INFO
  /* Get exception cause & "badaddr" */
  NIOS2_READ_EXCEPTION(cause);
 1e4:	000531fa 	rdctl	r2,exception
 1e8:	e0bffd15 	stw	r2,-12(fp)
  cause = ( (cause & NIOS2_EXCEPTION_REG_CAUSE_MASK) >>
 1ec:	e0bffd17 	ldw	r2,-12(fp)
 1f0:	10801f0c 	andi	r2,r2,124
 1f4:	1004d0ba 	srli	r2,r2,2
 1f8:	e0bffd15 	stw	r2,-12(fp)
              NIOS2_EXCEPTION_REG_CAUSE_OFST );

  NIOS2_READ_BADADDR(badaddr);
 1fc:	0005333a 	rdctl	r2,badaddr
 200:	e0bffe15 	stw	r2,-8(fp)
#else
  cause = NIOS2_EXCEPTION_CAUSE_NOT_PRESENT;
  badaddr = 0;
#endif /* NIOS2_HAS_EXTRA_EXCEPTION_INFO */

  if(alt_instruction_exception_handler) {
 204:	d0a88a17 	ldw	r2,-24024(gp)
 208:	10000726 	beq	r2,zero,228 <alt_instruction_exception_entry+0x58>
     * Call handler. Its return value indicates whether the exception-causing
     * instruction should be re-issued. The code that called us,
     * alt_eceptions_entry.S, will look at this value and adjust the ea
     * register as necessary
     */
    return alt_instruction_exception_handler(cause, exception_pc, badaddr);
 20c:	d0a88a17 	ldw	r2,-24024(gp)
 210:	e0fffd17 	ldw	r3,-12(fp)
 214:	e1bffe17 	ldw	r6,-8(fp)
 218:	e17fff17 	ldw	r5,-4(fp)
 21c:	1809883a 	mov	r4,r3
 220:	103ee83a 	callr	r2
 224:	00000206 	br	230 <alt_instruction_exception_entry+0x60>
   *    (a peripheral which negates its interrupt output before its
   *    interrupt handler has been executed will cause spurious interrupts)
   */
  else {
#ifdef NIOS2_HAS_DEBUG_STUB
    NIOS2_BREAK();
 228:	003da03a 	break	0
      ;
#endif /* NIOS2_HAS_DEBUG_STUB */
  }

  /* We should not get here. Remove compiler warning. */
  return NIOS2_EXCEPTION_RETURN_REISSUE_INST;
 22c:	0005883a 	mov	r2,zero
}
 230:	e037883a 	mov	sp,fp
 234:	dfc00117 	ldw	ra,4(sp)
 238:	df000017 	ldw	fp,0(sp)
 23c:	dec00204 	addi	sp,sp,8
 240:	f800283a 	ret

Disassembly of section .text:

00000244 <_start>:

    /* Assume the data cache size is always a power of two. */
#if NIOS2_DCACHE_SIZE > 0x8000
    movhi r2, %hi(NIOS2_DCACHE_SIZE)
#else
    movui r2, NIOS2_DCACHE_SIZE
     244:	00820014 	movui	r2,2048
#endif

0:
    initd 0(r2)
     248:	10000033 	initd	0(r2)
#ifdef NIOS2_ECC_PRESENT
    addi r2, r2, -4
#else
    addi r2, r2, -NIOS2_DCACHE_LINE_SIZE
     24c:	10bff804 	addi	r2,r2,-32
#endif
    bgt r2, zero, 0b
     250:	00bffd16 	blt	zero,r2,248 <__alt_mem_epcs_flash_controller+0xfdfef248>

    /*
     * Now that the caches are initialized, set up the stack pointer and global pointer.
     * The values provided by the linker are assumed to be correctly aligned.
     */
    movhi sp, %hi(__alt_stack_pointer)
     254:	06c08034 	movhi	sp,512
    ori sp, sp, %lo(__alt_stack_pointer)
     258:	dec00014 	ori	sp,sp,0
    movhi gp, %hi(_gp)
     25c:	068001b4 	movhi	gp,6
    ori gp, gp, %lo(_gp)
     260:	d6ab0114 	ori	gp,gp,44036
 */
#ifndef ALT_SIM_OPTIMIZE
    /* Log that the BSS is about to be cleared. */
    ALT_LOG_PUTS(alt_log_msg_bss)

    movhi r2, %hi(__bss_start)
     264:	008001b4 	movhi	r2,6
    ori r2, r2, %lo(__bss_start)
     268:	10937614 	ori	r2,r2,19928

    movhi r3, %hi(__bss_end)
     26c:	00c001b4 	movhi	r3,6
    ori r3, r3, %lo(__bss_end)
     270:	18dfd614 	ori	r3,r3,32600

    beq r2, r3, 1f
     274:	10c00326 	beq	r2,r3,284 <_start+0x40>

0:
    stw zero, (r2)
     278:	10000015 	stw	zero,0(r2)
    addi r2, r2, 4
     27c:	10800104 	addi	r2,r2,4
    bltu r2, r3, 0b
     280:	10fffd36 	bltu	r2,r3,278 <__alt_mem_epcs_flash_controller+0xfdfef278>
     * section aren't defined until alt_load() has been called).
     */
    mov   et, zero
#endif

    call alt_load
     284:	00576f00 	call	576f0 <alt_load>

    /* Log that alt_main is about to be called. */
    ALT_LOG_PUTS(alt_log_msg_alt_main)

    /* Call the C entry point. It should never return. */
    call alt_main
     288:	00578840 	call	57884 <alt_main>

0000028c <alt_after_alt_main>:

    /* Wait in infinite loop in case alt_main does return. */
alt_after_alt_main:
    br alt_after_alt_main
     28c:	003fff06 	br	28c <__alt_mem_epcs_flash_controller+0xfdfef28c>

00000290 <hashmap_new>:
} hashmap_map;

/*
 * Return an empty hashmap, or NULL on failure.
 */
map_t hashmap_new() {
     290:	defffd04 	addi	sp,sp,-12
     294:	dfc00215 	stw	ra,8(sp)
     298:	df000115 	stw	fp,4(sp)
     29c:	df000104 	addi	fp,sp,4
	hashmap_map* m = (hashmap_map*) malloc(sizeof(hashmap_map));
     2a0:	01000304 	movi	r4,12
     2a4:	00481380 	call	48138 <malloc>
     2a8:	e0bfff15 	stw	r2,-4(fp)
	if(!m) goto err;
     2ac:	e0bfff17 	ldw	r2,-4(fp)
     2b0:	10001026 	beq	r2,zero,2f4 <hashmap_new+0x64>

	m->data = (hashmap_element*) calloc(INITIAL_SIZE, sizeof(hashmap_element));
     2b4:	01400304 	movi	r5,12
     2b8:	01004004 	movi	r4,256
     2bc:	0047e180 	call	47e18 <calloc>
     2c0:	1007883a 	mov	r3,r2
     2c4:	e0bfff17 	ldw	r2,-4(fp)
     2c8:	10c00215 	stw	r3,8(r2)
	if(!m->data) goto err;
     2cc:	e0bfff17 	ldw	r2,-4(fp)
     2d0:	10800217 	ldw	r2,8(r2)
     2d4:	10000926 	beq	r2,zero,2fc <hashmap_new+0x6c>

	m->table_size = INITIAL_SIZE;
     2d8:	e0bfff17 	ldw	r2,-4(fp)
     2dc:	00c04004 	movi	r3,256
     2e0:	10c00015 	stw	r3,0(r2)
	m->size = 0;
     2e4:	e0bfff17 	ldw	r2,-4(fp)
     2e8:	10000115 	stw	zero,4(r2)

	return m;
     2ec:	e0bfff17 	ldw	r2,-4(fp)
     2f0:	00000806 	br	314 <hashmap_new+0x84>
/*
 * Return an empty hashmap, or NULL on failure.
 */
map_t hashmap_new() {
	hashmap_map* m = (hashmap_map*) malloc(sizeof(hashmap_map));
	if(!m) goto err;
     2f4:	0001883a 	nop
     2f8:	00000106 	br	300 <hashmap_new+0x70>

	m->data = (hashmap_element*) calloc(INITIAL_SIZE, sizeof(hashmap_element));
	if(!m->data) goto err;
     2fc:	0001883a 	nop
	m->table_size = INITIAL_SIZE;
	m->size = 0;

	return m;
	err:
		if (m)
     300:	e0bfff17 	ldw	r2,-4(fp)
     304:	10000226 	beq	r2,zero,310 <hashmap_new+0x80>
			hashmap_free(m);
     308:	e13fff17 	ldw	r4,-4(fp)
     30c:	0000b300 	call	b30 <hashmap_free>
		return NULL;
     310:	0005883a 	mov	r2,zero
}
     314:	e037883a 	mov	sp,fp
     318:	dfc00117 	ldw	ra,4(sp)
     31c:	df000017 	ldw	fp,0(sp)
     320:	dec00204 	addi	sp,sp,8
     324:	f800283a 	ret

00000328 <crc32>:
   };

/* Return a 32-bit CRC of the contents of the buffer. */

unsigned long crc32(const unsigned char *s, unsigned int len)
{
     328:	defffb04 	addi	sp,sp,-20
     32c:	df000415 	stw	fp,16(sp)
     330:	df000404 	addi	fp,sp,16
     334:	e13ffe15 	stw	r4,-8(fp)
     338:	e17fff15 	stw	r5,-4(fp)
  unsigned int i;
  unsigned long crc32val;

  crc32val = 0;
     33c:	e03ffd15 	stw	zero,-12(fp)
  for (i = 0;  i < len;  i ++)
     340:	e03ffc15 	stw	zero,-16(fp)
     344:	00001506 	br	39c <crc32+0x74>
    {
      crc32val =
	crc32_tab[(crc32val ^ s[i]) & 0xff] ^
     348:	e0fffe17 	ldw	r3,-8(fp)
     34c:	e0bffc17 	ldw	r2,-16(fp)
     350:	1885883a 	add	r2,r3,r2
     354:	10800003 	ldbu	r2,0(r2)
     358:	10c03fcc 	andi	r3,r2,255
     35c:	e0bffd17 	ldw	r2,-12(fp)
     360:	1884f03a 	xor	r2,r3,r2
     364:	10c03fcc 	andi	r3,r2,255
     368:	008001b4 	movhi	r2,6
     36c:	1082de04 	addi	r2,r2,2936
     370:	18c7883a 	add	r3,r3,r3
     374:	18c7883a 	add	r3,r3,r3
     378:	10c5883a 	add	r2,r2,r3
     37c:	10c00017 	ldw	r3,0(r2)
	  (crc32val >> 8);
     380:	e0bffd17 	ldw	r2,-12(fp)
     384:	1004d23a 	srli	r2,r2,8
  unsigned long crc32val;

  crc32val = 0;
  for (i = 0;  i < len;  i ++)
    {
      crc32val =
     388:	1884f03a 	xor	r2,r3,r2
     38c:	e0bffd15 	stw	r2,-12(fp)
{
  unsigned int i;
  unsigned long crc32val;

  crc32val = 0;
  for (i = 0;  i < len;  i ++)
     390:	e0bffc17 	ldw	r2,-16(fp)
     394:	10800044 	addi	r2,r2,1
     398:	e0bffc15 	stw	r2,-16(fp)
     39c:	e0fffc17 	ldw	r3,-16(fp)
     3a0:	e0bfff17 	ldw	r2,-4(fp)
     3a4:	18bfe836 	bltu	r3,r2,348 <__alt_mem_epcs_flash_controller+0xfdfef348>
    {
      crc32val =
	crc32_tab[(crc32val ^ s[i]) & 0xff] ^
	  (crc32val >> 8);
    }
  return crc32val;
     3a8:	e0bffd17 	ldw	r2,-12(fp)
}
     3ac:	e037883a 	mov	sp,fp
     3b0:	df000017 	ldw	fp,0(sp)
     3b4:	dec00104 	addi	sp,sp,4
     3b8:	f800283a 	ret

000003bc <hashmap_hash_int>:

/*
 * Hashing function for a string
 */
unsigned int hashmap_hash_int(hashmap_map * m, char* keystring){
     3bc:	defffb04 	addi	sp,sp,-20
     3c0:	dfc00415 	stw	ra,16(sp)
     3c4:	df000315 	stw	fp,12(sp)
     3c8:	df000304 	addi	fp,sp,12
     3cc:	e13ffe15 	stw	r4,-8(fp)
     3d0:	e17fff15 	stw	r5,-4(fp)

    unsigned long key = crc32((unsigned char*)(keystring), strlen(keystring));
     3d4:	e13fff17 	ldw	r4,-4(fp)
     3d8:	0049cc80 	call	49cc8 <strlen>
     3dc:	100b883a 	mov	r5,r2
     3e0:	e13fff17 	ldw	r4,-4(fp)
     3e4:	00003280 	call	328 <crc32>
     3e8:	e0bffd15 	stw	r2,-12(fp)

	/* Robert Jenkins' 32 bit Mix Function */
	key += (key << 12);
     3ec:	e0bffd17 	ldw	r2,-12(fp)
     3f0:	1004933a 	slli	r2,r2,12
     3f4:	e0fffd17 	ldw	r3,-12(fp)
     3f8:	1885883a 	add	r2,r3,r2
     3fc:	e0bffd15 	stw	r2,-12(fp)
	key ^= (key >> 22);
     400:	e0bffd17 	ldw	r2,-12(fp)
     404:	1004d5ba 	srli	r2,r2,22
     408:	e0fffd17 	ldw	r3,-12(fp)
     40c:	1884f03a 	xor	r2,r3,r2
     410:	e0bffd15 	stw	r2,-12(fp)
	key += (key << 4);
     414:	e0bffd17 	ldw	r2,-12(fp)
     418:	1004913a 	slli	r2,r2,4
     41c:	e0fffd17 	ldw	r3,-12(fp)
     420:	1885883a 	add	r2,r3,r2
     424:	e0bffd15 	stw	r2,-12(fp)
	key ^= (key >> 9);
     428:	e0bffd17 	ldw	r2,-12(fp)
     42c:	1004d27a 	srli	r2,r2,9
     430:	e0fffd17 	ldw	r3,-12(fp)
     434:	1884f03a 	xor	r2,r3,r2
     438:	e0bffd15 	stw	r2,-12(fp)
	key += (key << 10);
     43c:	e0bffd17 	ldw	r2,-12(fp)
     440:	100492ba 	slli	r2,r2,10
     444:	e0fffd17 	ldw	r3,-12(fp)
     448:	1885883a 	add	r2,r3,r2
     44c:	e0bffd15 	stw	r2,-12(fp)
	key ^= (key >> 2);
     450:	e0bffd17 	ldw	r2,-12(fp)
     454:	1004d0ba 	srli	r2,r2,2
     458:	e0fffd17 	ldw	r3,-12(fp)
     45c:	1884f03a 	xor	r2,r3,r2
     460:	e0bffd15 	stw	r2,-12(fp)
	key += (key << 7);
     464:	e0bffd17 	ldw	r2,-12(fp)
     468:	100491fa 	slli	r2,r2,7
     46c:	e0fffd17 	ldw	r3,-12(fp)
     470:	1885883a 	add	r2,r3,r2
     474:	e0bffd15 	stw	r2,-12(fp)
	key ^= (key >> 12);
     478:	e0bffd17 	ldw	r2,-12(fp)
     47c:	1004d33a 	srli	r2,r2,12
     480:	e0fffd17 	ldw	r3,-12(fp)
     484:	1884f03a 	xor	r2,r3,r2
     488:	e0bffd15 	stw	r2,-12(fp)

	/* Knuth's Multiplicative Method */
	key = (key >> 3) * 2654435761;
     48c:	e0bffd17 	ldw	r2,-12(fp)
     490:	1006d0fa 	srli	r3,r2,3
     494:	00a78df4 	movhi	r2,40503
     498:	109e6c44 	addi	r2,r2,31153
     49c:	1885383a 	mul	r2,r3,r2
     4a0:	e0bffd15 	stw	r2,-12(fp)

	return key % m->table_size;
     4a4:	e0bffe17 	ldw	r2,-8(fp)
     4a8:	10800017 	ldw	r2,0(r2)
     4ac:	1007883a 	mov	r3,r2
     4b0:	e0bffd17 	ldw	r2,-12(fp)
     4b4:	180b883a 	mov	r5,r3
     4b8:	1009883a 	mov	r4,r2
     4bc:	004585c0 	call	4585c <__umodsi3>
}
     4c0:	e037883a 	mov	sp,fp
     4c4:	dfc00117 	ldw	ra,4(sp)
     4c8:	df000017 	ldw	fp,0(sp)
     4cc:	dec00204 	addi	sp,sp,8
     4d0:	f800283a 	ret

000004d4 <hashmap_hash>:

/*
 * Return the integer of the location in data
 * to store the point to the item, or MAP_FULL.
 */
int hashmap_hash(map_t in, char* key){
     4d4:	defff904 	addi	sp,sp,-28
     4d8:	dfc00615 	stw	ra,24(sp)
     4dc:	df000515 	stw	fp,20(sp)
     4e0:	df000504 	addi	fp,sp,20
     4e4:	e13ffe15 	stw	r4,-8(fp)
     4e8:	e17fff15 	stw	r5,-4(fp)
	int curr;
	int i;

	/* Cast the hashmap */
	hashmap_map* m = (hashmap_map *) in;
     4ec:	e0bffe17 	ldw	r2,-8(fp)
     4f0:	e0bffd15 	stw	r2,-12(fp)

	/* If full, return immediately */
	if(m->size >= (m->table_size/2)) return MAP_FULL;
     4f4:	e0bffd17 	ldw	r2,-12(fp)
     4f8:	10c00117 	ldw	r3,4(r2)
     4fc:	e0bffd17 	ldw	r2,-12(fp)
     500:	10800017 	ldw	r2,0(r2)
     504:	1008d7fa 	srli	r4,r2,31
     508:	2085883a 	add	r2,r4,r2
     50c:	1005d07a 	srai	r2,r2,1
     510:	18800216 	blt	r3,r2,51c <hashmap_hash+0x48>
     514:	00bfff84 	movi	r2,-2
     518:	00003206 	br	5e4 <hashmap_hash+0x110>

	/* Find the best index */
	curr = hashmap_hash_int(m, key);
     51c:	e17fff17 	ldw	r5,-4(fp)
     520:	e13ffd17 	ldw	r4,-12(fp)
     524:	00003bc0 	call	3bc <hashmap_hash_int>
     528:	e0bffb15 	stw	r2,-20(fp)

	/* Linear probing */
	for(i = 0; i< MAX_CHAIN_LENGTH; i++){
     52c:	e03ffc15 	stw	zero,-16(fp)
     530:	00002806 	br	5d4 <hashmap_hash+0x100>
		if(m->data[curr].in_use == 0)
     534:	e0bffd17 	ldw	r2,-12(fp)
     538:	10c00217 	ldw	r3,8(r2)
     53c:	e0bffb17 	ldw	r2,-20(fp)
     540:	10800324 	muli	r2,r2,12
     544:	1885883a 	add	r2,r3,r2
     548:	10800117 	ldw	r2,4(r2)
     54c:	1000021e 	bne	r2,zero,558 <hashmap_hash+0x84>
			return curr;
     550:	e0bffb17 	ldw	r2,-20(fp)
     554:	00002306 	br	5e4 <hashmap_hash+0x110>

		if(m->data[curr].in_use == 1 && (strcmp(m->data[curr].key,key)==0))
     558:	e0bffd17 	ldw	r2,-12(fp)
     55c:	10c00217 	ldw	r3,8(r2)
     560:	e0bffb17 	ldw	r2,-20(fp)
     564:	10800324 	muli	r2,r2,12
     568:	1885883a 	add	r2,r3,r2
     56c:	10800117 	ldw	r2,4(r2)
     570:	10800058 	cmpnei	r2,r2,1
     574:	10000c1e 	bne	r2,zero,5a8 <hashmap_hash+0xd4>
     578:	e0bffd17 	ldw	r2,-12(fp)
     57c:	10c00217 	ldw	r3,8(r2)
     580:	e0bffb17 	ldw	r2,-20(fp)
     584:	10800324 	muli	r2,r2,12
     588:	1885883a 	add	r2,r3,r2
     58c:	10800017 	ldw	r2,0(r2)
     590:	e17fff17 	ldw	r5,-4(fp)
     594:	1009883a 	mov	r4,r2
     598:	0049b100 	call	49b10 <strcmp>
     59c:	1000021e 	bne	r2,zero,5a8 <hashmap_hash+0xd4>
			return curr;
     5a0:	e0bffb17 	ldw	r2,-20(fp)
     5a4:	00000f06 	br	5e4 <hashmap_hash+0x110>

		curr = (curr + 1) % m->table_size;
     5a8:	e0bffb17 	ldw	r2,-20(fp)
     5ac:	10c00044 	addi	r3,r2,1
     5b0:	e0bffd17 	ldw	r2,-12(fp)
     5b4:	10800017 	ldw	r2,0(r2)
     5b8:	100b883a 	mov	r5,r2
     5bc:	1809883a 	mov	r4,r3
     5c0:	00457840 	call	45784 <__modsi3>
     5c4:	e0bffb15 	stw	r2,-20(fp)

	/* Find the best index */
	curr = hashmap_hash_int(m, key);

	/* Linear probing */
	for(i = 0; i< MAX_CHAIN_LENGTH; i++){
     5c8:	e0bffc17 	ldw	r2,-16(fp)
     5cc:	10800044 	addi	r2,r2,1
     5d0:	e0bffc15 	stw	r2,-16(fp)
     5d4:	e0bffc17 	ldw	r2,-16(fp)
     5d8:	10800210 	cmplti	r2,r2,8
     5dc:	103fd51e 	bne	r2,zero,534 <__alt_mem_epcs_flash_controller+0xfdfef534>
			return curr;

		curr = (curr + 1) % m->table_size;
	}

	return MAP_FULL;
     5e0:	00bfff84 	movi	r2,-2
}
     5e4:	e037883a 	mov	sp,fp
     5e8:	dfc00117 	ldw	ra,4(sp)
     5ec:	df000017 	ldw	fp,0(sp)
     5f0:	dec00204 	addi	sp,sp,8
     5f4:	f800283a 	ret

000005f8 <hashmap_rehash>:

/*
 * Doubles the size of the hashmap, and rehashes all the elements
 */
int hashmap_rehash(map_t in){
     5f8:	defff704 	addi	sp,sp,-36
     5fc:	dfc00815 	stw	ra,32(sp)
     600:	df000715 	stw	fp,28(sp)
     604:	df000704 	addi	fp,sp,28
     608:	e13fff15 	stw	r4,-4(fp)
	int i;
	int old_size;
	hashmap_element* curr;

	/* Setup the new elements */
	hashmap_map *m = (hashmap_map *) in;
     60c:	e0bfff17 	ldw	r2,-4(fp)
     610:	e0bffa15 	stw	r2,-24(fp)
	hashmap_element* temp = (hashmap_element *)
		calloc(2 * m->table_size, sizeof(hashmap_element));
     614:	e0bffa17 	ldw	r2,-24(fp)
     618:	10800017 	ldw	r2,0(r2)
     61c:	1085883a 	add	r2,r2,r2
	int old_size;
	hashmap_element* curr;

	/* Setup the new elements */
	hashmap_map *m = (hashmap_map *) in;
	hashmap_element* temp = (hashmap_element *)
     620:	01400304 	movi	r5,12
     624:	1009883a 	mov	r4,r2
     628:	0047e180 	call	47e18 <calloc>
     62c:	e0bffb15 	stw	r2,-20(fp)
		calloc(2 * m->table_size, sizeof(hashmap_element));
	if(!temp) return MAP_OMEM;
     630:	e0bffb17 	ldw	r2,-20(fp)
     634:	1000021e 	bne	r2,zero,640 <hashmap_rehash+0x48>
     638:	00bfffc4 	movi	r2,-1
     63c:	00003606 	br	718 <hashmap_rehash+0x120>

	/* Update the array */
	curr = m->data;
     640:	e0bffa17 	ldw	r2,-24(fp)
     644:	10800217 	ldw	r2,8(r2)
     648:	e0bffc15 	stw	r2,-16(fp)
	m->data = temp;
     64c:	e0bffa17 	ldw	r2,-24(fp)
     650:	e0fffb17 	ldw	r3,-20(fp)
     654:	10c00215 	stw	r3,8(r2)

	/* Update the size */
	old_size = m->table_size;
     658:	e0bffa17 	ldw	r2,-24(fp)
     65c:	10800017 	ldw	r2,0(r2)
     660:	e0bffd15 	stw	r2,-12(fp)
	m->table_size = 2 * m->table_size;
     664:	e0bffa17 	ldw	r2,-24(fp)
     668:	10800017 	ldw	r2,0(r2)
     66c:	1085883a 	add	r2,r2,r2
     670:	1007883a 	mov	r3,r2
     674:	e0bffa17 	ldw	r2,-24(fp)
     678:	10c00015 	stw	r3,0(r2)
	m->size = 0;
     67c:	e0bffa17 	ldw	r2,-24(fp)
     680:	10000115 	stw	zero,4(r2)

	/* Rehash the elements */
	for(i = 0; i < old_size; i++){
     684:	e03ff915 	stw	zero,-28(fp)
     688:	00001d06 	br	700 <hashmap_rehash+0x108>
        int status;

        if (curr[i].in_use == 0)
     68c:	e0bff917 	ldw	r2,-28(fp)
     690:	10800324 	muli	r2,r2,12
     694:	e0fffc17 	ldw	r3,-16(fp)
     698:	1885883a 	add	r2,r3,r2
     69c:	10800117 	ldw	r2,4(r2)
     6a0:	10001326 	beq	r2,zero,6f0 <hashmap_rehash+0xf8>
            continue;

		status = hashmap_put(m, curr[i].key, curr[i].data);
     6a4:	e0bff917 	ldw	r2,-28(fp)
     6a8:	10800324 	muli	r2,r2,12
     6ac:	e0fffc17 	ldw	r3,-16(fp)
     6b0:	1885883a 	add	r2,r3,r2
     6b4:	11000017 	ldw	r4,0(r2)
     6b8:	e0bff917 	ldw	r2,-28(fp)
     6bc:	10800324 	muli	r2,r2,12
     6c0:	e0fffc17 	ldw	r3,-16(fp)
     6c4:	1885883a 	add	r2,r3,r2
     6c8:	10800217 	ldw	r2,8(r2)
     6cc:	100d883a 	mov	r6,r2
     6d0:	200b883a 	mov	r5,r4
     6d4:	e13ffa17 	ldw	r4,-24(fp)
     6d8:	000072c0 	call	72c <hashmap_put>
     6dc:	e0bffe15 	stw	r2,-8(fp)
		if (status != MAP_OK)
     6e0:	e0bffe17 	ldw	r2,-8(fp)
     6e4:	10000326 	beq	r2,zero,6f4 <hashmap_rehash+0xfc>
			return status;
     6e8:	e0bffe17 	ldw	r2,-8(fp)
     6ec:	00000a06 	br	718 <hashmap_rehash+0x120>
	/* Rehash the elements */
	for(i = 0; i < old_size; i++){
        int status;

        if (curr[i].in_use == 0)
            continue;
     6f0:	0001883a 	nop
	old_size = m->table_size;
	m->table_size = 2 * m->table_size;
	m->size = 0;

	/* Rehash the elements */
	for(i = 0; i < old_size; i++){
     6f4:	e0bff917 	ldw	r2,-28(fp)
     6f8:	10800044 	addi	r2,r2,1
     6fc:	e0bff915 	stw	r2,-28(fp)
     700:	e0fff917 	ldw	r3,-28(fp)
     704:	e0bffd17 	ldw	r2,-12(fp)
     708:	18bfe016 	blt	r3,r2,68c <__alt_mem_epcs_flash_controller+0xfdfef68c>
		status = hashmap_put(m, curr[i].key, curr[i].data);
		if (status != MAP_OK)
			return status;
	}

	free(curr);
     70c:	e13ffc17 	ldw	r4,-16(fp)
     710:	004814c0 	call	4814c <free>

	return MAP_OK;
     714:	0005883a 	mov	r2,zero
}
     718:	e037883a 	mov	sp,fp
     71c:	dfc00117 	ldw	ra,4(sp)
     720:	df000017 	ldw	fp,0(sp)
     724:	dec00204 	addi	sp,sp,8
     728:	f800283a 	ret

0000072c <hashmap_put>:

/*
 * Add a pointer to the hashmap with some key
 */
int hashmap_put(map_t in, char* key, any_t value){
     72c:	defff904 	addi	sp,sp,-28
     730:	dfc00615 	stw	ra,24(sp)
     734:	df000515 	stw	fp,20(sp)
     738:	df000504 	addi	fp,sp,20
     73c:	e13ffd15 	stw	r4,-12(fp)
     740:	e17ffe15 	stw	r5,-8(fp)
     744:	e1bfff15 	stw	r6,-4(fp)
	int index;
	hashmap_map* m;

	/* Cast the hashmap */
	m = (hashmap_map *) in;
     748:	e0bffd17 	ldw	r2,-12(fp)
     74c:	e0bffc15 	stw	r2,-16(fp)

	/* Find a place to put our value */
	index = hashmap_hash(in, key);
     750:	e17ffe17 	ldw	r5,-8(fp)
     754:	e13ffd17 	ldw	r4,-12(fp)
     758:	00004d40 	call	4d4 <hashmap_hash>
     75c:	e0bffb15 	stw	r2,-20(fp)
	while(index == MAP_FULL){
     760:	00000a06 	br	78c <hashmap_put+0x60>
		if (hashmap_rehash(in) == MAP_OMEM) {
     764:	e13ffd17 	ldw	r4,-12(fp)
     768:	00005f80 	call	5f8 <hashmap_rehash>
     76c:	10bfffd8 	cmpnei	r2,r2,-1
     770:	1000021e 	bne	r2,zero,77c <hashmap_put+0x50>
			return MAP_OMEM;
     774:	00bfffc4 	movi	r2,-1
     778:	00002206 	br	804 <hashmap_put+0xd8>
		}
		index = hashmap_hash(in, key);
     77c:	e17ffe17 	ldw	r5,-8(fp)
     780:	e13ffd17 	ldw	r4,-12(fp)
     784:	00004d40 	call	4d4 <hashmap_hash>
     788:	e0bffb15 	stw	r2,-20(fp)
	/* Cast the hashmap */
	m = (hashmap_map *) in;

	/* Find a place to put our value */
	index = hashmap_hash(in, key);
	while(index == MAP_FULL){
     78c:	e0bffb17 	ldw	r2,-20(fp)
     790:	10bfffa0 	cmpeqi	r2,r2,-2
     794:	103ff31e 	bne	r2,zero,764 <__alt_mem_epcs_flash_controller+0xfdfef764>
		}
		index = hashmap_hash(in, key);
	}

	/* Set the data */
	m->data[index].data = value;
     798:	e0bffc17 	ldw	r2,-16(fp)
     79c:	10c00217 	ldw	r3,8(r2)
     7a0:	e0bffb17 	ldw	r2,-20(fp)
     7a4:	10800324 	muli	r2,r2,12
     7a8:	1885883a 	add	r2,r3,r2
     7ac:	e0ffff17 	ldw	r3,-4(fp)
     7b0:	10c00215 	stw	r3,8(r2)
	m->data[index].key = key;
     7b4:	e0bffc17 	ldw	r2,-16(fp)
     7b8:	10c00217 	ldw	r3,8(r2)
     7bc:	e0bffb17 	ldw	r2,-20(fp)
     7c0:	10800324 	muli	r2,r2,12
     7c4:	1885883a 	add	r2,r3,r2
     7c8:	e0fffe17 	ldw	r3,-8(fp)
     7cc:	10c00015 	stw	r3,0(r2)
	m->data[index].in_use = 1;
     7d0:	e0bffc17 	ldw	r2,-16(fp)
     7d4:	10c00217 	ldw	r3,8(r2)
     7d8:	e0bffb17 	ldw	r2,-20(fp)
     7dc:	10800324 	muli	r2,r2,12
     7e0:	1885883a 	add	r2,r3,r2
     7e4:	00c00044 	movi	r3,1
     7e8:	10c00115 	stw	r3,4(r2)
	m->size++;
     7ec:	e0bffc17 	ldw	r2,-16(fp)
     7f0:	10800117 	ldw	r2,4(r2)
     7f4:	10c00044 	addi	r3,r2,1
     7f8:	e0bffc17 	ldw	r2,-16(fp)
     7fc:	10c00115 	stw	r3,4(r2)

	return MAP_OK;
     800:	0005883a 	mov	r2,zero
}
     804:	e037883a 	mov	sp,fp
     808:	dfc00117 	ldw	ra,4(sp)
     80c:	df000017 	ldw	fp,0(sp)
     810:	dec00204 	addi	sp,sp,8
     814:	f800283a 	ret

00000818 <hashmap_get>:

/*
 * Get your pointer out of the hashmap with a key
 */
int hashmap_get(map_t in, char* key, any_t *arg){
     818:	defff704 	addi	sp,sp,-36
     81c:	dfc00815 	stw	ra,32(sp)
     820:	df000715 	stw	fp,28(sp)
     824:	df000704 	addi	fp,sp,28
     828:	e13ffd15 	stw	r4,-12(fp)
     82c:	e17ffe15 	stw	r5,-8(fp)
     830:	e1bfff15 	stw	r6,-4(fp)
	int curr;
	int i;
	hashmap_map* m;

	/* Cast the hashmap */
	m = (hashmap_map *) in;
     834:	e0bffd17 	ldw	r2,-12(fp)
     838:	e0bffb15 	stw	r2,-20(fp)

	/* Find data location */
	curr = hashmap_hash_int(m, key);
     83c:	e17ffe17 	ldw	r5,-8(fp)
     840:	e13ffb17 	ldw	r4,-20(fp)
     844:	00003bc0 	call	3bc <hashmap_hash_int>
     848:	e0bff915 	stw	r2,-28(fp)

	/* Linear probing, if necessary */
	for(i = 0; i<MAX_CHAIN_LENGTH; i++){
     84c:	e03ffa15 	stw	zero,-24(fp)
     850:	00002906 	br	8f8 <hashmap_get+0xe0>

        int in_use = m->data[curr].in_use;
     854:	e0bffb17 	ldw	r2,-20(fp)
     858:	10c00217 	ldw	r3,8(r2)
     85c:	e0bff917 	ldw	r2,-28(fp)
     860:	10800324 	muli	r2,r2,12
     864:	1885883a 	add	r2,r3,r2
     868:	10800117 	ldw	r2,4(r2)
     86c:	e0bffc15 	stw	r2,-16(fp)
        if (in_use == 1){
     870:	e0bffc17 	ldw	r2,-16(fp)
     874:	10800058 	cmpnei	r2,r2,1
     878:	1000141e 	bne	r2,zero,8cc <hashmap_get+0xb4>
            if (strcmp(m->data[curr].key,key)==0){
     87c:	e0bffb17 	ldw	r2,-20(fp)
     880:	10c00217 	ldw	r3,8(r2)
     884:	e0bff917 	ldw	r2,-28(fp)
     888:	10800324 	muli	r2,r2,12
     88c:	1885883a 	add	r2,r3,r2
     890:	10800017 	ldw	r2,0(r2)
     894:	e17ffe17 	ldw	r5,-8(fp)
     898:	1009883a 	mov	r4,r2
     89c:	0049b100 	call	49b10 <strcmp>
     8a0:	10000a1e 	bne	r2,zero,8cc <hashmap_get+0xb4>
                *arg = (m->data[curr].data);
     8a4:	e0bffb17 	ldw	r2,-20(fp)
     8a8:	10c00217 	ldw	r3,8(r2)
     8ac:	e0bff917 	ldw	r2,-28(fp)
     8b0:	10800324 	muli	r2,r2,12
     8b4:	1885883a 	add	r2,r3,r2
     8b8:	10c00217 	ldw	r3,8(r2)
     8bc:	e0bfff17 	ldw	r2,-4(fp)
     8c0:	10c00015 	stw	r3,0(r2)
                return MAP_OK;
     8c4:	0005883a 	mov	r2,zero
     8c8:	00001106 	br	910 <hashmap_get+0xf8>
            }
		}

		curr = (curr + 1) % m->table_size;
     8cc:	e0bff917 	ldw	r2,-28(fp)
     8d0:	10c00044 	addi	r3,r2,1
     8d4:	e0bffb17 	ldw	r2,-20(fp)
     8d8:	10800017 	ldw	r2,0(r2)
     8dc:	100b883a 	mov	r5,r2
     8e0:	1809883a 	mov	r4,r3
     8e4:	00457840 	call	45784 <__modsi3>
     8e8:	e0bff915 	stw	r2,-28(fp)

	/* Find data location */
	curr = hashmap_hash_int(m, key);

	/* Linear probing, if necessary */
	for(i = 0; i<MAX_CHAIN_LENGTH; i++){
     8ec:	e0bffa17 	ldw	r2,-24(fp)
     8f0:	10800044 	addi	r2,r2,1
     8f4:	e0bffa15 	stw	r2,-24(fp)
     8f8:	e0bffa17 	ldw	r2,-24(fp)
     8fc:	10800210 	cmplti	r2,r2,8
     900:	103fd41e 	bne	r2,zero,854 <__alt_mem_epcs_flash_controller+0xfdfef854>
		}

		curr = (curr + 1) % m->table_size;
	}

	*arg = NULL;
     904:	e0bfff17 	ldw	r2,-4(fp)
     908:	10000015 	stw	zero,0(r2)

	/* Not found */
	return MAP_MISSING;
     90c:	00bfff44 	movi	r2,-3
}
     910:	e037883a 	mov	sp,fp
     914:	dfc00117 	ldw	ra,4(sp)
     918:	df000017 	ldw	fp,0(sp)
     91c:	dec00204 	addi	sp,sp,8
     920:	f800283a 	ret

00000924 <hashmap_iterate>:
/*
 * Iterate the function parameter over each element in the hashmap.  The
 * additional any_t argument is passed to the function as its first
 * argument and the hashmap element is the second.
 */
int hashmap_iterate(map_t in, PFany f, any_t item) {
     924:	defff704 	addi	sp,sp,-36
     928:	dfc00815 	stw	ra,32(sp)
     92c:	df000715 	stw	fp,28(sp)
     930:	df000704 	addi	fp,sp,28
     934:	e13ffd15 	stw	r4,-12(fp)
     938:	e17ffe15 	stw	r5,-8(fp)
     93c:	e1bfff15 	stw	r6,-4(fp)
	int i;

	/* Cast the hashmap */
	hashmap_map* m = (hashmap_map*) in;
     940:	e0bffd17 	ldw	r2,-12(fp)
     944:	e0bffa15 	stw	r2,-24(fp)

	/* On empty hashmap, return immediately */
	if (hashmap_length(m) <= 0)
     948:	e13ffa17 	ldw	r4,-24(fp)
     94c:	0000b7c0 	call	b7c <hashmap_length>
     950:	00800216 	blt	zero,r2,95c <hashmap_iterate+0x38>
		return MAP_MISSING;
     954:	00bfff44 	movi	r2,-3
     958:	00002106 	br	9e0 <hashmap_iterate+0xbc>

	/* Linear probing */
	for(i = 0; i< m->table_size; i++)
     95c:	e03ff915 	stw	zero,-28(fp)
     960:	00001a06 	br	9cc <hashmap_iterate+0xa8>
		if(m->data[i].in_use != 0) {
     964:	e0bffa17 	ldw	r2,-24(fp)
     968:	10c00217 	ldw	r3,8(r2)
     96c:	e0bff917 	ldw	r2,-28(fp)
     970:	10800324 	muli	r2,r2,12
     974:	1885883a 	add	r2,r3,r2
     978:	10800117 	ldw	r2,4(r2)
     97c:	10001026 	beq	r2,zero,9c0 <hashmap_iterate+0x9c>
			any_t data = (any_t) (m->data[i].data);
     980:	e0bffa17 	ldw	r2,-24(fp)
     984:	10c00217 	ldw	r3,8(r2)
     988:	e0bff917 	ldw	r2,-28(fp)
     98c:	10800324 	muli	r2,r2,12
     990:	1885883a 	add	r2,r3,r2
     994:	10800217 	ldw	r2,8(r2)
     998:	e0bffb15 	stw	r2,-20(fp)
			int status = f(item, data);
     99c:	e0bffe17 	ldw	r2,-8(fp)
     9a0:	e17ffb17 	ldw	r5,-20(fp)
     9a4:	e13fff17 	ldw	r4,-4(fp)
     9a8:	103ee83a 	callr	r2
     9ac:	e0bffc15 	stw	r2,-16(fp)
			if (status != MAP_OK) {
     9b0:	e0bffc17 	ldw	r2,-16(fp)
     9b4:	10000226 	beq	r2,zero,9c0 <hashmap_iterate+0x9c>
				return status;
     9b8:	e0bffc17 	ldw	r2,-16(fp)
     9bc:	00000806 	br	9e0 <hashmap_iterate+0xbc>
	/* On empty hashmap, return immediately */
	if (hashmap_length(m) <= 0)
		return MAP_MISSING;

	/* Linear probing */
	for(i = 0; i< m->table_size; i++)
     9c0:	e0bff917 	ldw	r2,-28(fp)
     9c4:	10800044 	addi	r2,r2,1
     9c8:	e0bff915 	stw	r2,-28(fp)
     9cc:	e0bffa17 	ldw	r2,-24(fp)
     9d0:	10800017 	ldw	r2,0(r2)
     9d4:	e0fff917 	ldw	r3,-28(fp)
     9d8:	18bfe216 	blt	r3,r2,964 <__alt_mem_epcs_flash_controller+0xfdfef964>
			if (status != MAP_OK) {
				return status;
			}
		}

    return MAP_OK;
     9dc:	0005883a 	mov	r2,zero
}
     9e0:	e037883a 	mov	sp,fp
     9e4:	dfc00117 	ldw	ra,4(sp)
     9e8:	df000017 	ldw	fp,0(sp)
     9ec:	dec00204 	addi	sp,sp,8
     9f0:	f800283a 	ret

000009f4 <hashmap_remove>:

/*
 * Remove an element with that key from the map
 */
int hashmap_remove(map_t in, char* key){
     9f4:	defff804 	addi	sp,sp,-32
     9f8:	dfc00715 	stw	ra,28(sp)
     9fc:	df000615 	stw	fp,24(sp)
     a00:	df000604 	addi	fp,sp,24
     a04:	e13ffe15 	stw	r4,-8(fp)
     a08:	e17fff15 	stw	r5,-4(fp)
	int i;
	int curr;
	hashmap_map* m;

	/* Cast the hashmap */
	m = (hashmap_map *) in;
     a0c:	e0bffe17 	ldw	r2,-8(fp)
     a10:	e0bffc15 	stw	r2,-16(fp)

	/* Find key */
	curr = hashmap_hash_int(m, key);
     a14:	e17fff17 	ldw	r5,-4(fp)
     a18:	e13ffc17 	ldw	r4,-16(fp)
     a1c:	00003bc0 	call	3bc <hashmap_hash_int>
     a20:	e0bffb15 	stw	r2,-20(fp)

	/* Linear probing, if necessary */
	for(i = 0; i<MAX_CHAIN_LENGTH; i++){
     a24:	e03ffa15 	stw	zero,-24(fp)
     a28:	00003806 	br	b0c <hashmap_remove+0x118>

        int in_use = m->data[curr].in_use;
     a2c:	e0bffc17 	ldw	r2,-16(fp)
     a30:	10c00217 	ldw	r3,8(r2)
     a34:	e0bffb17 	ldw	r2,-20(fp)
     a38:	10800324 	muli	r2,r2,12
     a3c:	1885883a 	add	r2,r3,r2
     a40:	10800117 	ldw	r2,4(r2)
     a44:	e0bffd15 	stw	r2,-12(fp)
        if (in_use == 1){
     a48:	e0bffd17 	ldw	r2,-12(fp)
     a4c:	10800058 	cmpnei	r2,r2,1
     a50:	1000231e 	bne	r2,zero,ae0 <hashmap_remove+0xec>
            if (strcmp(m->data[curr].key,key)==0){
     a54:	e0bffc17 	ldw	r2,-16(fp)
     a58:	10c00217 	ldw	r3,8(r2)
     a5c:	e0bffb17 	ldw	r2,-20(fp)
     a60:	10800324 	muli	r2,r2,12
     a64:	1885883a 	add	r2,r3,r2
     a68:	10800017 	ldw	r2,0(r2)
     a6c:	e17fff17 	ldw	r5,-4(fp)
     a70:	1009883a 	mov	r4,r2
     a74:	0049b100 	call	49b10 <strcmp>
     a78:	1000191e 	bne	r2,zero,ae0 <hashmap_remove+0xec>
                /* Blank out the fields */
                m->data[curr].in_use = 0;
     a7c:	e0bffc17 	ldw	r2,-16(fp)
     a80:	10c00217 	ldw	r3,8(r2)
     a84:	e0bffb17 	ldw	r2,-20(fp)
     a88:	10800324 	muli	r2,r2,12
     a8c:	1885883a 	add	r2,r3,r2
     a90:	10000115 	stw	zero,4(r2)
                m->data[curr].data = NULL;
     a94:	e0bffc17 	ldw	r2,-16(fp)
     a98:	10c00217 	ldw	r3,8(r2)
     a9c:	e0bffb17 	ldw	r2,-20(fp)
     aa0:	10800324 	muli	r2,r2,12
     aa4:	1885883a 	add	r2,r3,r2
     aa8:	10000215 	stw	zero,8(r2)
                m->data[curr].key = NULL;
     aac:	e0bffc17 	ldw	r2,-16(fp)
     ab0:	10c00217 	ldw	r3,8(r2)
     ab4:	e0bffb17 	ldw	r2,-20(fp)
     ab8:	10800324 	muli	r2,r2,12
     abc:	1885883a 	add	r2,r3,r2
     ac0:	10000015 	stw	zero,0(r2)

                /* Reduce the size */
                m->size--;
     ac4:	e0bffc17 	ldw	r2,-16(fp)
     ac8:	10800117 	ldw	r2,4(r2)
     acc:	10ffffc4 	addi	r3,r2,-1
     ad0:	e0bffc17 	ldw	r2,-16(fp)
     ad4:	10c00115 	stw	r3,4(r2)
                return MAP_OK;
     ad8:	0005883a 	mov	r2,zero
     adc:	00000f06 	br	b1c <hashmap_remove+0x128>
            }
		}
		curr = (curr + 1) % m->table_size;
     ae0:	e0bffb17 	ldw	r2,-20(fp)
     ae4:	10c00044 	addi	r3,r2,1
     ae8:	e0bffc17 	ldw	r2,-16(fp)
     aec:	10800017 	ldw	r2,0(r2)
     af0:	100b883a 	mov	r5,r2
     af4:	1809883a 	mov	r4,r3
     af8:	00457840 	call	45784 <__modsi3>
     afc:	e0bffb15 	stw	r2,-20(fp)

	/* Find key */
	curr = hashmap_hash_int(m, key);

	/* Linear probing, if necessary */
	for(i = 0; i<MAX_CHAIN_LENGTH; i++){
     b00:	e0bffa17 	ldw	r2,-24(fp)
     b04:	10800044 	addi	r2,r2,1
     b08:	e0bffa15 	stw	r2,-24(fp)
     b0c:	e0bffa17 	ldw	r2,-24(fp)
     b10:	10800210 	cmplti	r2,r2,8
     b14:	103fc51e 	bne	r2,zero,a2c <__alt_mem_epcs_flash_controller+0xfdfefa2c>
		}
		curr = (curr + 1) % m->table_size;
	}

	/* Data not found */
	return MAP_MISSING;
     b18:	00bfff44 	movi	r2,-3
}
     b1c:	e037883a 	mov	sp,fp
     b20:	dfc00117 	ldw	ra,4(sp)
     b24:	df000017 	ldw	fp,0(sp)
     b28:	dec00204 	addi	sp,sp,8
     b2c:	f800283a 	ret

00000b30 <hashmap_free>:

/* Deallocate the hashmap */
void hashmap_free(map_t in){
     b30:	defffc04 	addi	sp,sp,-16
     b34:	dfc00315 	stw	ra,12(sp)
     b38:	df000215 	stw	fp,8(sp)
     b3c:	df000204 	addi	fp,sp,8
     b40:	e13fff15 	stw	r4,-4(fp)
	hashmap_map* m = (hashmap_map*) in;
     b44:	e0bfff17 	ldw	r2,-4(fp)
     b48:	e0bffe15 	stw	r2,-8(fp)
	free(m->data);
     b4c:	e0bffe17 	ldw	r2,-8(fp)
     b50:	10800217 	ldw	r2,8(r2)
     b54:	1009883a 	mov	r4,r2
     b58:	004814c0 	call	4814c <free>
	free(m);
     b5c:	e13ffe17 	ldw	r4,-8(fp)
     b60:	004814c0 	call	4814c <free>
}
     b64:	0001883a 	nop
     b68:	e037883a 	mov	sp,fp
     b6c:	dfc00117 	ldw	ra,4(sp)
     b70:	df000017 	ldw	fp,0(sp)
     b74:	dec00204 	addi	sp,sp,8
     b78:	f800283a 	ret

00000b7c <hashmap_length>:

/* Return the length of the hashmap */
int hashmap_length(map_t in){
     b7c:	defffd04 	addi	sp,sp,-12
     b80:	df000215 	stw	fp,8(sp)
     b84:	df000204 	addi	fp,sp,8
     b88:	e13fff15 	stw	r4,-4(fp)
	hashmap_map* m = (hashmap_map *) in;
     b8c:	e0bfff17 	ldw	r2,-4(fp)
     b90:	e0bffe15 	stw	r2,-8(fp)
	if(m != NULL) return m->size;
     b94:	e0bffe17 	ldw	r2,-8(fp)
     b98:	10000326 	beq	r2,zero,ba8 <hashmap_length+0x2c>
     b9c:	e0bffe17 	ldw	r2,-8(fp)
     ba0:	10800117 	ldw	r2,4(r2)
     ba4:	00000106 	br	bac <hashmap_length+0x30>
	else return 0;
     ba8:	0005883a 	mov	r2,zero
}
     bac:	e037883a 	mov	sp,fp
     bb0:	df000017 	ldw	fp,0(sp)
     bb4:	dec00104 	addi	sp,sp,4
     bb8:	f800283a 	ret

00000bbc <initialize>:
#define BUF_SIZE 1024 * 1024

const btc_chainparams* chain = &btc_chainparams_test;

void initialize()
{
     bbc:	defffd04 	addi	sp,sp,-12
     bc0:	dfc00215 	stw	ra,8(sp)
     bc4:	df000115 	stw	fp,4(sp)
     bc8:	df000104 	addi	fp,sp,4
	/* initialize hardware random number generator */
	alt_u32 randSeed = 0x12345678;
     bcc:	00848d34 	movhi	r2,4660
     bd0:	10959e04 	addi	r2,r2,22136
     bd4:	e0bfff15 	stw	r2,-4(fp)
    initRandom(randSeed);
     bd8:	e13fff17 	ldw	r4,-4(fp)
     bdc:	000292c0 	call	292c <initRandom>


    /* initialize uart to usb */
    initUart();
     be0:	0002d540 	call	2d54 <initUart>
}
     be4:	0001883a 	nop
     be8:	e037883a 	mov	sp,fp
     bec:	dfc00117 	ldw	ra,4(sp)
     bf0:	df000017 	ldw	fp,0(sp)
     bf4:	dec00204 	addi	sp,sp,8
     bf8:	f800283a 	ret

00000bfc <showError>:


static bool showError(const char* er)
{
     bfc:	defffd04 	addi	sp,sp,-12
     c00:	dfc00215 	stw	ra,8(sp)
     c04:	df000115 	stw	fp,4(sp)
     c08:	df000104 	addi	fp,sp,4
     c0c:	e13fff15 	stw	r4,-4(fp)
    printf("Error: %s\n", er);
     c10:	e17fff17 	ldw	r5,-4(fp)
     c14:	010001b4 	movhi	r4,6
     c18:	212ce704 	addi	r4,r4,-19556
     c1c:	0048de40 	call	48de4 <printf>
    btc_ecc_stop();
     c20:	0006e6c0 	call	6e6c <btc_ecc_stop>
    return 1;
     c24:	00800044 	movi	r2,1
}
     c28:	e037883a 	mov	sp,fp
     c2c:	dfc00117 	ldw	ra,4(sp)
     c30:	df000017 	ldw	fp,0(sp)
     c34:	dec00204 	addi	sp,sp,8
     c38:	f800283a 	ret

00000c3c <create_priv_key>:


void create_priv_key()
{
     c3c:	defff404 	addi	sp,sp,-48
     c40:	dfc00b15 	stw	ra,44(sp)
     c44:	df000a15 	stw	fp,40(sp)
     c48:	dd000915 	stw	r20,36(sp)
     c4c:	dcc00815 	stw	r19,32(sp)
     c50:	dc800715 	stw	r18,28(sp)
     c54:	dc400615 	stw	r17,24(sp)
     c58:	dc000515 	stw	r16,20(sp)
     c5c:	df000a04 	addi	fp,sp,40
     c60:	d825883a 	mov	r18,sp
     c64:	9029883a 	mov	r20,r18
	size_t sizeout = 128;
     c68:	04802004 	movi	r18,128
     c6c:	e4bff615 	stw	r18,-40(fp)
	char newprivkey_wif[sizeout];
     c70:	e4bff617 	ldw	r18,-40(fp)
     c74:	9027883a 	mov	r19,r18
     c78:	9cffffc4 	addi	r19,r19,-1
     c7c:	e4fff715 	stw	r19,-36(fp)
     c80:	9021883a 	mov	r16,r18
     c84:	0023883a 	mov	r17,zero
     c88:	8026d77a 	srli	r19,r16,29
     c8c:	881290fa 	slli	r9,r17,3
     c90:	9a52b03a 	or	r9,r19,r9
     c94:	801090fa 	slli	r8,r16,3
     c98:	901d883a 	mov	r14,r18
     c9c:	001f883a 	mov	r15,zero
     ca0:	7010d77a 	srli	r8,r14,29
     ca4:	780e90fa 	slli	r7,r15,3
     ca8:	41ceb03a 	or	r7,r8,r7
     cac:	700c90fa 	slli	r6,r14,3
     cb0:	918000c4 	addi	r6,r18,3
     cb4:	300cd0ba 	srli	r6,r6,2
     cb8:	318d883a 	add	r6,r6,r6
     cbc:	318d883a 	add	r6,r6,r6
     cc0:	d9b7c83a 	sub	sp,sp,r6
     cc4:	d80d883a 	mov	r6,sp
     cc8:	300d883a 	mov	r6,r6
     ccc:	e1bff815 	stw	r6,-32(fp)
	char newprivkey_hex[sizeout];
     cd0:	e1bff617 	ldw	r6,-40(fp)
     cd4:	300f883a 	mov	r7,r6
     cd8:	39ffffc4 	addi	r7,r7,-1
     cdc:	e1fff915 	stw	r7,-28(fp)
     ce0:	3019883a 	mov	r12,r6
     ce4:	001b883a 	mov	r13,zero
     ce8:	600ed77a 	srli	r7,r12,29
     cec:	680a90fa 	slli	r5,r13,3
     cf0:	394ab03a 	or	r5,r7,r5
     cf4:	600890fa 	slli	r4,r12,3
     cf8:	3015883a 	mov	r10,r6
     cfc:	0017883a 	mov	r11,zero
     d00:	5008d77a 	srli	r4,r10,29
     d04:	580690fa 	slli	r3,r11,3
     d08:	20c6b03a 	or	r3,r4,r3
     d0c:	500490fa 	slli	r2,r10,3
     d10:	308000c4 	addi	r2,r6,3
     d14:	1004d0ba 	srli	r2,r2,2
     d18:	1085883a 	add	r2,r2,r2
     d1c:	1085883a 	add	r2,r2,r2
     d20:	d8b7c83a 	sub	sp,sp,r2
     d24:	d805883a 	mov	r2,sp
     d28:	1005883a 	mov	r2,r2
     d2c:	e0bffa15 	stw	r2,-24(fp)

	/* generate a new private key */
	gen_privatekey(chain, newprivkey_wif, sizeout, newprivkey_hex);
     d30:	d0a00117 	ldw	r2,-32764(gp)
     d34:	e0fff817 	ldw	r3,-32(fp)
     d38:	e13ffa17 	ldw	r4,-24(fp)
     d3c:	200f883a 	mov	r7,r4
     d40:	e1bff617 	ldw	r6,-40(fp)
     d44:	180b883a 	mov	r5,r3
     d48:	1009883a 	mov	r4,r2
     d4c:	00053d40 	call	53d4 <gen_privatekey>
	printf("privatekey WIF: %s\n", newprivkey_wif);
     d50:	e0bff817 	ldw	r2,-32(fp)
     d54:	100b883a 	mov	r5,r2
     d58:	010001b4 	movhi	r4,6
     d5c:	212cea04 	addi	r4,r4,-19544
     d60:	0048de40 	call	48de4 <printf>
	printf("privatekey HEX: %s\n", newprivkey_hex);
     d64:	e0bffa17 	ldw	r2,-24(fp)
     d68:	100b883a 	mov	r5,r2
     d6c:	010001b4 	movhi	r4,6
     d70:	212cef04 	addi	r4,r4,-19524
     d74:	0048de40 	call	48de4 <printf>
	memset(newprivkey_wif, 0, strlen(newprivkey_wif));
     d78:	e43ff817 	ldw	r16,-32(fp)
     d7c:	e0bff817 	ldw	r2,-32(fp)
     d80:	1009883a 	mov	r4,r2
     d84:	0049cc80 	call	49cc8 <strlen>
     d88:	100d883a 	mov	r6,r2
     d8c:	000b883a 	mov	r5,zero
     d90:	8009883a 	mov	r4,r16
     d94:	0048c8c0 	call	48c8c <memset>
	memset(newprivkey_hex, 0, strlen(newprivkey_hex));
     d98:	e43ffa17 	ldw	r16,-24(fp)
     d9c:	e0bffa17 	ldw	r2,-24(fp)
     da0:	1009883a 	mov	r4,r2
     da4:	0049cc80 	call	49cc8 <strlen>
     da8:	100d883a 	mov	r6,r2
     dac:	000b883a 	mov	r5,zero
     db0:	8009883a 	mov	r4,r16
     db4:	0048c8c0 	call	48c8c <memset>
     db8:	a037883a 	mov	sp,r20
}
     dbc:	0001883a 	nop
     dc0:	e6fffb04 	addi	sp,fp,-20
     dc4:	dfc00617 	ldw	ra,24(sp)
     dc8:	df000517 	ldw	fp,20(sp)
     dcc:	dd000417 	ldw	r20,16(sp)
     dd0:	dcc00317 	ldw	r19,12(sp)
     dd4:	dc800217 	ldw	r18,8(sp)
     dd8:	dc400117 	ldw	r17,4(sp)
     ddc:	dc000017 	ldw	r16,0(sp)
     de0:	dec00704 	addi	sp,sp,28
     de4:	f800283a 	ret

00000de8 <hdgenmaster>:

btc_bool hdgenmaster(char* masterkey, size_t sizeout)
{
     de8:	deffd804 	addi	sp,sp,-160
     dec:	dfc02715 	stw	ra,156(sp)
     df0:	df002615 	stw	fp,152(sp)
     df4:	df002604 	addi	fp,sp,152
     df8:	e13ffe15 	stw	r4,-8(fp)
     dfc:	e17fff15 	stw	r5,-4(fp)
	btc_hdnode node;
	alt_u8 seed[32];
	getRandomBuffer(&(seed[0]), 32);
     e00:	e0bff604 	addi	r2,fp,-40
     e04:	01400804 	movi	r5,32
     e08:	1009883a 	mov	r4,r2
     e0c:	0002a200 	call	2a20 <getRandomBuffer>
	btc_hdnode_from_seed(seed, 32, &node);
     e10:	e0bff604 	addi	r2,fp,-40
     e14:	e1bfda04 	addi	r6,fp,-152
     e18:	01400804 	movi	r5,32
     e1c:	1009883a 	mov	r4,r2
     e20:	00042f00 	call	42f0 <btc_hdnode_from_seed>
	memset(seed, 0, 32);
     e24:	e0bff604 	addi	r2,fp,-40
     e28:	01800804 	movi	r6,32
     e2c:	000b883a 	mov	r5,zero
     e30:	1009883a 	mov	r4,r2
     e34:	0048c8c0 	call	48c8c <memset>
	btc_hdnode_serialize_private(&node, chain, masterkey, sizeout);
     e38:	d0a00117 	ldw	r2,-32764(gp)
     e3c:	e0ffff17 	ldw	r3,-4(fp)
     e40:	180f883a 	mov	r7,r3
     e44:	e1bffe17 	ldw	r6,-8(fp)
     e48:	100b883a 	mov	r5,r2
     e4c:	e13fda04 	addi	r4,fp,-152
     e50:	0004a2c0 	call	4a2c <btc_hdnode_serialize_private>
	memset(&node, 0, sizeof(node));
     e54:	01801c04 	movi	r6,112
     e58:	000b883a 	mov	r5,zero
     e5c:	e13fda04 	addi	r4,fp,-152
     e60:	0048c8c0 	call	48c8c <memset>
	return true;
     e64:	00800044 	movi	r2,1
}
     e68:	e037883a 	mov	sp,fp
     e6c:	dfc00117 	ldw	ra,4(sp)
     e70:	df000017 	ldw	fp,0(sp)
     e74:	dec00204 	addi	sp,sp,8
     e78:	f800283a 	ret

00000e7c <hd_save_node>:

btc_bool hd_save_node(const btc_chainparams* chain, const char* nodeser, map_t keymap)
{
     e7c:	deffbb04 	addi	sp,sp,-276
     e80:	dfc04415 	stw	ra,272(sp)
     e84:	df004315 	stw	fp,268(sp)
     e88:	ddc04215 	stw	r23,264(sp)
     e8c:	dd804115 	stw	r22,260(sp)
     e90:	dd404015 	stw	r21,256(sp)
     e94:	dd003f15 	stw	r20,252(sp)
     e98:	dcc03e15 	stw	r19,248(sp)
     e9c:	dc803d15 	stw	r18,244(sp)
     ea0:	dc403c15 	stw	r17,240(sp)
     ea4:	dc003b15 	stw	r16,236(sp)
     ea8:	df004304 	addi	fp,sp,268
     eac:	e13fe415 	stw	r4,-112(fp)
     eb0:	e17fe515 	stw	r5,-108(fp)
     eb4:	e1bfe615 	stw	r6,-104(fp)
     eb8:	d805883a 	mov	r2,sp
     ebc:	e0bfe715 	stw	r2,-100(fp)
	btc_hdnode node;
	if (!btc_hdnode_deserialize(nodeser, chain, &node))
     ec0:	e0bfc804 	addi	r2,fp,-224
     ec4:	100d883a 	mov	r6,r2
     ec8:	e17fe417 	ldw	r5,-112(fp)
     ecc:	e13fe517 	ldw	r4,-108(fp)
     ed0:	0004bb40 	call	4bb4 <btc_hdnode_deserialize>
     ed4:	10803fcc 	andi	r2,r2,255
     ed8:	1000021e 	bne	r2,zero,ee4 <hd_save_node+0x68>
		return false;
     edc:	0005883a 	mov	r2,zero
     ee0:	0000b106 	br	11a8 <hd_save_node+0x32c>

	/* Make Public Key */
	size_t strsize = 128;
     ee4:	00802004 	movi	r2,128
     ee8:	e0bfbd15 	stw	r2,-268(fp)
	char str[strsize];
     eec:	e0ffbd17 	ldw	r3,-268(fp)
     ef0:	1805883a 	mov	r2,r3
     ef4:	10bfffc4 	addi	r2,r2,-1
     ef8:	e0bfbe15 	stw	r2,-264(fp)
     efc:	e0ffe815 	stw	r3,-96(fp)
     f00:	e03fe915 	stw	zero,-92(fp)
     f04:	e13fe817 	ldw	r4,-96(fp)
     f08:	2004d77a 	srli	r2,r4,29
     f0c:	e13fe917 	ldw	r4,-92(fp)
     f10:	200890fa 	slli	r4,r4,3
     f14:	e13feb15 	stw	r4,-84(fp)
     f18:	e13feb17 	ldw	r4,-84(fp)
     f1c:	1104b03a 	or	r2,r2,r4
     f20:	e0bfeb15 	stw	r2,-84(fp)
     f24:	e0bfe817 	ldw	r2,-96(fp)
     f28:	100490fa 	slli	r2,r2,3
     f2c:	e0ffec15 	stw	r3,-80(fp)
     f30:	e03fed15 	stw	zero,-76(fp)
     f34:	e13fec17 	ldw	r4,-80(fp)
     f38:	2004d77a 	srli	r2,r4,29
     f3c:	e13fed17 	ldw	r4,-76(fp)
     f40:	200890fa 	slli	r4,r4,3
     f44:	e13fef15 	stw	r4,-68(fp)
     f48:	e13fef17 	ldw	r4,-68(fp)
     f4c:	1104b03a 	or	r2,r2,r4
     f50:	e0bfef15 	stw	r2,-68(fp)
     f54:	e0bfec17 	ldw	r2,-80(fp)
     f58:	100490fa 	slli	r2,r2,3
     f5c:	188000c4 	addi	r2,r3,3
     f60:	1004d0ba 	srli	r2,r2,2
     f64:	1085883a 	add	r2,r2,r2
     f68:	1085883a 	add	r2,r2,r2
     f6c:	d8b7c83a 	sub	sp,sp,r2
     f70:	d805883a 	mov	r2,sp
     f74:	1005883a 	mov	r2,r2
     f78:	e0bfbf15 	stw	r2,-260(fp)
	btc_hdnode_get_p2pkh_address(&node, chain, str, strsize);
     f7c:	e0ffbf17 	ldw	r3,-260(fp)
     f80:	e13fbd17 	ldw	r4,-268(fp)
     f84:	e0bfc804 	addi	r2,fp,-224
     f88:	200f883a 	mov	r7,r4
     f8c:	180d883a 	mov	r6,r3
     f90:	e17fe417 	ldw	r5,-112(fp)
     f94:	1009883a 	mov	r4,r2
     f98:	0004ae00 	call	4ae0 <btc_hdnode_get_p2pkh_address>

	/* Make Private Key */
	size_t privkey_wif_size_bin = 34;
     f9c:	00800884 	movi	r2,34
     fa0:	e0bfc015 	stw	r2,-256(fp)
	uint8_t pkeybase58c[privkey_wif_size_bin];
     fa4:	e0bfc017 	ldw	r2,-256(fp)
     fa8:	1007883a 	mov	r3,r2
     fac:	18ffffc4 	addi	r3,r3,-1
     fb0:	e0ffc115 	stw	r3,-252(fp)
     fb4:	e0bff015 	stw	r2,-64(fp)
     fb8:	e03ff115 	stw	zero,-60(fp)
     fbc:	e13ff017 	ldw	r4,-64(fp)
     fc0:	2006d77a 	srli	r3,r4,29
     fc4:	e13ff117 	ldw	r4,-60(fp)
     fc8:	202e90fa 	slli	r23,r4,3
     fcc:	1deeb03a 	or	r23,r3,r23
     fd0:	e0fff017 	ldw	r3,-64(fp)
     fd4:	182c90fa 	slli	r22,r3,3
     fd8:	e0bff215 	stw	r2,-56(fp)
     fdc:	e03ff315 	stw	zero,-52(fp)
     fe0:	e13ff217 	ldw	r4,-56(fp)
     fe4:	2006d77a 	srli	r3,r4,29
     fe8:	e13ff317 	ldw	r4,-52(fp)
     fec:	202a90fa 	slli	r21,r4,3
     ff0:	1d6ab03a 	or	r21,r3,r21
     ff4:	e0fff217 	ldw	r3,-56(fp)
     ff8:	182890fa 	slli	r20,r3,3
     ffc:	108000c4 	addi	r2,r2,3
    1000:	1004d0ba 	srli	r2,r2,2
    1004:	1085883a 	add	r2,r2,r2
    1008:	1085883a 	add	r2,r2,r2
    100c:	d8b7c83a 	sub	sp,sp,r2
    1010:	d805883a 	mov	r2,sp
    1014:	1005883a 	mov	r2,r2
    1018:	e0bfc215 	stw	r2,-248(fp)
	pkeybase58c[0] = chain->b58prefix_secret_address;
    101c:	e0bfe417 	ldw	r2,-112(fp)
    1020:	10c009c3 	ldbu	r3,39(r2)
    1024:	e0bfc217 	ldw	r2,-248(fp)
    1028:	10c00005 	stb	r3,0(r2)
	pkeybase58c[33] = 1; /* always use compressed keys */
    102c:	e0bfc217 	ldw	r2,-248(fp)
    1030:	00c00044 	movi	r3,1
    1034:	10c00845 	stb	r3,33(r2)
	size_t privkey_wif_size = 128;
    1038:	00802004 	movi	r2,128
    103c:	e0bfc315 	stw	r2,-244(fp)
	char privkey_wif[privkey_wif_size];
    1040:	e0bfc317 	ldw	r2,-244(fp)
    1044:	1007883a 	mov	r3,r2
    1048:	18ffffc4 	addi	r3,r3,-1
    104c:	e0ffc415 	stw	r3,-240(fp)
    1050:	e0bff415 	stw	r2,-48(fp)
    1054:	e03ff515 	stw	zero,-44(fp)
    1058:	e13ff417 	ldw	r4,-48(fp)
    105c:	2006d77a 	srli	r3,r4,29
    1060:	e13ff517 	ldw	r4,-44(fp)
    1064:	202690fa 	slli	r19,r4,3
    1068:	1ce6b03a 	or	r19,r3,r19
    106c:	e0fff417 	ldw	r3,-48(fp)
    1070:	182490fa 	slli	r18,r3,3
    1074:	e0bff615 	stw	r2,-40(fp)
    1078:	e03ff715 	stw	zero,-36(fp)
    107c:	e13ff617 	ldw	r4,-40(fp)
    1080:	2006d77a 	srli	r3,r4,29
    1084:	e13ff717 	ldw	r4,-36(fp)
    1088:	202290fa 	slli	r17,r4,3
    108c:	1c62b03a 	or	r17,r3,r17
    1090:	e0fff617 	ldw	r3,-40(fp)
    1094:	182090fa 	slli	r16,r3,3
    1098:	108000c4 	addi	r2,r2,3
    109c:	1004d0ba 	srli	r2,r2,2
    10a0:	1085883a 	add	r2,r2,r2
    10a4:	1085883a 	add	r2,r2,r2
    10a8:	d8b7c83a 	sub	sp,sp,r2
    10ac:	d805883a 	mov	r2,sp
    10b0:	1005883a 	mov	r2,r2
    10b4:	e0bfc515 	stw	r2,-236(fp)
	memcpy(&pkeybase58c[1], node.private_key, BTC_ECKEY_PKEY_LENGTH);
    10b8:	e0bfc217 	ldw	r2,-248(fp)
    10bc:	10800044 	addi	r2,r2,1
    10c0:	1009883a 	mov	r4,r2
    10c4:	e0bfd304 	addi	r2,fp,-180
    10c8:	00c00804 	movi	r3,32
    10cc:	180d883a 	mov	r6,r3
    10d0:	100b883a 	mov	r5,r2
    10d4:	00489e80 	call	489e8 <memcpy>
	assert(btc_base58_encode_check(pkeybase58c, privkey_wif_size_bin, privkey_wif, privkey_wif_size) != 0);
    10d8:	e0bfc217 	ldw	r2,-248(fp)
    10dc:	e0ffc017 	ldw	r3,-256(fp)
    10e0:	e13fc517 	ldw	r4,-236(fp)
    10e4:	e17fc317 	ldw	r5,-244(fp)
    10e8:	280f883a 	mov	r7,r5
    10ec:	200d883a 	mov	r6,r4
    10f0:	180b883a 	mov	r5,r3
    10f4:	1009883a 	mov	r4,r2
    10f8:	0003b6c0 	call	3b6c <btc_base58_encode_check>
    10fc:	1000081e 	bne	r2,zero,1120 <hd_save_node+0x2a4>
    1100:	01c001b4 	movhi	r7,6
    1104:	39ecf404 	addi	r7,r7,-19504
    1108:	018001b4 	movhi	r6,6
    110c:	31addc04 	addi	r6,r6,-18576
    1110:	014017c4 	movi	r5,95
    1114:	010001b4 	movhi	r4,6
    1118:	212d0c04 	addi	r4,r4,-19408
    111c:	0047d840 	call	47d84 <__assert_func>

	/* make copies of variables to store into hashmap */
	char* pubaddr_copy = malloc(sizeof(char) * strsize);
    1120:	e13fbd17 	ldw	r4,-268(fp)
    1124:	00481380 	call	48138 <malloc>
    1128:	e0bfc615 	stw	r2,-232(fp)
	char* privkey_wif_copy = malloc(sizeof(char) * privkey_wif_size);
    112c:	e13fc317 	ldw	r4,-244(fp)
    1130:	00481380 	call	48138 <malloc>
    1134:	e0bfc715 	stw	r2,-228(fp)
	strcpy(pubaddr_copy, str);
    1138:	e0bfbf17 	ldw	r2,-260(fp)
    113c:	100b883a 	mov	r5,r2
    1140:	e13fc617 	ldw	r4,-232(fp)
    1144:	0049bec0 	call	49bec <strcpy>
	strcpy(privkey_wif_copy, privkey_wif);
    1148:	e0bfc517 	ldw	r2,-236(fp)
    114c:	100b883a 	mov	r5,r2
    1150:	e13fc717 	ldw	r4,-228(fp)
    1154:	0049bec0 	call	49bec <strcpy>

	if (btc_hdnode_has_privkey(&node)) {
    1158:	e0bfc804 	addi	r2,fp,-224
    115c:	1009883a 	mov	r4,r2
    1160:	00051880 	call	5188 <btc_hdnode_has_privkey>
    1164:	10803fcc 	andi	r2,r2,255
    1168:	10000e26 	beq	r2,zero,11a4 <hd_save_node+0x328>
		printf("pubkey: %s\n", str);
    116c:	e0bfbf17 	ldw	r2,-260(fp)
    1170:	100b883a 	mov	r5,r2
    1174:	010001b4 	movhi	r4,6
    1178:	212d0e04 	addi	r4,r4,-19400
    117c:	0048de40 	call	48de4 <printf>
		printf("privatekey WIF: %s\n", privkey_wif);
    1180:	e0bfc517 	ldw	r2,-236(fp)
    1184:	100b883a 	mov	r5,r2
    1188:	010001b4 	movhi	r4,6
    118c:	212cea04 	addi	r4,r4,-19544
    1190:	0048de40 	call	48de4 <printf>


		hashmap_put(keymap, pubaddr_copy, privkey_wif_copy);
    1194:	e1bfc717 	ldw	r6,-228(fp)
    1198:	e17fc617 	ldw	r5,-232(fp)
    119c:	e13fe617 	ldw	r4,-104(fp)
    11a0:	000072c0 	call	72c <hashmap_put>
//		if(!valueForKeyInHashTable(ht, str, &value)){
//			addToHashTable(ht, str, privkey_wif);
//		}
//		addToHashTable(ht, str, privkey_wif);
	}
	return true;
    11a4:	00800044 	movi	r2,1
    11a8:	e6ffe717 	ldw	sp,-100(fp)
}
    11ac:	e6fff804 	addi	sp,fp,-32
    11b0:	dfc00917 	ldw	ra,36(sp)
    11b4:	df000817 	ldw	fp,32(sp)
    11b8:	ddc00717 	ldw	r23,28(sp)
    11bc:	dd800617 	ldw	r22,24(sp)
    11c0:	dd400517 	ldw	r21,20(sp)
    11c4:	dd000417 	ldw	r20,16(sp)
    11c8:	dcc00317 	ldw	r19,12(sp)
    11cc:	dc800217 	ldw	r18,8(sp)
    11d0:	dc400117 	ldw	r17,4(sp)
    11d4:	dc000017 	ldw	r16,0(sp)
    11d8:	dec00a04 	addi	sp,sp,40
    11dc:	f800283a 	ret

000011e0 <hdderive>:

int hdderive(char* pkey, char* keypath, char* p2pkh_address, map_t keymap)
{
    11e0:	deffd304 	addi	sp,sp,-180
    11e4:	dfc02c15 	stw	ra,176(sp)
    11e8:	df002b15 	stw	fp,172(sp)
    11ec:	ddc02a15 	stw	r23,168(sp)
    11f0:	dd802915 	stw	r22,164(sp)
    11f4:	dd402815 	stw	r21,160(sp)
    11f8:	dd002715 	stw	r20,156(sp)
    11fc:	dcc02615 	stw	r19,152(sp)
    1200:	dc802515 	stw	r18,148(sp)
    1204:	dc402415 	stw	r17,144(sp)
    1208:	dc002315 	stw	r16,140(sp)
    120c:	df002b04 	addi	fp,sp,172
    1210:	e13fed15 	stw	r4,-76(fp)
    1214:	e17fee15 	stw	r5,-72(fp)
    1218:	e1bfef15 	stw	r6,-68(fp)
    121c:	e1fff015 	stw	r7,-64(fp)
    1220:	d809883a 	mov	r4,sp
    1224:	e13ff215 	stw	r4,-56(fp)
	if (!pkey)
    1228:	e13fed17 	ldw	r4,-76(fp)
    122c:	2000061e 	bne	r4,zero,1248 <hdderive+0x68>
		return showError("Missing extended key (use -p)");
    1230:	010001b4 	movhi	r4,6
    1234:	212d1104 	addi	r4,r4,-19388
    1238:	0000bfc0 	call	bfc <showError>
    123c:	10803fcc 	andi	r2,r2,255
    1240:	e0bff115 	stw	r2,-60(fp)
    1244:	00019806 	br	18a8 <hdderive+0x6c8>
	if (!keypath)
    1248:	e13fee17 	ldw	r4,-72(fp)
    124c:	2000061e 	bne	r4,zero,1268 <hdderive+0x88>
		return showError("Missing keypath (use -m)");
    1250:	010001b4 	movhi	r4,6
    1254:	212d1904 	addi	r4,r4,-19356
    1258:	0000bfc0 	call	bfc <showError>
    125c:	10803fcc 	andi	r2,r2,255
    1260:	e0bff115 	stw	r2,-60(fp)
    1264:	00019006 	br	18a8 <hdderive+0x6c8>
	size_t sizeout = 128;
    1268:	01002004 	movi	r4,128
    126c:	e13fe015 	stw	r4,-128(fp)
	char newextkey[sizeout];
    1270:	e13fe017 	ldw	r4,-128(fp)
    1274:	200b883a 	mov	r5,r4
    1278:	297fffc4 	addi	r5,r5,-1
    127c:	e17fe115 	stw	r5,-124(fp)
    1280:	2019883a 	mov	r12,r4
    1284:	001b883a 	mov	r13,zero
    1288:	600ad77a 	srli	r5,r12,29
    128c:	681290fa 	slli	r9,r13,3
    1290:	2a52b03a 	or	r9,r5,r9
    1294:	601090fa 	slli	r8,r12,3
    1298:	2015883a 	mov	r10,r4
    129c:	0017883a 	mov	r11,zero
    12a0:	500ad77a 	srli	r5,r10,29
    12a4:	580690fa 	slli	r3,r11,3
    12a8:	28c6b03a 	or	r3,r5,r3
    12ac:	500490fa 	slli	r2,r10,3
    12b0:	208000c4 	addi	r2,r4,3
    12b4:	1004d0ba 	srli	r2,r2,2
    12b8:	1085883a 	add	r2,r2,r2
    12bc:	1085883a 	add	r2,r2,r2
    12c0:	d8b7c83a 	sub	sp,sp,r2
    12c4:	d8800104 	addi	r2,sp,4
    12c8:	1005883a 	mov	r2,r2
    12cc:	e0bfe215 	stw	r2,-120(fp)

	//check if we derive a range of keys
	unsigned int maxlen = 1024;
    12d0:	00810004 	movi	r2,1024
    12d4:	e0bfe315 	stw	r2,-116(fp)
	int posanum = -1;
    12d8:	00bfffc4 	movi	r2,-1
    12dc:	e0bfd615 	stw	r2,-168(fp)
	int posbnum = -1;
    12e0:	00bfffc4 	movi	r2,-1
    12e4:	e0bfd715 	stw	r2,-164(fp)
	int end = -1;
    12e8:	00bfffc4 	movi	r2,-1
    12ec:	e0bfd815 	stw	r2,-160(fp)
	uint64_t from;
	uint64_t to;

	static char digits[] = "0123456789";
	for (unsigned int i = 0; i<strlen(keypath); i++) {
    12f0:	e03fdd15 	stw	zero,-140(fp)
    12f4:	0000a306 	br	1584 <hdderive+0x3a4>
		if (i > maxlen) {
    12f8:	e0bfdd17 	ldw	r2,-140(fp)
    12fc:	e0ffe317 	ldw	r3,-116(fp)
    1300:	1880a636 	bltu	r3,r2,159c <hdderive+0x3bc>
			break;
		}
		if (posanum > -1 && posbnum == -1) {
    1304:	e0bfd617 	ldw	r2,-168(fp)
    1308:	10003916 	blt	r2,zero,13f0 <hdderive+0x210>
    130c:	e0bfd717 	ldw	r2,-164(fp)
    1310:	10bfffd8 	cmpnei	r2,r2,-1
    1314:	1000361e 	bne	r2,zero,13f0 <hdderive+0x210>
			if (keypath[i] == '-') {
    1318:	e0ffee17 	ldw	r3,-72(fp)
    131c:	e0bfdd17 	ldw	r2,-140(fp)
    1320:	1885883a 	add	r2,r3,r2
    1324:	10800003 	ldbu	r2,0(r2)
    1328:	10803fcc 	andi	r2,r2,255
    132c:	1080201c 	xori	r2,r2,128
    1330:	10bfe004 	addi	r2,r2,-128
    1334:	10800b58 	cmpnei	r2,r2,45
    1338:	10001e1e 	bne	r2,zero,13b4 <hdderive+0x1d4>
				if (i-posanum >= 9) {
    133c:	e0bfd617 	ldw	r2,-168(fp)
    1340:	e0ffdd17 	ldw	r3,-140(fp)
    1344:	1885c83a 	sub	r2,r3,r2
    1348:	10800270 	cmpltui	r2,r2,9
    134c:	10009526 	beq	r2,zero,15a4 <hdderive+0x3c4>
					break;
				}
				posbnum = i+1;
    1350:	e0bfdd17 	ldw	r2,-140(fp)
    1354:	10800044 	addi	r2,r2,1
    1358:	e0bfd715 	stw	r2,-164(fp)
				char buf[9] = {0};
    135c:	e03fe615 	stw	zero,-104(fp)
    1360:	e03fe715 	stw	zero,-100(fp)
    1364:	e03fe805 	stb	zero,-96(fp)
				memcpy (buf, &keypath[posanum], i-posanum);
    1368:	e0bfd617 	ldw	r2,-168(fp)
    136c:	e0ffee17 	ldw	r3,-72(fp)
    1370:	1889883a 	add	r4,r3,r2
    1374:	e0bfd617 	ldw	r2,-168(fp)
    1378:	e0ffdd17 	ldw	r3,-140(fp)
    137c:	1887c83a 	sub	r3,r3,r2
    1380:	e0bfe604 	addi	r2,fp,-104
    1384:	180d883a 	mov	r6,r3
    1388:	200b883a 	mov	r5,r4
    138c:	1009883a 	mov	r4,r2
    1390:	00489e80 	call	489e8 <memcpy>
				from = strtoull(buf, NULL, 10);
    1394:	e0bfe604 	addi	r2,fp,-104
    1398:	01800284 	movi	r6,10
    139c:	000b883a 	mov	r5,zero
    13a0:	1009883a 	mov	r4,r2
    13a4:	004a2700 	call	4a270 <strtoull>
    13a8:	e0bfd915 	stw	r2,-156(fp)
    13ac:	e0ffda15 	stw	r3,-152(fp)
	for (unsigned int i = 0; i<strlen(keypath); i++) {
		if (i > maxlen) {
			break;
		}
		if (posanum > -1 && posbnum == -1) {
			if (keypath[i] == '-') {
    13b0:	00005b06 	br	1520 <hdderive+0x340>
				posbnum = i+1;
				char buf[9] = {0};
				memcpy (buf, &keypath[posanum], i-posanum);
				from = strtoull(buf, NULL, 10);
			}
			else if (!strchr(digits, keypath[i])) {
    13b4:	e0ffee17 	ldw	r3,-72(fp)
    13b8:	e0bfdd17 	ldw	r2,-140(fp)
    13bc:	1885883a 	add	r2,r3,r2
    13c0:	10800003 	ldbu	r2,0(r2)
    13c4:	10803fcc 	andi	r2,r2,255
    13c8:	1080201c 	xori	r2,r2,128
    13cc:	10bfe004 	addi	r2,r2,-128
    13d0:	100b883a 	mov	r5,r2
    13d4:	010001b4 	movhi	r4,6
    13d8:	2103de04 	addi	r4,r4,3960
    13dc:	00499ac0 	call	499ac <strchr>
    13e0:	10004f1e 	bne	r2,zero,1520 <hdderive+0x340>
				posanum = -1;
    13e4:	00bfffc4 	movi	r2,-1
    13e8:	e0bfd615 	stw	r2,-168(fp)
				break;
    13ec:	00007006 	br	15b0 <hdderive+0x3d0>
			}
		}
		else if (posanum > -1 && posbnum > -1) {
    13f0:	e0bfd617 	ldw	r2,-168(fp)
    13f4:	10004b16 	blt	r2,zero,1524 <hdderive+0x344>
    13f8:	e0bfd717 	ldw	r2,-164(fp)
    13fc:	10004916 	blt	r2,zero,1524 <hdderive+0x344>
			if (keypath[i] == ']' || keypath[i] == ')') {
    1400:	e0ffee17 	ldw	r3,-72(fp)
    1404:	e0bfdd17 	ldw	r2,-140(fp)
    1408:	1885883a 	add	r2,r3,r2
    140c:	10800003 	ldbu	r2,0(r2)
    1410:	10803fcc 	andi	r2,r2,255
    1414:	1080201c 	xori	r2,r2,128
    1418:	10bfe004 	addi	r2,r2,-128
    141c:	10801760 	cmpeqi	r2,r2,93
    1420:	1000091e 	bne	r2,zero,1448 <hdderive+0x268>
    1424:	e0ffee17 	ldw	r3,-72(fp)
    1428:	e0bfdd17 	ldw	r2,-140(fp)
    142c:	1885883a 	add	r2,r3,r2
    1430:	10800003 	ldbu	r2,0(r2)
    1434:	10803fcc 	andi	r2,r2,255
    1438:	1080201c 	xori	r2,r2,128
    143c:	10bfe004 	addi	r2,r2,-128
    1440:	10800a58 	cmpnei	r2,r2,41
    1444:	1000251e 	bne	r2,zero,14dc <hdderive+0x2fc>
				if (i-posbnum >= 9) {
    1448:	e0bfd717 	ldw	r2,-164(fp)
    144c:	e0ffdd17 	ldw	r3,-140(fp)
    1450:	1885c83a 	sub	r2,r3,r2
    1454:	10800270 	cmpltui	r2,r2,9
    1458:	10005426 	beq	r2,zero,15ac <hdderive+0x3cc>
					break;
				}
				char buf[9] = {0};
    145c:	e03fe845 	stb	zero,-95(fp)
    1460:	e03fe885 	stb	zero,-94(fp)
    1464:	e03fe8c5 	stb	zero,-93(fp)
    1468:	e03fe905 	stb	zero,-92(fp)
    146c:	e03fe945 	stb	zero,-91(fp)
    1470:	e03fe985 	stb	zero,-90(fp)
    1474:	e03fe9c5 	stb	zero,-89(fp)
    1478:	e03fea05 	stb	zero,-88(fp)
    147c:	e03fea45 	stb	zero,-87(fp)
				memcpy (buf, &keypath[posbnum], i-posbnum);
    1480:	e0bfd717 	ldw	r2,-164(fp)
    1484:	e0ffee17 	ldw	r3,-72(fp)
    1488:	1889883a 	add	r4,r3,r2
    148c:	e0bfd717 	ldw	r2,-164(fp)
    1490:	e0ffdd17 	ldw	r3,-140(fp)
    1494:	1887c83a 	sub	r3,r3,r2
    1498:	e0bfe844 	addi	r2,fp,-95
    149c:	180d883a 	mov	r6,r3
    14a0:	200b883a 	mov	r5,r4
    14a4:	1009883a 	mov	r4,r2
    14a8:	00489e80 	call	489e8 <memcpy>
				to = strtoull(buf, NULL, 10);
    14ac:	e0bfe844 	addi	r2,fp,-95
    14b0:	01800284 	movi	r6,10
    14b4:	000b883a 	mov	r5,zero
    14b8:	1009883a 	mov	r4,r2
    14bc:	004a2700 	call	4a270 <strtoull>
    14c0:	e0bfdb15 	stw	r2,-148(fp)
    14c4:	e0ffdc15 	stw	r3,-144(fp)
				end = i+1;
    14c8:	e0bfdd17 	ldw	r2,-140(fp)
    14cc:	10800044 	addi	r2,r2,1
    14d0:	e0bfd815 	stw	r2,-160(fp)
				break;
    14d4:	0001883a 	nop
    14d8:	00003506 	br	15b0 <hdderive+0x3d0>
			}
			else if (!strchr(digits, keypath[i])) {
    14dc:	e0ffee17 	ldw	r3,-72(fp)
    14e0:	e0bfdd17 	ldw	r2,-140(fp)
    14e4:	1885883a 	add	r2,r3,r2
    14e8:	10800003 	ldbu	r2,0(r2)
    14ec:	10803fcc 	andi	r2,r2,255
    14f0:	1080201c 	xori	r2,r2,128
    14f4:	10bfe004 	addi	r2,r2,-128
    14f8:	100b883a 	mov	r5,r2
    14fc:	010001b4 	movhi	r4,6
    1500:	2103de04 	addi	r4,r4,3960
    1504:	00499ac0 	call	499ac <strchr>
    1508:	1000061e 	bne	r2,zero,1524 <hdderive+0x344>
				posbnum = -1;
    150c:	00bfffc4 	movi	r2,-1
    1510:	e0bfd715 	stw	r2,-164(fp)
				posanum = -1;
    1514:	00bfffc4 	movi	r2,-1
    1518:	e0bfd615 	stw	r2,-168(fp)
				break;
    151c:	00002406 	br	15b0 <hdderive+0x3d0>
	for (unsigned int i = 0; i<strlen(keypath); i++) {
		if (i > maxlen) {
			break;
		}
		if (posanum > -1 && posbnum == -1) {
			if (keypath[i] == '-') {
    1520:	0001883a 	nop
				posbnum = -1;
				posanum = -1;
				break;
			}
		}
		if (keypath[i] == '[' || keypath[i] == '(') {
    1524:	e0ffee17 	ldw	r3,-72(fp)
    1528:	e0bfdd17 	ldw	r2,-140(fp)
    152c:	1885883a 	add	r2,r3,r2
    1530:	10800003 	ldbu	r2,0(r2)
    1534:	10803fcc 	andi	r2,r2,255
    1538:	1080201c 	xori	r2,r2,128
    153c:	10bfe004 	addi	r2,r2,-128
    1540:	108016e0 	cmpeqi	r2,r2,91
    1544:	1000091e 	bne	r2,zero,156c <hdderive+0x38c>
    1548:	e0ffee17 	ldw	r3,-72(fp)
    154c:	e0bfdd17 	ldw	r2,-140(fp)
    1550:	1885883a 	add	r2,r3,r2
    1554:	10800003 	ldbu	r2,0(r2)
    1558:	10803fcc 	andi	r2,r2,255
    155c:	1080201c 	xori	r2,r2,128
    1560:	10bfe004 	addi	r2,r2,-128
    1564:	10800a18 	cmpnei	r2,r2,40
    1568:	1000031e 	bne	r2,zero,1578 <hdderive+0x398>
			posanum = i+1;
    156c:	e0bfdd17 	ldw	r2,-140(fp)
    1570:	10800044 	addi	r2,r2,1
    1574:	e0bfd615 	stw	r2,-168(fp)
	int end = -1;
	uint64_t from;
	uint64_t to;

	static char digits[] = "0123456789";
	for (unsigned int i = 0; i<strlen(keypath); i++) {
    1578:	e0bfdd17 	ldw	r2,-140(fp)
    157c:	10800044 	addi	r2,r2,1
    1580:	e0bfdd15 	stw	r2,-140(fp)
    1584:	e13fee17 	ldw	r4,-72(fp)
    1588:	0049cc80 	call	49cc8 <strlen>
    158c:	1007883a 	mov	r3,r2
    1590:	e0bfdd17 	ldw	r2,-140(fp)
    1594:	10ff5836 	bltu	r2,r3,12f8 <__alt_mem_epcs_flash_controller+0xfdff02f8>
    1598:	00000506 	br	15b0 <hdderive+0x3d0>
		if (i > maxlen) {
			break;
    159c:	0001883a 	nop
    15a0:	00000306 	br	15b0 <hdderive+0x3d0>
		}
		if (posanum > -1 && posbnum == -1) {
			if (keypath[i] == '-') {
				if (i-posanum >= 9) {
					break;
    15a4:	0001883a 	nop
    15a8:	00000106 	br	15b0 <hdderive+0x3d0>
			}
		}
		else if (posanum > -1 && posbnum > -1) {
			if (keypath[i] == ']' || keypath[i] == ')') {
				if (i-posbnum >= 9) {
					break;
    15ac:	0001883a 	nop
		if (keypath[i] == '[' || keypath[i] == '(') {
			posanum = i+1;
		}
	}

	if (end > -1 && from <= to) {
    15b0:	e0bfd817 	ldw	r2,-160(fp)
    15b4:	10009c16 	blt	r2,zero,1828 <hdderive+0x648>
    15b8:	e0bfda17 	ldw	r2,-152(fp)
    15bc:	e0ffdc17 	ldw	r3,-144(fp)
    15c0:	18809936 	bltu	r3,r2,1828 <hdderive+0x648>
    15c4:	e0ffda17 	ldw	r3,-152(fp)
    15c8:	e0bfdc17 	ldw	r2,-144(fp)
    15cc:	1880031e 	bne	r3,r2,15dc <hdderive+0x3fc>
    15d0:	e0bfd917 	ldw	r2,-156(fp)
    15d4:	e0ffdb17 	ldw	r3,-148(fp)
    15d8:	18809336 	bltu	r3,r2,1828 <hdderive+0x648>
		for (uint64_t i = from; i <= to; i++) {
    15dc:	e0bfd917 	ldw	r2,-156(fp)
    15e0:	e0bfde15 	stw	r2,-136(fp)
    15e4:	e0bfda17 	ldw	r2,-152(fp)
    15e8:	e0bfdf15 	stw	r2,-132(fp)
    15ec:	00008406 	br	1800 <hdderive+0x620>
    15f0:	d805883a 	mov	r2,sp
    15f4:	e0bff315 	stw	r2,-52(fp)
			char keypathnew[strlen(keypath)+16];
    15f8:	e13fee17 	ldw	r4,-72(fp)
    15fc:	0049cc80 	call	49cc8 <strlen>
    1600:	10800404 	addi	r2,r2,16
    1604:	1007883a 	mov	r3,r2
    1608:	18ffffc4 	addi	r3,r3,-1
    160c:	e0ffe415 	stw	r3,-112(fp)
    1610:	1029883a 	mov	r20,r2
    1614:	002b883a 	mov	r21,zero
    1618:	a006d77a 	srli	r3,r20,29
    161c:	a82290fa 	slli	r17,r21,3
    1620:	1c62b03a 	or	r17,r3,r17
    1624:	a02090fa 	slli	r16,r20,3
    1628:	102d883a 	mov	r22,r2
    162c:	002f883a 	mov	r23,zero
    1630:	b006d77a 	srli	r3,r22,29
    1634:	b82690fa 	slli	r19,r23,3
    1638:	1ce6b03a 	or	r19,r3,r19
    163c:	b02490fa 	slli	r18,r22,3
    1640:	108000c4 	addi	r2,r2,3
    1644:	1004d0ba 	srli	r2,r2,2
    1648:	1085883a 	add	r2,r2,r2
    164c:	1085883a 	add	r2,r2,r2
    1650:	d8b7c83a 	sub	sp,sp,r2
    1654:	d8800104 	addi	r2,sp,4
    1658:	1005883a 	mov	r2,r2
    165c:	e0bfe515 	stw	r2,-108(fp)
			memcpy(keypathnew, keypath, posanum-1);
    1660:	e0ffe517 	ldw	r3,-108(fp)
    1664:	e0bfd617 	ldw	r2,-168(fp)
    1668:	10bfffc4 	addi	r2,r2,-1
    166c:	100d883a 	mov	r6,r2
    1670:	e17fee17 	ldw	r5,-72(fp)
    1674:	1809883a 	mov	r4,r3
    1678:	00489e80 	call	489e8 <memcpy>
			char index[9] = {0};
    167c:	e03fea8d 	sth	zero,-86(fp)
    1680:	e03feb0d 	sth	zero,-84(fp)
    1684:	e03feb8d 	sth	zero,-82(fp)
    1688:	e03fec0d 	sth	zero,-80(fp)
    168c:	e03fec85 	stb	zero,-78(fp)
			sprintf(index, "%lld", i);
    1690:	e0bfea84 	addi	r2,fp,-86
    1694:	e1bfde17 	ldw	r6,-136(fp)
    1698:	e1ffdf17 	ldw	r7,-132(fp)
    169c:	014001b4 	movhi	r5,6
    16a0:	296d2004 	addi	r5,r5,-19328
    16a4:	1009883a 	mov	r4,r2
    16a8:	00498bc0 	call	498bc <sprintf>
			memcpy(keypathnew+posanum-1, index, strlen(index));
    16ac:	e0ffe517 	ldw	r3,-108(fp)
    16b0:	e0bfd617 	ldw	r2,-168(fp)
    16b4:	10bfffc4 	addi	r2,r2,-1
    16b8:	1885883a 	add	r2,r3,r2
    16bc:	e0bff415 	stw	r2,-48(fp)
    16c0:	e0bfea84 	addi	r2,fp,-86
    16c4:	1009883a 	mov	r4,r2
    16c8:	0049cc80 	call	49cc8 <strlen>
    16cc:	1007883a 	mov	r3,r2
    16d0:	e0bfea84 	addi	r2,fp,-86
    16d4:	180d883a 	mov	r6,r3
    16d8:	100b883a 	mov	r5,r2
    16dc:	e13ff417 	ldw	r4,-48(fp)
    16e0:	00489e80 	call	489e8 <memcpy>
			memcpy(keypathnew+posanum-1+strlen(index), &keypath[end], strlen(keypath)-end);
    16e4:	e0bfe517 	ldw	r2,-108(fp)
    16e8:	e0bff515 	stw	r2,-44(fp)
    16ec:	e0bfea84 	addi	r2,fp,-86
    16f0:	1009883a 	mov	r4,r2
    16f4:	0049cc80 	call	49cc8 <strlen>
    16f8:	1007883a 	mov	r3,r2
    16fc:	e0bfd617 	ldw	r2,-168(fp)
    1700:	1885883a 	add	r2,r3,r2
    1704:	10bfffc4 	addi	r2,r2,-1
    1708:	e0fff517 	ldw	r3,-44(fp)
    170c:	1885883a 	add	r2,r3,r2
    1710:	e0bff615 	stw	r2,-40(fp)
    1714:	e0bfd817 	ldw	r2,-160(fp)
    1718:	e0ffee17 	ldw	r3,-72(fp)
    171c:	1887883a 	add	r3,r3,r2
    1720:	e0fff715 	stw	r3,-36(fp)
    1724:	e13fee17 	ldw	r4,-72(fp)
    1728:	0049cc80 	call	49cc8 <strlen>
    172c:	1007883a 	mov	r3,r2
    1730:	e0bfd817 	ldw	r2,-160(fp)
    1734:	1885c83a 	sub	r2,r3,r2
    1738:	100d883a 	mov	r6,r2
    173c:	e17ff717 	ldw	r5,-36(fp)
    1740:	e13ff617 	ldw	r4,-40(fp)
    1744:	00489e80 	call	489e8 <memcpy>


			if (!hd_derive(chain, pkey, keypathnew, newextkey, sizeout))
    1748:	d0e00117 	ldw	r3,-32764(gp)
    174c:	e13fe517 	ldw	r4,-108(fp)
    1750:	e17fe217 	ldw	r5,-120(fp)
    1754:	e0bfe017 	ldw	r2,-128(fp)
    1758:	d8800015 	stw	r2,0(sp)
    175c:	280f883a 	mov	r7,r5
    1760:	200d883a 	mov	r6,r4
    1764:	e17fed17 	ldw	r5,-76(fp)
    1768:	1809883a 	mov	r4,r3
    176c:	00059100 	call	5910 <hd_derive>
    1770:	10803fcc 	andi	r2,r2,255
    1774:	1000071e 	bne	r2,zero,1794 <hdderive+0x5b4>
				return showError("Deriving child key failed\n");
    1778:	010001b4 	movhi	r4,6
    177c:	212d2204 	addi	r4,r4,-19320
    1780:	0000bfc0 	call	bfc <showError>
    1784:	10803fcc 	andi	r2,r2,255
    1788:	e0bff115 	stw	r2,-60(fp)
    178c:	0005883a 	mov	r2,zero
    1790:	00000d06 	br	17c8 <hdderive+0x5e8>
			else
				hd_print_node(chain, newextkey, p2pkh_address);
    1794:	d0a00117 	ldw	r2,-32764(gp)
    1798:	e0ffe217 	ldw	r3,-120(fp)
    179c:	e1bfef17 	ldw	r6,-68(fp)
    17a0:	180b883a 	mov	r5,r3
    17a4:	1009883a 	mov	r4,r2
    17a8:	00055140 	call	5514 <hd_print_node>
				hd_save_node(chain, newextkey, keymap);
    17ac:	d0a00117 	ldw	r2,-32764(gp)
    17b0:	e0ffe217 	ldw	r3,-120(fp)
    17b4:	e1bff017 	ldw	r6,-64(fp)
    17b8:	180b883a 	mov	r5,r3
    17bc:	1009883a 	mov	r4,r2
    17c0:	0000e7c0 	call	e7c <hd_save_node>
    17c4:	00800044 	movi	r2,1
    17c8:	e6fff317 	ldw	sp,-52(fp)
    17cc:	10800060 	cmpeqi	r2,r2,1
    17d0:	10003526 	beq	r2,zero,18a8 <hdderive+0x6c8>
			posanum = i+1;
		}
	}

	if (end > -1 && from <= to) {
		for (uint64_t i = from; i <= to; i++) {
    17d4:	e13fde17 	ldw	r4,-136(fp)
    17d8:	e17fdf17 	ldw	r5,-132(fp)
    17dc:	01800044 	movi	r6,1
    17e0:	000f883a 	mov	r7,zero
    17e4:	2185883a 	add	r2,r4,r6
    17e8:	1111803a 	cmpltu	r8,r2,r4
    17ec:	29c7883a 	add	r3,r5,r7
    17f0:	40c9883a 	add	r4,r8,r3
    17f4:	2007883a 	mov	r3,r4
    17f8:	e0bfde15 	stw	r2,-136(fp)
    17fc:	e0ffdf15 	stw	r3,-132(fp)
    1800:	e0bfdf17 	ldw	r2,-132(fp)
    1804:	e0ffdc17 	ldw	r3,-144(fp)
    1808:	18802536 	bltu	r3,r2,18a0 <hdderive+0x6c0>
    180c:	e0ffdf17 	ldw	r3,-132(fp)
    1810:	e0bfdc17 	ldw	r2,-144(fp)
    1814:	18bf761e 	bne	r3,r2,15f0 <__alt_mem_epcs_flash_controller+0xfdff05f0>
    1818:	e0bfde17 	ldw	r2,-136(fp)
    181c:	e0ffdb17 	ldw	r3,-148(fp)
    1820:	18801f36 	bltu	r3,r2,18a0 <hdderive+0x6c0>
    1824:	003f7206 	br	15f0 <__alt_mem_epcs_flash_controller+0xfdff05f0>
				hd_print_node(chain, newextkey, p2pkh_address);
				hd_save_node(chain, newextkey, keymap);
		}
	}
	else {
		if (!hd_derive(chain, pkey, keypath, newextkey, sizeout))
    1828:	d0e00117 	ldw	r3,-32764(gp)
    182c:	e13fe217 	ldw	r4,-120(fp)
    1830:	e0bfe017 	ldw	r2,-128(fp)
    1834:	d8800015 	stw	r2,0(sp)
    1838:	200f883a 	mov	r7,r4
    183c:	e1bfee17 	ldw	r6,-72(fp)
    1840:	e17fed17 	ldw	r5,-76(fp)
    1844:	1809883a 	mov	r4,r3
    1848:	00059100 	call	5910 <hd_derive>
    184c:	10803fcc 	andi	r2,r2,255
    1850:	1000061e 	bne	r2,zero,186c <hdderive+0x68c>
			return showError("Deriving child key failed\n");
    1854:	010001b4 	movhi	r4,6
    1858:	212d2204 	addi	r4,r4,-19320
    185c:	0000bfc0 	call	bfc <showError>
    1860:	10803fcc 	andi	r2,r2,255
    1864:	e0bff115 	stw	r2,-60(fp)
    1868:	00000f06 	br	18a8 <hdderive+0x6c8>
		else
			hd_print_node(chain, newextkey, p2pkh_address);
    186c:	d0a00117 	ldw	r2,-32764(gp)
    1870:	e0ffe217 	ldw	r3,-120(fp)
    1874:	e1bfef17 	ldw	r6,-68(fp)
    1878:	180b883a 	mov	r5,r3
    187c:	1009883a 	mov	r4,r2
    1880:	00055140 	call	5514 <hd_print_node>
			hd_save_node(chain, newextkey, keymap);
    1884:	d0a00117 	ldw	r2,-32764(gp)
    1888:	e0ffe217 	ldw	r3,-120(fp)
    188c:	e1bff017 	ldw	r6,-64(fp)
    1890:	180b883a 	mov	r5,r3
    1894:	1009883a 	mov	r4,r2
    1898:	0000e7c0 	call	e7c <hd_save_node>
    189c:	00000106 	br	18a4 <hdderive+0x6c4>
			posanum = i+1;
		}
	}

	if (end > -1 && from <= to) {
		for (uint64_t i = from; i <= to; i++) {
    18a0:	0001883a 	nop
			return showError("Deriving child key failed\n");
		else
			hd_print_node(chain, newextkey, p2pkh_address);
			hd_save_node(chain, newextkey, keymap);
	}
	return 0;
    18a4:	e03ff115 	stw	zero,-60(fp)
    18a8:	e6fff217 	ldw	sp,-56(fp)
    18ac:	e0bff117 	ldw	r2,-60(fp)
}
    18b0:	e6fff804 	addi	sp,fp,-32
    18b4:	dfc00917 	ldw	ra,36(sp)
    18b8:	df000817 	ldw	fp,32(sp)
    18bc:	ddc00717 	ldw	r23,28(sp)
    18c0:	dd800617 	ldw	r22,24(sp)
    18c4:	dd400517 	ldw	r21,20(sp)
    18c8:	dd000417 	ldw	r20,16(sp)
    18cc:	dcc00317 	ldw	r19,12(sp)
    18d0:	dc800217 	ldw	r18,8(sp)
    18d4:	dc400117 	ldw	r17,4(sp)
    18d8:	dc000017 	ldw	r16,0(sp)
    18dc:	dec00a04 	addi	sp,sp,40
    18e0:	f800283a 	ret

000018e4 <sign_tx>:

int sign_tx(btc_tx *tx, char* txhex, char* scripthex, char* pkey, uint64_t amount, int inputindex, int sighashtype, char* signed_txhex)
{
    18e4:	deff5a04 	addi	sp,sp,-664
    18e8:	dfc0a515 	stw	ra,660(sp)
    18ec:	df00a415 	stw	fp,656(sp)
    18f0:	ddc0a315 	stw	r23,652(sp)
    18f4:	dd80a215 	stw	r22,648(sp)
    18f8:	dd40a115 	stw	r21,644(sp)
    18fc:	dd00a015 	stw	r20,640(sp)
    1900:	dcc09f15 	stw	r19,636(sp)
    1904:	dc809e15 	stw	r18,632(sp)
    1908:	dc409d15 	stw	r17,628(sp)
    190c:	dc009c15 	stw	r16,624(sp)
    1910:	df00a404 	addi	fp,sp,656
    1914:	e13feb15 	stw	r4,-84(fp)
    1918:	e17fec15 	stw	r5,-80(fp)
    191c:	e1bfed15 	stw	r6,-76(fp)
    1920:	e1ffee15 	stw	r7,-72(fp)
    1924:	d805883a 	mov	r2,sp
    1928:	e0bfef15 	stw	r2,-68(fp)
	if(!txhex || !scripthex) {
    192c:	e0bfec17 	ldw	r2,-80(fp)
    1930:	10000226 	beq	r2,zero,193c <sign_tx+0x58>
    1934:	e0bfed17 	ldw	r2,-76(fp)
    1938:	1000051e 	bne	r2,zero,1950 <sign_tx+0x6c>
		return showError("Missing tx-hex or script-hex (use -x, -s)\n");
    193c:	010001b4 	movhi	r4,6
    1940:	212d2904 	addi	r4,r4,-19292
    1944:	0000bfc0 	call	bfc <showError>
    1948:	10803fcc 	andi	r2,r2,255
    194c:	00016d06 	br	1f04 <sign_tx+0x620>
	}

	if (strlen(txhex) > 1024*100) { //don't accept tx larger then 100kb
    1950:	e13fec17 	ldw	r4,-80(fp)
    1954:	0049cc80 	call	49cc8 <strlen>
    1958:	1007883a 	mov	r3,r2
    195c:	008000b4 	movhi	r2,2
    1960:	10a40004 	addi	r2,r2,-28672
    1964:	10c0052e 	bgeu	r2,r3,197c <sign_tx+0x98>
		return showError("tx too large (max 100kb)\n");
    1968:	010001b4 	movhi	r4,6
    196c:	212d3404 	addi	r4,r4,-19248
    1970:	0000bfc0 	call	bfc <showError>
    1974:	10803fcc 	andi	r2,r2,255
    1978:	00016206 	br	1f04 <sign_tx+0x620>
	}
//	memset()
	printf("PRIVKEY INSIDE SIGN: %s\n", pkey);
    197c:	e17fee17 	ldw	r5,-72(fp)
    1980:	010001b4 	movhi	r4,6
    1984:	212d3b04 	addi	r4,r4,-19220
    1988:	0048de40 	call	48de4 <printf>
	size_t privkey_wif_size = 128;
    198c:	00802004 	movi	r2,128
    1990:	e0bf6315 	stw	r2,-628(fp)
	char* pkey_wif = malloc(sizeof(char) * privkey_wif_size);
    1994:	e13f6317 	ldw	r4,-628(fp)
    1998:	00481380 	call	48138 <malloc>
    199c:	e0bf6415 	stw	r2,-624(fp)
	strcpy(pkey_wif, pkey);
    19a0:	e17fee17 	ldw	r5,-72(fp)
    19a4:	e13f6417 	ldw	r4,-624(fp)
    19a8:	0049bec0 	call	49bec <strcpy>

	//deserialize transaction
//	btc_tx* tx = btc_tx_new();
	uint8_t* data_bin = btc_malloc(strlen(txhex) / 2 + 1);
    19ac:	e13fec17 	ldw	r4,-80(fp)
    19b0:	0049cc80 	call	49cc8 <strlen>
    19b4:	1004d07a 	srli	r2,r2,1
    19b8:	10800044 	addi	r2,r2,1
    19bc:	1009883a 	mov	r4,r2
    19c0:	00078000 	call	7800 <btc_malloc>
    19c4:	e0bf6515 	stw	r2,-620(fp)
	int outlen = 0;
    19c8:	e03f7015 	stw	zero,-576(fp)
	utils_hex_to_bin(txhex, data_bin, strlen(txhex), &outlen);
    19cc:	e13fec17 	ldw	r4,-80(fp)
    19d0:	0049cc80 	call	49cc8 <strlen>
    19d4:	1007883a 	mov	r3,r2
    19d8:	e0bf7004 	addi	r2,fp,-576
    19dc:	100f883a 	mov	r7,r2
    19e0:	180d883a 	mov	r6,r3
    19e4:	e17f6517 	ldw	r5,-620(fp)
    19e8:	e13fec17 	ldw	r4,-80(fp)
    19ec:	00440c40 	call	440c4 <utils_hex_to_bin>
	/* Only deserialize on the first iteration of the loop */
	if(inputindex == 0){
    19f0:	e0800417 	ldw	r2,16(fp)
    19f4:	1000131e 	bne	r2,zero,1a44 <sign_tx+0x160>
		if (!btc_tx_deserialize(data_bin, outlen, tx, NULL, true)) {
    19f8:	e0bf7017 	ldw	r2,-576(fp)
    19fc:	1007883a 	mov	r3,r2
    1a00:	00800044 	movi	r2,1
    1a04:	d8800015 	stw	r2,0(sp)
    1a08:	000f883a 	mov	r7,zero
    1a0c:	e1bfeb17 	ldw	r6,-84(fp)
    1a10:	180b883a 	mov	r5,r3
    1a14:	e13f6517 	ldw	r4,-620(fp)
    1a18:	0041f440 	call	41f44 <btc_tx_deserialize>
    1a1c:	1000091e 	bne	r2,zero,1a44 <sign_tx+0x160>
			free(data_bin);
    1a20:	e13f6517 	ldw	r4,-620(fp)
    1a24:	004814c0 	call	4814c <free>
			btc_tx_free(tx);
    1a28:	e13feb17 	ldw	r4,-84(fp)
    1a2c:	0041d400 	call	41d40 <btc_tx_free>
			return showError("Invalid tx hex");
    1a30:	010001b4 	movhi	r4,6
    1a34:	212d4204 	addi	r4,r4,-19192
    1a38:	0000bfc0 	call	bfc <showError>
    1a3c:	10803fcc 	andi	r2,r2,255
    1a40:	00013006 	br	1f04 <sign_tx+0x620>
		}
	}
	free(data_bin);
    1a44:	e13f6517 	ldw	r4,-620(fp)
    1a48:	004814c0 	call	4814c <free>
	printf("PRIVKEY_WIF AFTER DESERIALIZE: %s\n", pkey_wif);
    1a4c:	e17f6417 	ldw	r5,-624(fp)
    1a50:	010001b4 	movhi	r4,6
    1a54:	212d4604 	addi	r4,r4,-19176
    1a58:	0048de40 	call	48de4 <printf>

	if ((size_t)inputindex >= tx->vin->len) {
    1a5c:	e0bfeb17 	ldw	r2,-84(fp)
    1a60:	10800117 	ldw	r2,4(r2)
    1a64:	10800117 	ldw	r2,4(r2)
    1a68:	e0c00417 	ldw	r3,16(fp)
    1a6c:	18800736 	bltu	r3,r2,1a8c <sign_tx+0x1a8>
		btc_tx_free(tx);
    1a70:	e13feb17 	ldw	r4,-84(fp)
    1a74:	0041d400 	call	41d40 <btc_tx_free>
		return showError("Inputindex out of range");
    1a78:	010001b4 	movhi	r4,6
    1a7c:	212d4f04 	addi	r4,r4,-19140
    1a80:	0000bfc0 	call	bfc <showError>
    1a84:	10803fcc 	andi	r2,r2,255
    1a88:	00011e06 	br	1f04 <sign_tx+0x620>
	}

	btc_tx_in *tx_in = vector_idx(tx->vin, inputindex);
    1a8c:	e0bfeb17 	ldw	r2,-84(fp)
    1a90:	10800117 	ldw	r2,4(r2)
    1a94:	10c00017 	ldw	r3,0(r2)
    1a98:	e0800417 	ldw	r2,16(fp)
    1a9c:	1085883a 	add	r2,r2,r2
    1aa0:	1085883a 	add	r2,r2,r2
    1aa4:	1885883a 	add	r2,r3,r2
    1aa8:	10800017 	ldw	r2,0(r2)
    1aac:	e0bf6615 	stw	r2,-616(fp)

	uint8_t script_data[strlen(scripthex) / 2 + 1];
    1ab0:	e13fed17 	ldw	r4,-76(fp)
    1ab4:	0049cc80 	call	49cc8 <strlen>
    1ab8:	1004d07a 	srli	r2,r2,1
    1abc:	10800044 	addi	r2,r2,1
    1ac0:	1007883a 	mov	r3,r2
    1ac4:	18ffffc4 	addi	r3,r3,-1
    1ac8:	e0ff6715 	stw	r3,-612(fp)
    1acc:	e0bff015 	stw	r2,-64(fp)
    1ad0:	e03ff115 	stw	zero,-60(fp)
    1ad4:	e13ff017 	ldw	r4,-64(fp)
    1ad8:	2006d77a 	srli	r3,r4,29
    1adc:	e13ff117 	ldw	r4,-60(fp)
    1ae0:	202e90fa 	slli	r23,r4,3
    1ae4:	1deeb03a 	or	r23,r3,r23
    1ae8:	e0fff017 	ldw	r3,-64(fp)
    1aec:	182c90fa 	slli	r22,r3,3
    1af0:	e0bff215 	stw	r2,-56(fp)
    1af4:	e03ff315 	stw	zero,-52(fp)
    1af8:	e13ff217 	ldw	r4,-56(fp)
    1afc:	2006d77a 	srli	r3,r4,29
    1b00:	e13ff317 	ldw	r4,-52(fp)
    1b04:	202a90fa 	slli	r21,r4,3
    1b08:	1d6ab03a 	or	r21,r3,r21
    1b0c:	e0fff217 	ldw	r3,-56(fp)
    1b10:	182890fa 	slli	r20,r3,3
    1b14:	108000c4 	addi	r2,r2,3
    1b18:	1004d0ba 	srli	r2,r2,2
    1b1c:	1085883a 	add	r2,r2,r2
    1b20:	1085883a 	add	r2,r2,r2
    1b24:	d8b7c83a 	sub	sp,sp,r2
    1b28:	d8800604 	addi	r2,sp,24
    1b2c:	1005883a 	mov	r2,r2
    1b30:	e0bf6815 	stw	r2,-608(fp)
	utils_hex_to_bin(scripthex, script_data, strlen(scripthex), &outlen);
    1b34:	e53f6817 	ldw	r20,-608(fp)
    1b38:	e13fed17 	ldw	r4,-76(fp)
    1b3c:	0049cc80 	call	49cc8 <strlen>
    1b40:	1007883a 	mov	r3,r2
    1b44:	e0bf7004 	addi	r2,fp,-576
    1b48:	100f883a 	mov	r7,r2
    1b4c:	180d883a 	mov	r6,r3
    1b50:	a00b883a 	mov	r5,r20
    1b54:	e13fed17 	ldw	r4,-76(fp)
    1b58:	00440c40 	call	440c4 <utils_hex_to_bin>
	cstring* script = cstr_new_buf(script_data, outlen);
    1b5c:	e0bf6817 	ldw	r2,-608(fp)
    1b60:	e0ff7017 	ldw	r3,-576(fp)
    1b64:	180b883a 	mov	r5,r3
    1b68:	1009883a 	mov	r4,r2
    1b6c:	0005c200 	call	5c20 <cstr_new_buf>
    1b70:	e0bf6915 	stw	r2,-604(fp)

	uint256 sighash;
	memset(sighash, 0, sizeof(sighash));
    1b74:	e0bf7104 	addi	r2,fp,-572
    1b78:	01800804 	movi	r6,32
    1b7c:	000b883a 	mov	r5,zero
    1b80:	1009883a 	mov	r4,r2
    1b84:	0048c8c0 	call	48c8c <memset>
	btc_tx_sighash(tx, script, inputindex, sighashtype, 0, SIGVERSION_BASE, sighash);
    1b88:	e0c00417 	ldw	r3,16(fp)
    1b8c:	e0bf7104 	addi	r2,fp,-572
    1b90:	d8800315 	stw	r2,12(sp)
    1b94:	d8000215 	stw	zero,8(sp)
    1b98:	d8000015 	stw	zero,0(sp)
    1b9c:	d8000115 	stw	zero,4(sp)
    1ba0:	e1c00517 	ldw	r7,20(fp)
    1ba4:	180d883a 	mov	r6,r3
    1ba8:	e17f6917 	ldw	r5,-604(fp)
    1bac:	e13feb17 	ldw	r4,-84(fp)
    1bb0:	0042da80 	call	42da8 <btc_tx_sighash>

	char *hex = utils_uint8_to_hex(sighash, 32);
    1bb4:	e0bf7104 	addi	r2,fp,-572
    1bb8:	01400804 	movi	r5,32
    1bbc:	1009883a 	mov	r4,r2
    1bc0:	00449640 	call	44964 <utils_uint8_to_hex>
    1bc4:	e0bf6a15 	stw	r2,-600(fp)
	utils_reverse_hex(hex, 64);
    1bc8:	01401004 	movi	r5,64
    1bcc:	e13f6a17 	ldw	r4,-600(fp)
    1bd0:	0044a8c0 	call	44a8c <utils_reverse_hex>

	enum btc_tx_out_type type = btc_script_classify(script, NULL);
    1bd4:	000b883a 	mov	r5,zero
    1bd8:	e13f6917 	ldw	r4,-604(fp)
    1bdc:	000ca240 	call	ca24 <btc_script_classify>
    1be0:	e0bf6b15 	stw	r2,-596(fp)
	printf("script: %s\n", scripthex);
    1be4:	e17fed17 	ldw	r5,-76(fp)
    1be8:	010001b4 	movhi	r4,6
    1bec:	212d5504 	addi	r4,r4,-19116
    1bf0:	0048de40 	call	48de4 <printf>
	printf("script-type: %s\n", btc_tx_out_type_to_str(type));
    1bf4:	e13f6b17 	ldw	r4,-596(fp)
    1bf8:	000d0a00 	call	d0a0 <btc_tx_out_type_to_str>
    1bfc:	100b883a 	mov	r5,r2
    1c00:	010001b4 	movhi	r4,6
    1c04:	212d5804 	addi	r4,r4,-19104
    1c08:	0048de40 	call	48de4 <printf>
	printf("inputindex: %d\n", inputindex);
    1c0c:	e1400417 	ldw	r5,16(fp)
    1c10:	010001b4 	movhi	r4,6
    1c14:	212d5d04 	addi	r4,r4,-19084
    1c18:	0048de40 	call	48de4 <printf>
	printf("sighashtype: %d\n", sighashtype);
    1c1c:	e1400517 	ldw	r5,20(fp)
    1c20:	010001b4 	movhi	r4,6
    1c24:	212d6104 	addi	r4,r4,-19068
    1c28:	0048de40 	call	48de4 <printf>
	printf("hash: %s\n", hex);
    1c2c:	e17f6a17 	ldw	r5,-600(fp)
    1c30:	010001b4 	movhi	r4,6
    1c34:	212d6604 	addi	r4,r4,-19048
    1c38:	0048de40 	call	48de4 <printf>

	// sign
	btc_bool sign = false;
    1c3c:	e03f6205 	stb	zero,-632(fp)
	btc_key key;
	btc_privkey_init(&key);
    1c40:	e0bf7904 	addi	r2,fp,-540
    1c44:	1009883a 	mov	r4,r2
    1c48:	00062ec0 	call	62ec <btc_privkey_init>
	if (btc_privkey_decode_wif(pkey_wif, chain, &key)) {
    1c4c:	d0a00117 	ldw	r2,-32764(gp)
    1c50:	e0ff7904 	addi	r3,fp,-540
    1c54:	180d883a 	mov	r6,r3
    1c58:	100b883a 	mov	r5,r2
    1c5c:	e13f6417 	ldw	r4,-624(fp)
    1c60:	00065b80 	call	65b8 <btc_privkey_decode_wif>
    1c64:	10803fcc 	andi	r2,r2,255
    1c68:	10000326 	beq	r2,zero,1c78 <sign_tx+0x394>
		sign = true;
    1c6c:	00800044 	movi	r2,1
    1c70:	e0bf6205 	stb	r2,-632(fp)
    1c74:	00001106 	br	1cbc <sign_tx+0x3d8>
	}
	else {
		if (strlen(pkey_wif) > 50) {
    1c78:	e13f6417 	ldw	r4,-624(fp)
    1c7c:	0049cc80 	call	49cc8 <strlen>
    1c80:	10800cf0 	cmpltui	r2,r2,51
    1c84:	10000a1e 	bne	r2,zero,1cb0 <sign_tx+0x3cc>
			btc_tx_free(tx);
    1c88:	e13feb17 	ldw	r4,-84(fp)
    1c8c:	0041d400 	call	41d40 <btc_tx_free>
			cstr_free(script, true);
    1c90:	01400044 	movi	r5,1
    1c94:	e13f6917 	ldw	r4,-604(fp)
    1c98:	0005d580 	call	5d58 <cstr_free>
			return showError("Invalid wif privkey\n");
    1c9c:	010001b4 	movhi	r4,6
    1ca0:	212d6904 	addi	r4,r4,-19036
    1ca4:	0000bfc0 	call	bfc <showError>
    1ca8:	10803fcc 	andi	r2,r2,255
    1cac:	00009506 	br	1f04 <sign_tx+0x620>
		}
		printf("No private key provided, signing will not happen\n");
    1cb0:	010001b4 	movhi	r4,6
    1cb4:	212d6f04 	addi	r4,r4,-19012
    1cb8:	0048f000 	call	48f00 <puts>
	}
	free(pkey_wif);
    1cbc:	e13f6417 	ldw	r4,-624(fp)
    1cc0:	004814c0 	call	4814c <free>
	if (sign) {
    1cc4:	e0bf6203 	ldbu	r2,-632(fp)
    1cc8:	10008d26 	beq	r2,zero,1f00 <sign_tx+0x61c>
    1ccc:	d805883a 	mov	r2,sp
    1cd0:	1029883a 	mov	r20,r2
		uint8_t sigcompact[64] = {0};
    1cd4:	e0bfdac4 	addi	r2,fp,-149
    1cd8:	00c01004 	movi	r3,64
    1cdc:	180d883a 	mov	r6,r3
    1ce0:	000b883a 	mov	r5,zero
    1ce4:	1009883a 	mov	r4,r2
    1ce8:	0048c8c0 	call	48c8c <memset>
		int sigderlen = 74+1; //&hashtype
    1cec:	008012c4 	movi	r2,75
    1cf0:	e0bf8115 	stw	r2,-508(fp)
		uint8_t sigder_plus_hashtype[75] = {0};
    1cf4:	e0bfc804 	addi	r2,fp,-224
    1cf8:	00c012c4 	movi	r3,75
    1cfc:	180d883a 	mov	r6,r3
    1d00:	000b883a 	mov	r5,zero
    1d04:	1009883a 	mov	r4,r2
    1d08:	0048c8c0 	call	48c8c <memset>
		enum btc_tx_sign_result res = btc_tx_sign_input(tx, script, amount, &key, inputindex, sighashtype, sigcompact, sigder_plus_hashtype, &sigderlen);
    1d0c:	e0bf8104 	addi	r2,fp,-508
    1d10:	d8800515 	stw	r2,20(sp)
    1d14:	e0bfc804 	addi	r2,fp,-224
    1d18:	d8800415 	stw	r2,16(sp)
    1d1c:	e0bfdac4 	addi	r2,fp,-149
    1d20:	d8800315 	stw	r2,12(sp)
    1d24:	e0800517 	ldw	r2,20(fp)
    1d28:	d8800215 	stw	r2,8(sp)
    1d2c:	e0800417 	ldw	r2,16(fp)
    1d30:	d8800115 	stw	r2,4(sp)
    1d34:	e0bf7904 	addi	r2,fp,-540
    1d38:	d8800015 	stw	r2,0(sp)
    1d3c:	e1800217 	ldw	r6,8(fp)
    1d40:	e1c00317 	ldw	r7,12(fp)
    1d44:	e17f6917 	ldw	r5,-604(fp)
    1d48:	e13feb17 	ldw	r4,-84(fp)
    1d4c:	0043a900 	call	43a90 <btc_tx_sign_input>
    1d50:	e0bf6c15 	stw	r2,-592(fp)
		cstr_free(script, true);
    1d54:	01400044 	movi	r5,1
    1d58:	e13f6917 	ldw	r4,-604(fp)
    1d5c:	0005d580 	call	5d58 <cstr_free>

		if (res != BTC_SIGN_OK) {
    1d60:	e0bf6c17 	ldw	r2,-592(fp)
    1d64:	10800060 	cmpeqi	r2,r2,1
    1d68:	1000061e 	bne	r2,zero,1d84 <sign_tx+0x4a0>
			printf("!!!Sign error:%s\n", btc_tx_sign_result_to_str(res));
    1d6c:	e13f6c17 	ldw	r4,-592(fp)
    1d70:	00439c00 	call	439c0 <btc_tx_sign_result_to_str>
    1d74:	100b883a 	mov	r5,r2
    1d78:	010001b4 	movhi	r4,6
    1d7c:	212d7c04 	addi	r4,r4,-18960
    1d80:	0048de40 	call	48de4 <printf>
		}

		char sigcompacthex[64*2+1] = {0};
    1d84:	e0bfa7c4 	addi	r2,fp,-353
    1d88:	00c02044 	movi	r3,129
    1d8c:	180d883a 	mov	r6,r3
    1d90:	000b883a 	mov	r5,zero
    1d94:	1009883a 	mov	r4,r2
    1d98:	0048c8c0 	call	48c8c <memset>
		utils_bin_to_hex((unsigned char *)sigcompact, 64, sigcompacthex);
    1d9c:	e0ffa7c4 	addi	r3,fp,-353
    1da0:	e0bfdac4 	addi	r2,fp,-149
    1da4:	180d883a 	mov	r6,r3
    1da8:	01401004 	movi	r5,64
    1dac:	1009883a 	mov	r4,r2
    1db0:	00448780 	call	44878 <utils_bin_to_hex>

		char sigderhex[74*2+2+1]; //74 der, 2 hashtype, 1 nullbyte
		memset(sigderhex, 0, sizeof(sigderhex));
    1db4:	e0bf8204 	addi	r2,fp,-504
    1db8:	018025c4 	movi	r6,151
    1dbc:	000b883a 	mov	r5,zero
    1dc0:	1009883a 	mov	r4,r2
    1dc4:	0048c8c0 	call	48c8c <memset>
		utils_bin_to_hex((unsigned char *)sigder_plus_hashtype, sigderlen, sigderhex);
    1dc8:	e0bf8117 	ldw	r2,-508(fp)
    1dcc:	1009883a 	mov	r4,r2
    1dd0:	e0ff8204 	addi	r3,fp,-504
    1dd4:	e0bfc804 	addi	r2,fp,-224
    1dd8:	180d883a 	mov	r6,r3
    1ddc:	200b883a 	mov	r5,r4
    1de0:	1009883a 	mov	r4,r2
    1de4:	00448780 	call	44878 <utils_bin_to_hex>

		printf("\nSignature created:\n");
    1de8:	010001b4 	movhi	r4,6
    1dec:	212d8104 	addi	r4,r4,-18940
    1df0:	0048f000 	call	48f00 <puts>
		printf("signature compact: %s\n", sigcompacthex);
    1df4:	e0bfa7c4 	addi	r2,fp,-353
    1df8:	100b883a 	mov	r5,r2
    1dfc:	010001b4 	movhi	r4,6
    1e00:	212d8604 	addi	r4,r4,-18920
    1e04:	0048de40 	call	48de4 <printf>
		printf("signature DER (+hashtype): %s\n", sigderhex);
    1e08:	e0bf8204 	addi	r2,fp,-504
    1e0c:	100b883a 	mov	r5,r2
    1e10:	010001b4 	movhi	r4,6
    1e14:	212d8c04 	addi	r4,r4,-18896
    1e18:	0048de40 	call	48de4 <printf>

		cstring* signed_tx = cstr_new_sz(1024);
    1e1c:	01010004 	movi	r4,1024
    1e20:	0005bb40 	call	5bb4 <cstr_new_sz>
    1e24:	e0bf6d15 	stw	r2,-588(fp)
		btc_tx_serialize(signed_tx, tx, true);
    1e28:	01800044 	movi	r6,1
    1e2c:	e17feb17 	ldw	r5,-84(fp)
    1e30:	e13f6d17 	ldw	r4,-588(fp)
    1e34:	00423e00 	call	423e0 <btc_tx_serialize>

		char signed_tx_hex[signed_tx->len*2+1];
    1e38:	e0bf6d17 	ldw	r2,-588(fp)
    1e3c:	10800117 	ldw	r2,4(r2)
    1e40:	1085883a 	add	r2,r2,r2
    1e44:	10800044 	addi	r2,r2,1
    1e48:	1007883a 	mov	r3,r2
    1e4c:	18ffffc4 	addi	r3,r3,-1
    1e50:	e0ff6e15 	stw	r3,-584(fp)
    1e54:	e0bff415 	stw	r2,-48(fp)
    1e58:	e03ff515 	stw	zero,-44(fp)
    1e5c:	e13ff417 	ldw	r4,-48(fp)
    1e60:	2006d77a 	srli	r3,r4,29
    1e64:	e13ff517 	ldw	r4,-44(fp)
    1e68:	202690fa 	slli	r19,r4,3
    1e6c:	1ce6b03a 	or	r19,r3,r19
    1e70:	e0fff417 	ldw	r3,-48(fp)
    1e74:	182490fa 	slli	r18,r3,3
    1e78:	e0bff615 	stw	r2,-40(fp)
    1e7c:	e03ff715 	stw	zero,-36(fp)
    1e80:	e13ff617 	ldw	r4,-40(fp)
    1e84:	2006d77a 	srli	r3,r4,29
    1e88:	e13ff717 	ldw	r4,-36(fp)
    1e8c:	202290fa 	slli	r17,r4,3
    1e90:	1c62b03a 	or	r17,r3,r17
    1e94:	e0fff617 	ldw	r3,-40(fp)
    1e98:	182090fa 	slli	r16,r3,3
    1e9c:	108000c4 	addi	r2,r2,3
    1ea0:	1004d0ba 	srli	r2,r2,2
    1ea4:	1085883a 	add	r2,r2,r2
    1ea8:	1085883a 	add	r2,r2,r2
    1eac:	d8b7c83a 	sub	sp,sp,r2
    1eb0:	d8800604 	addi	r2,sp,24
    1eb4:	1005883a 	mov	r2,r2
    1eb8:	e0bf6f15 	stw	r2,-580(fp)
		utils_bin_to_hex((unsigned char *)signed_tx->str, signed_tx->len, signed_tx_hex);
    1ebc:	e0bf6d17 	ldw	r2,-588(fp)
    1ec0:	10c00017 	ldw	r3,0(r2)
    1ec4:	e0bf6d17 	ldw	r2,-588(fp)
    1ec8:	10800117 	ldw	r2,4(r2)
    1ecc:	e13f6f17 	ldw	r4,-580(fp)
    1ed0:	200d883a 	mov	r6,r4
    1ed4:	100b883a 	mov	r5,r2
    1ed8:	1809883a 	mov	r4,r3
    1edc:	00448780 	call	44878 <utils_bin_to_hex>
//		printf("signed TX: %s\n", signed_tx_hex);
//		memset(signed_txhex, 0, signed_tx ->len*2+1);
		strcpy(signed_txhex, signed_tx_hex);
    1ee0:	e0bf6f17 	ldw	r2,-580(fp)
    1ee4:	100b883a 	mov	r5,r2
    1ee8:	e1000617 	ldw	r4,24(fp)
    1eec:	0049bec0 	call	49bec <strcpy>
		cstr_free(signed_tx, true);
    1ef0:	01400044 	movi	r5,1
    1ef4:	e13f6d17 	ldw	r4,-588(fp)
    1ef8:	0005d580 	call	5d58 <cstr_free>
    1efc:	a037883a 	mov	sp,r20

	}
//	btc_tx_free(tx);
//	return true;
	return 0;
    1f00:	0005883a 	mov	r2,zero
    1f04:	e6ffef17 	ldw	sp,-68(fp)
}
    1f08:	e6fff804 	addi	sp,fp,-32
    1f0c:	dfc00917 	ldw	ra,36(sp)
    1f10:	df000817 	ldw	fp,32(sp)
    1f14:	ddc00717 	ldw	r23,28(sp)
    1f18:	dd800617 	ldw	r22,24(sp)
    1f1c:	dd400517 	ldw	r21,20(sp)
    1f20:	dd000417 	ldw	r20,16(sp)
    1f24:	dcc00317 	ldw	r19,12(sp)
    1f28:	dc800217 	ldw	r18,8(sp)
    1f2c:	dc400117 	ldw	r17,4(sp)
    1f30:	dc000017 	ldw	r16,0(sp)
    1f34:	dec00a04 	addi	sp,sp,40
    1f38:	f800283a 	ret

00001f3c <parseData>:

char **parseData(char *str)
{
    1f3c:	defff904 	addi	sp,sp,-28
    1f40:	dfc00615 	stw	ra,24(sp)
    1f44:	df000515 	stw	fp,20(sp)
    1f48:	df000504 	addi	fp,sp,20
    1f4c:	e13fff15 	stw	r4,-4(fp)
	char ** res  = NULL;
    1f50:	e03ffb15 	stw	zero,-20(fp)
	char *  p    = strtok (str, ":");
    1f54:	014001b4 	movhi	r5,6
    1f58:	296d9404 	addi	r5,r5,-18864
    1f5c:	e13fff17 	ldw	r4,-4(fp)
    1f60:	0049f600 	call	49f60 <strtok>
    1f64:	e0bffc15 	stw	r2,-16(fp)
	int n_spaces = 0, i;
    1f68:	e03ffd15 	stw	zero,-12(fp)

	/* split string and append tokens to 'res' */
	while (p) {
    1f6c:	00001e06 	br	1fe8 <parseData+0xac>
	  res = realloc (res, sizeof (char*) * ++n_spaces);
    1f70:	e0bffd17 	ldw	r2,-12(fp)
    1f74:	10800044 	addi	r2,r2,1
    1f78:	e0bffd15 	stw	r2,-12(fp)
    1f7c:	e0bffd17 	ldw	r2,-12(fp)
    1f80:	1085883a 	add	r2,r2,r2
    1f84:	1085883a 	add	r2,r2,r2
    1f88:	100b883a 	mov	r5,r2
    1f8c:	e13ffb17 	ldw	r4,-20(fp)
    1f90:	0048f900 	call	48f90 <realloc>
    1f94:	e0bffb15 	stw	r2,-20(fp)

	  if (res == NULL)
    1f98:	e0bffb17 	ldw	r2,-20(fp)
    1f9c:	1000021e 	bne	r2,zero,1fa8 <parseData+0x6c>
	    exit (-1); /* memory allocation failed */
    1fa0:	013fffc4 	movi	r4,-1
    1fa4:	0047ef40 	call	47ef4 <exit>

	  res[n_spaces-1] = p;
    1fa8:	e0fffd17 	ldw	r3,-12(fp)
    1fac:	00900034 	movhi	r2,16384
    1fb0:	10bfffc4 	addi	r2,r2,-1
    1fb4:	1885883a 	add	r2,r3,r2
    1fb8:	1085883a 	add	r2,r2,r2
    1fbc:	1085883a 	add	r2,r2,r2
    1fc0:	1007883a 	mov	r3,r2
    1fc4:	e0bffb17 	ldw	r2,-20(fp)
    1fc8:	10c5883a 	add	r2,r2,r3
    1fcc:	e0fffc17 	ldw	r3,-16(fp)
    1fd0:	10c00015 	stw	r3,0(r2)

	  p = strtok (NULL, ":");
    1fd4:	014001b4 	movhi	r5,6
    1fd8:	296d9404 	addi	r5,r5,-18864
    1fdc:	0009883a 	mov	r4,zero
    1fe0:	0049f600 	call	49f60 <strtok>
    1fe4:	e0bffc15 	stw	r2,-16(fp)
	char ** res  = NULL;
	char *  p    = strtok (str, ":");
	int n_spaces = 0, i;

	/* split string and append tokens to 'res' */
	while (p) {
    1fe8:	e0bffc17 	ldw	r2,-16(fp)
    1fec:	103fe01e 	bne	r2,zero,1f70 <__alt_mem_epcs_flash_controller+0xfdff0f70>

	  p = strtok (NULL, ":");
	}

	/* realloc one extra element for the last NULL */
	res = realloc (res, sizeof (char*) * (n_spaces+1));
    1ff0:	e0bffd17 	ldw	r2,-12(fp)
    1ff4:	10800044 	addi	r2,r2,1
    1ff8:	1085883a 	add	r2,r2,r2
    1ffc:	1085883a 	add	r2,r2,r2
    2000:	100b883a 	mov	r5,r2
    2004:	e13ffb17 	ldw	r4,-20(fp)
    2008:	0048f900 	call	48f90 <realloc>
    200c:	e0bffb15 	stw	r2,-20(fp)
	res[n_spaces] = 0;
    2010:	e0bffd17 	ldw	r2,-12(fp)
    2014:	1085883a 	add	r2,r2,r2
    2018:	1085883a 	add	r2,r2,r2
    201c:	1007883a 	mov	r3,r2
    2020:	e0bffb17 	ldw	r2,-20(fp)
    2024:	10c5883a 	add	r2,r2,r3
    2028:	10000015 	stw	zero,0(r2)

	/* print the result */
	for (i = 0; i < (n_spaces+1); ++i)
    202c:	e03ffe15 	stw	zero,-8(fp)
    2030:	00000f06 	br	2070 <parseData+0x134>
	  printf ("res[%d] = %s\n", i, res[i]);
    2034:	e0bffe17 	ldw	r2,-8(fp)
    2038:	1085883a 	add	r2,r2,r2
    203c:	1085883a 	add	r2,r2,r2
    2040:	1007883a 	mov	r3,r2
    2044:	e0bffb17 	ldw	r2,-20(fp)
    2048:	10c5883a 	add	r2,r2,r3
    204c:	10800017 	ldw	r2,0(r2)
    2050:	100d883a 	mov	r6,r2
    2054:	e17ffe17 	ldw	r5,-8(fp)
    2058:	010001b4 	movhi	r4,6
    205c:	212d9504 	addi	r4,r4,-18860
    2060:	0048de40 	call	48de4 <printf>
	/* realloc one extra element for the last NULL */
	res = realloc (res, sizeof (char*) * (n_spaces+1));
	res[n_spaces] = 0;

	/* print the result */
	for (i = 0; i < (n_spaces+1); ++i)
    2064:	e0bffe17 	ldw	r2,-8(fp)
    2068:	10800044 	addi	r2,r2,1
    206c:	e0bffe15 	stw	r2,-8(fp)
    2070:	e0bffd17 	ldw	r2,-12(fp)
    2074:	10800044 	addi	r2,r2,1
    2078:	e0fffe17 	ldw	r3,-8(fp)
    207c:	18bfed16 	blt	r3,r2,2034 <__alt_mem_epcs_flash_controller+0xfdff1034>
	  printf ("res[%d] = %s\n", i, res[i]);

	return res;
    2080:	e0bffb17 	ldw	r2,-20(fp)
//	/* free the memory allocated */
//
//	free (res);
}
    2084:	e037883a 	mov	sp,fp
    2088:	dfc00117 	ldw	ra,4(sp)
    208c:	df000017 	ldw	fp,0(sp)
    2090:	dec00204 	addi	sp,sp,8
    2094:	f800283a 	ret

00002098 <main>:


int main()
{
    2098:	defff604 	addi	sp,sp,-40
    209c:	dfc00915 	stw	ra,36(sp)
    20a0:	df000815 	stw	fp,32(sp)
    20a4:	ddc00715 	stw	r23,28(sp)
    20a8:	dd800615 	stw	r22,24(sp)
    20ac:	dd400515 	stw	r21,20(sp)
    20b0:	dd000415 	stw	r20,16(sp)
    20b4:	dcc00315 	stw	r19,12(sp)
    20b8:	dc800215 	stw	r18,8(sp)
    20bc:	dc400115 	stw	r17,4(sp)
    20c0:	dc000015 	stw	r16,0(sp)
    20c4:	df000804 	addi	fp,sp,32
    20c8:	023ffc34 	movhi	r8,65520
    20cc:	423fdf04 	addi	r8,r8,-132
    20d0:	da37883a 	add	sp,sp,r8
	/* start ECC context */
	printf("Setting up...\n");
    20d4:	010001b4 	movhi	r4,6
    20d8:	212d9904 	addi	r4,r4,-18844
    20dc:	0048f000 	call	48f00 <puts>
	btc_ecc_start();
    20e0:	0006d900 	call	6d90 <btc_ecc_start>
	printf("Done!\n");
    20e4:	010001b4 	movhi	r4,6
    20e8:	212d9d04 	addi	r4,r4,-18828
    20ec:	0048f000 	call	48f00 <puts>

    initialize();
    20f0:	0000bbc0 	call	bbc <initialize>

    //Create Hash Table
	map_t keymap;
	keymap = hashmap_new();
    20f4:	00002900 	call	290 <hashmap_new>
    20f8:	00fffc34 	movhi	r3,65520
    20fc:	18ffde04 	addi	r3,r3,-136
    2100:	1f07883a 	add	r3,r3,fp
    2104:	18800015 	stw	r2,0(r3)
//	}

//	sprintf(buffer, "Menmonic phrase: %s\n", mnemonic_phrase);
//	PutStrUart((char *)&(buffer[0]));
	//Hardcoding some addresses that have value in them
	hashmap_put(keymap, "mx97R1ymecapsDH8t7jVNH9henf8vxzuGD", "cRGz9MNtZHKPQ4Y1hvz5ncXHj3zzup7W6G4LCFw728JrHtnYKa6P");
    2108:	018001b4 	movhi	r6,6
    210c:	31ad9f04 	addi	r6,r6,-18820
    2110:	014001b4 	movhi	r5,6
    2114:	296dad04 	addi	r5,r5,-18764
    2118:	00bffc34 	movhi	r2,65520
    211c:	10bfde04 	addi	r2,r2,-136
    2120:	1705883a 	add	r2,r2,fp
    2124:	11000017 	ldw	r4,0(r2)
    2128:	000072c0 	call	72c <hashmap_put>
	hashmap_put(keymap, "mp8hL5KPhy71XU8Q1HfaYtJYJHcBMciFKN", "cNMfHuYtJRePmTnzeaDKXZ64wu9DMJWnu1f8S7s96vDrnnZozjw2");
    212c:	018001b4 	movhi	r6,6
    2130:	31adb604 	addi	r6,r6,-18728
    2134:	014001b4 	movhi	r5,6
    2138:	296dc404 	addi	r5,r5,-18672
    213c:	00fffc34 	movhi	r3,65520
    2140:	18ffde04 	addi	r3,r3,-136
    2144:	1f07883a 	add	r3,r3,fp
    2148:	19000017 	ldw	r4,0(r3)
    214c:	000072c0 	call	72c <hashmap_put>

	alt_u8 count = 0;
    2150:	013ffc34 	movhi	r4,65520
    2154:	213fdc04 	addi	r4,r4,-144
    2158:	2709883a 	add	r4,r4,fp
    215c:	20000005 	stb	zero,0(r4)
	alt_u32 randVal;
	char buf[BUF_SIZE] = {'\0'};
    2160:	00fffc34 	movhi	r3,65520
    2164:	18ffef04 	addi	r3,r3,-68
    2168:	e0c5883a 	add	r2,fp,r3
    216c:	00c00434 	movhi	r3,16
    2170:	180d883a 	mov	r6,r3
    2174:	000b883a 	mov	r5,zero
    2178:	1009883a 	mov	r4,r2
    217c:	0048c8c0 	call	48c8c <memset>
	char *key;
	char *val;
	char **res;
	const size_t sizeout = 128;
    2180:	00802004 	movi	r2,128
    2184:	013ffc34 	movhi	r4,65520
    2188:	213fdf04 	addi	r4,r4,-132
    218c:	2709883a 	add	r4,r4,fp
    2190:	20800015 	stw	r2,0(r4)
	char masterkey[sizeout];
    2194:	00fffc34 	movhi	r3,65520
    2198:	18ffdf04 	addi	r3,r3,-132
    219c:	1f07883a 	add	r3,r3,fp
    21a0:	18800017 	ldw	r2,0(r3)
    21a4:	10bfffc4 	addi	r2,r2,-1
    21a8:	013ffc34 	movhi	r4,65520
    21ac:	213fe004 	addi	r4,r4,-128
    21b0:	2709883a 	add	r4,r4,fp
    21b4:	20800015 	stw	r2,0(r4)
    21b8:	00fffc34 	movhi	r3,65520
    21bc:	18ffdf04 	addi	r3,r3,-132
    21c0:	1f07883a 	add	r3,r3,fp
    21c4:	18800017 	ldw	r2,0(r3)
    21c8:	e0bff015 	stw	r2,-64(fp)
    21cc:	e03ff115 	stw	zero,-60(fp)
    21d0:	e13ff017 	ldw	r4,-64(fp)
    21d4:	2004d77a 	srli	r2,r4,29
    21d8:	e0fff117 	ldw	r3,-60(fp)
    21dc:	182e90fa 	slli	r23,r3,3
    21e0:	15eeb03a 	or	r23,r2,r23
    21e4:	e13ff017 	ldw	r4,-64(fp)
    21e8:	202c90fa 	slli	r22,r4,3
    21ec:	00fffc34 	movhi	r3,65520
    21f0:	18ffdf04 	addi	r3,r3,-132
    21f4:	1f07883a 	add	r3,r3,fp
    21f8:	18800017 	ldw	r2,0(r3)
    21fc:	e0bff215 	stw	r2,-56(fp)
    2200:	e03ff315 	stw	zero,-52(fp)
    2204:	e13ff217 	ldw	r4,-56(fp)
    2208:	2004d77a 	srli	r2,r4,29
    220c:	e0fff317 	ldw	r3,-52(fp)
    2210:	182a90fa 	slli	r21,r3,3
    2214:	156ab03a 	or	r21,r2,r21
    2218:	e13ff217 	ldw	r4,-56(fp)
    221c:	202890fa 	slli	r20,r4,3
    2220:	00fffc34 	movhi	r3,65520
    2224:	18ffdf04 	addi	r3,r3,-132
    2228:	1f07883a 	add	r3,r3,fp
    222c:	18800017 	ldw	r2,0(r3)
    2230:	108000c4 	addi	r2,r2,3
    2234:	1004d0ba 	srli	r2,r2,2
    2238:	1085883a 	add	r2,r2,r2
    223c:	1085883a 	add	r2,r2,r2
    2240:	d8b7c83a 	sub	sp,sp,r2
    2244:	d8800504 	addi	r2,sp,20
    2248:	1005883a 	mov	r2,r2
    224c:	013ffc34 	movhi	r4,65520
    2250:	213fe104 	addi	r4,r4,-124
    2254:	2709883a 	add	r4,r4,fp
    2258:	20800015 	stw	r2,0(r4)
	masterkey[0] = '\0';
    225c:	00fffc34 	movhi	r3,65520
    2260:	18ffe104 	addi	r3,r3,-124
    2264:	1f07883a 	add	r3,r3,fp
    2268:	18800017 	ldw	r2,0(r3)
    226c:	10000005 	stb	zero,0(r2)
	char p2pkh_address[sizeout];
    2270:	013ffc34 	movhi	r4,65520
    2274:	213fdf04 	addi	r4,r4,-132
    2278:	2709883a 	add	r4,r4,fp
    227c:	20800017 	ldw	r2,0(r4)
    2280:	10bfffc4 	addi	r2,r2,-1
    2284:	00fffc34 	movhi	r3,65520
    2288:	18ffe204 	addi	r3,r3,-120
    228c:	1f07883a 	add	r3,r3,fp
    2290:	18800015 	stw	r2,0(r3)
    2294:	013ffc34 	movhi	r4,65520
    2298:	213fdf04 	addi	r4,r4,-132
    229c:	2709883a 	add	r4,r4,fp
    22a0:	20800017 	ldw	r2,0(r4)
    22a4:	e0bff415 	stw	r2,-48(fp)
    22a8:	e03ff515 	stw	zero,-44(fp)
    22ac:	e0fff417 	ldw	r3,-48(fp)
    22b0:	1804d77a 	srli	r2,r3,29
    22b4:	e13ff517 	ldw	r4,-44(fp)
    22b8:	202690fa 	slli	r19,r4,3
    22bc:	14e6b03a 	or	r19,r2,r19
    22c0:	e0bff417 	ldw	r2,-48(fp)
    22c4:	102490fa 	slli	r18,r2,3
    22c8:	00fffc34 	movhi	r3,65520
    22cc:	18ffdf04 	addi	r3,r3,-132
    22d0:	1f07883a 	add	r3,r3,fp
    22d4:	18800017 	ldw	r2,0(r3)
    22d8:	e0bff615 	stw	r2,-40(fp)
    22dc:	e03ff715 	stw	zero,-36(fp)
    22e0:	e13ff617 	ldw	r4,-40(fp)
    22e4:	2004d77a 	srli	r2,r4,29
    22e8:	e0fff717 	ldw	r3,-36(fp)
    22ec:	182290fa 	slli	r17,r3,3
    22f0:	1462b03a 	or	r17,r2,r17
    22f4:	e13ff617 	ldw	r4,-40(fp)
    22f8:	202090fa 	slli	r16,r4,3
    22fc:	00fffc34 	movhi	r3,65520
    2300:	18ffdf04 	addi	r3,r3,-132
    2304:	1f07883a 	add	r3,r3,fp
    2308:	18800017 	ldw	r2,0(r3)
    230c:	108000c4 	addi	r2,r2,3
    2310:	1004d0ba 	srli	r2,r2,2
    2314:	1085883a 	add	r2,r2,r2
    2318:	1085883a 	add	r2,r2,r2
    231c:	d8b7c83a 	sub	sp,sp,r2
    2320:	d8800504 	addi	r2,sp,20
    2324:	1005883a 	mov	r2,r2
    2328:	013ffc34 	movhi	r4,65520
    232c:	213fe304 	addi	r4,r4,-116
    2330:	2709883a 	add	r4,r4,fp
    2334:	20800015 	stw	r2,0(r4)
	char* txhex;
	char* script;
	char* pub_addr;
	int input_idx;
	char* signed_txhex;
	size_t privkey_wif_size = 128;
    2338:	00802004 	movi	r2,128
    233c:	00fffc34 	movhi	r3,65520
    2340:	18ffe404 	addi	r3,r3,-112
    2344:	1f07883a 	add	r3,r3,fp
    2348:	18800015 	stw	r2,0(r3)
	char* privkey_wif = malloc(sizeof(char) * privkey_wif_size);
    234c:	00bffc34 	movhi	r2,65520
    2350:	10bfe404 	addi	r2,r2,-112
    2354:	1705883a 	add	r2,r2,fp
    2358:	11000017 	ldw	r4,0(r2)
    235c:	00481380 	call	48138 <malloc>
    2360:	1007883a 	mov	r3,r2
    2364:	00800434 	movhi	r2,16
    2368:	10801304 	addi	r2,r2,76
    236c:	013ffc34 	movhi	r4,65520
    2370:	213fdc04 	addi	r4,r4,-144
    2374:	2709883a 	add	r4,r4,fp
    2378:	2085883a 	add	r2,r4,r2
    237c:	10c00015 	stw	r3,0(r2)
	btc_tx* tx;

    while(1)
    {
    	uartGetLine(&buf);
    2380:	00fffc34 	movhi	r3,65520
    2384:	18ffef04 	addi	r3,r3,-68
    2388:	e0c5883a 	add	r2,fp,r3
    238c:	1009883a 	mov	r4,r2
    2390:	0002b7c0 	call	2b7c <uartGetLine>
    	if (strlen(buf) > 0) {
    2394:	013ffc34 	movhi	r4,65520
    2398:	213fef04 	addi	r4,r4,-68
    239c:	e105883a 	add	r2,fp,r4
    23a0:	10800003 	ldbu	r2,0(r2)
    23a4:	10803fcc 	andi	r2,r2,255
    23a8:	1080201c 	xori	r2,r2,128
    23ac:	10bfe004 	addi	r2,r2,-128
    23b0:	10013c26 	beq	r2,zero,28a4 <main+0x80c>
    		printf("Buf: %s\n", buf);
    23b4:	00fffc34 	movhi	r3,65520
    23b8:	18ffef04 	addi	r3,r3,-68
    23bc:	e0c5883a 	add	r2,fp,r3
    23c0:	100b883a 	mov	r5,r2
    23c4:	010001b4 	movhi	r4,6
    23c8:	212dcd04 	addi	r4,r4,-18636
    23cc:	0048de40 	call	48de4 <printf>
//    		int test = hashmap_length(keymap);
//    		printf("Length of hashtable: %d\n", test);
    		res = parseData(buf);
    23d0:	013ffc34 	movhi	r4,65520
    23d4:	213fef04 	addi	r4,r4,-68
    23d8:	e105883a 	add	r2,fp,r4
    23dc:	1009883a 	mov	r4,r2
    23e0:	0001f3c0 	call	1f3c <parseData>
    23e4:	00fffc34 	movhi	r3,65520
    23e8:	18ffe504 	addi	r3,r3,-108
    23ec:	1f07883a 	add	r3,r3,fp
    23f0:	18800015 	stw	r2,0(r3)
    		key = res[0];
    23f4:	013ffc34 	movhi	r4,65520
    23f8:	213fe504 	addi	r4,r4,-108
    23fc:	2709883a 	add	r4,r4,fp
    2400:	20800017 	ldw	r2,0(r4)
    2404:	10800017 	ldw	r2,0(r2)
    2408:	00fffc34 	movhi	r3,65520
    240c:	18ffe604 	addi	r3,r3,-104
    2410:	1f07883a 	add	r3,r3,fp
    2414:	18800015 	stw	r2,0(r3)
    		val = res[1];
    2418:	013ffc34 	movhi	r4,65520
    241c:	213fe504 	addi	r4,r4,-108
    2420:	2709883a 	add	r4,r4,fp
    2424:	20800017 	ldw	r2,0(r4)
    2428:	10800117 	ldw	r2,4(r2)
    242c:	00fffc34 	movhi	r3,65520
    2430:	18ffe704 	addi	r3,r3,-100
    2434:	1f07883a 	add	r3,r3,fp
    2438:	18800015 	stw	r2,0(r3)
    		/* remove the \n from the end of the string */
    		val[strcspn(val, "\n")] = 0;
    243c:	014001b4 	movhi	r5,6
    2440:	296dd004 	addi	r5,r5,-18624
    2444:	00bffc34 	movhi	r2,65520
    2448:	10bfe704 	addi	r2,r2,-100
    244c:	1705883a 	add	r2,r2,fp
    2450:	11000017 	ldw	r4,0(r2)
    2454:	0049c7c0 	call	49c7c <strcspn>
    2458:	1007883a 	mov	r3,r2
    245c:	013ffc34 	movhi	r4,65520
    2460:	213fe704 	addi	r4,r4,-100
    2464:	2709883a 	add	r4,r4,fp
    2468:	20800017 	ldw	r2,0(r4)
    246c:	10c5883a 	add	r2,r2,r3
    2470:	10000005 	stb	zero,0(r2)
//    		printf("%d", strlen(val));

    		if(!strcmp(key, "masterkey")){
    2474:	014001b4 	movhi	r5,6
    2478:	296dd104 	addi	r5,r5,-18620
    247c:	00bffc34 	movhi	r2,65520
    2480:	10bfe604 	addi	r2,r2,-104
    2484:	1705883a 	add	r2,r2,fp
    2488:	11000017 	ldw	r4,0(r2)
    248c:	0049b100 	call	49b10 <strcmp>
    2490:	10002e1e 	bne	r2,zero,254c <main+0x4b4>
    			if(masterkey[0] == '\0'){
    2494:	00fffc34 	movhi	r3,65520
    2498:	18ffe104 	addi	r3,r3,-124
    249c:	1f07883a 	add	r3,r3,fp
    24a0:	18800017 	ldw	r2,0(r3)
    24a4:	10800003 	ldbu	r2,0(r2)
    24a8:	10803fcc 	andi	r2,r2,255
    24ac:	1080201c 	xori	r2,r2,128
    24b0:	10bfe004 	addi	r2,r2,-128
    24b4:	10000a1e 	bne	r2,zero,24e0 <main+0x448>
    				hdgenmaster(masterkey, sizeout);
    24b8:	013ffc34 	movhi	r4,65520
    24bc:	213fe104 	addi	r4,r4,-124
    24c0:	2709883a 	add	r4,r4,fp
    24c4:	20800017 	ldw	r2,0(r4)
    24c8:	00fffc34 	movhi	r3,65520
    24cc:	18ffdf04 	addi	r3,r3,-132
    24d0:	1f07883a 	add	r3,r3,fp
    24d4:	19400017 	ldw	r5,0(r3)
    24d8:	1009883a 	mov	r4,r2
    24dc:	0000de80 	call	de8 <hdgenmaster>
    			}
    			hdderive(masterkey, val, p2pkh_address, keymap);
    24e0:	013ffc34 	movhi	r4,65520
    24e4:	213fe104 	addi	r4,r4,-124
    24e8:	2709883a 	add	r4,r4,fp
    24ec:	20800017 	ldw	r2,0(r4)
    24f0:	013ffc34 	movhi	r4,65520
    24f4:	213fe304 	addi	r4,r4,-116
    24f8:	2709883a 	add	r4,r4,fp
    24fc:	20c00017 	ldw	r3,0(r4)
    2500:	013ffc34 	movhi	r4,65520
    2504:	213fde04 	addi	r4,r4,-136
    2508:	2709883a 	add	r4,r4,fp
    250c:	21c00017 	ldw	r7,0(r4)
    2510:	180d883a 	mov	r6,r3
    2514:	00fffc34 	movhi	r3,65520
    2518:	18ffe704 	addi	r3,r3,-100
    251c:	1f07883a 	add	r3,r3,fp
    2520:	19400017 	ldw	r5,0(r3)
    2524:	1009883a 	mov	r4,r2
    2528:	00011e00 	call	11e0 <hdderive>
    			PutStrUart(p2pkh_address, 1000);
    252c:	013ffc34 	movhi	r4,65520
    2530:	213fe304 	addi	r4,r4,-116
    2534:	2709883a 	add	r4,r4,fp
    2538:	20800017 	ldw	r2,0(r4)
    253c:	0140fa04 	movi	r5,1000
    2540:	1009883a 	mov	r4,r2
    2544:	0002ea00 	call	2ea0 <PutStrUart>
    2548:	0000ca06 	br	2874 <main+0x7dc>
    		}else if(!strcmp(key, "keypath")){
    254c:	014001b4 	movhi	r5,6
    2550:	296dd404 	addi	r5,r5,-18608
    2554:	00bffc34 	movhi	r2,65520
    2558:	10bfe604 	addi	r2,r2,-104
    255c:	1705883a 	add	r2,r2,fp
    2560:	11000017 	ldw	r4,0(r2)
    2564:	0049b100 	call	49b10 <strcmp>
    2568:	10002e1e 	bne	r2,zero,2624 <main+0x58c>
    			if(masterkey[0] == '\0'){
    256c:	00fffc34 	movhi	r3,65520
    2570:	18ffe104 	addi	r3,r3,-124
    2574:	1f07883a 	add	r3,r3,fp
    2578:	18800017 	ldw	r2,0(r3)
    257c:	10800003 	ldbu	r2,0(r2)
    2580:	10803fcc 	andi	r2,r2,255
    2584:	1080201c 	xori	r2,r2,128
    2588:	10bfe004 	addi	r2,r2,-128
    258c:	10000a1e 	bne	r2,zero,25b8 <main+0x520>
					hdgenmaster(masterkey, sizeout);
    2590:	013ffc34 	movhi	r4,65520
    2594:	213fe104 	addi	r4,r4,-124
    2598:	2709883a 	add	r4,r4,fp
    259c:	20800017 	ldw	r2,0(r4)
    25a0:	00fffc34 	movhi	r3,65520
    25a4:	18ffdf04 	addi	r3,r3,-132
    25a8:	1f07883a 	add	r3,r3,fp
    25ac:	19400017 	ldw	r5,0(r3)
    25b0:	1009883a 	mov	r4,r2
    25b4:	0000de80 	call	de8 <hdgenmaster>
				}
    			hdderive(masterkey, val, p2pkh_address, keymap);
    25b8:	013ffc34 	movhi	r4,65520
    25bc:	213fe104 	addi	r4,r4,-124
    25c0:	2709883a 	add	r4,r4,fp
    25c4:	20800017 	ldw	r2,0(r4)
    25c8:	013ffc34 	movhi	r4,65520
    25cc:	213fe304 	addi	r4,r4,-116
    25d0:	2709883a 	add	r4,r4,fp
    25d4:	20c00017 	ldw	r3,0(r4)
    25d8:	013ffc34 	movhi	r4,65520
    25dc:	213fde04 	addi	r4,r4,-136
    25e0:	2709883a 	add	r4,r4,fp
    25e4:	21c00017 	ldw	r7,0(r4)
    25e8:	180d883a 	mov	r6,r3
    25ec:	00fffc34 	movhi	r3,65520
    25f0:	18ffe704 	addi	r3,r3,-100
    25f4:	1f07883a 	add	r3,r3,fp
    25f8:	19400017 	ldw	r5,0(r3)
    25fc:	1009883a 	mov	r4,r2
    2600:	00011e00 	call	11e0 <hdderive>
    			PutStrUart(p2pkh_address, 1000);
    2604:	013ffc34 	movhi	r4,65520
    2608:	213fe304 	addi	r4,r4,-116
    260c:	2709883a 	add	r4,r4,fp
    2610:	20800017 	ldw	r2,0(r4)
    2614:	0140fa04 	movi	r5,1000
    2618:	1009883a 	mov	r4,r2
    261c:	0002ea00 	call	2ea0 <PutStrUart>
    2620:	00009406 	br	2874 <main+0x7dc>
    		}else if(!strcmp(key, "sign")){
    2624:	014001b4 	movhi	r5,6
    2628:	296dd604 	addi	r5,r5,-18600
    262c:	00bffc34 	movhi	r2,65520
    2630:	10bfe604 	addi	r2,r2,-104
    2634:	1705883a 	add	r2,r2,fp
    2638:	11000017 	ldw	r4,0(r2)
    263c:	0049b100 	call	49b10 <strcmp>
    2640:	10008c1e 	bne	r2,zero,2874 <main+0x7dc>
    			txhex = res[1];
    2644:	00fffc34 	movhi	r3,65520
    2648:	18ffe504 	addi	r3,r3,-108
    264c:	1f07883a 	add	r3,r3,fp
    2650:	18800017 	ldw	r2,0(r3)
    2654:	10800117 	ldw	r2,4(r2)
    2658:	013ffc34 	movhi	r4,65520
    265c:	213fe804 	addi	r4,r4,-96
    2660:	2709883a 	add	r4,r4,fp
    2664:	20800015 	stw	r2,0(r4)
    			script = res[2];
    2668:	00fffc34 	movhi	r3,65520
    266c:	18ffe504 	addi	r3,r3,-108
    2670:	1f07883a 	add	r3,r3,fp
    2674:	18800017 	ldw	r2,0(r3)
    2678:	10800217 	ldw	r2,8(r2)
    267c:	013ffc34 	movhi	r4,65520
    2680:	213fe904 	addi	r4,r4,-92
    2684:	2709883a 	add	r4,r4,fp
    2688:	20800015 	stw	r2,0(r4)
    			pub_addr = res[3];
    268c:	00fffc34 	movhi	r3,65520
    2690:	18ffe504 	addi	r3,r3,-108
    2694:	1f07883a 	add	r3,r3,fp
    2698:	18800017 	ldw	r2,0(r3)
    269c:	10800317 	ldw	r2,12(r2)
    26a0:	013ffc34 	movhi	r4,65520
    26a4:	213fea04 	addi	r4,r4,-88
    26a8:	2709883a 	add	r4,r4,fp
    26ac:	20800015 	stw	r2,0(r4)
    			input_idx = atoi(res[4]);
    26b0:	00fffc34 	movhi	r3,65520
    26b4:	18ffe504 	addi	r3,r3,-108
    26b8:	1f07883a 	add	r3,r3,fp
    26bc:	18800017 	ldw	r2,0(r3)
    26c0:	10800404 	addi	r2,r2,16
    26c4:	10800017 	ldw	r2,0(r2)
    26c8:	1009883a 	mov	r4,r2
    26cc:	0047e000 	call	47e00 <atoi>
    26d0:	013ffc34 	movhi	r4,65520
    26d4:	213feb04 	addi	r4,r4,-84
    26d8:	2709883a 	add	r4,r4,fp
    26dc:	20800015 	stw	r2,0(r4)
    			hashmap_get(keymap, pub_addr, (void**)(&privkey_wif));
    26e0:	00800434 	movhi	r2,16
    26e4:	10801304 	addi	r2,r2,76
    26e8:	00fffc34 	movhi	r3,65520
    26ec:	18ffdc04 	addi	r3,r3,-144
    26f0:	1f07883a 	add	r3,r3,fp
    26f4:	1885883a 	add	r2,r3,r2
    26f8:	100d883a 	mov	r6,r2
    26fc:	013ffc34 	movhi	r4,65520
    2700:	213fea04 	addi	r4,r4,-88
    2704:	2709883a 	add	r4,r4,fp
    2708:	21400017 	ldw	r5,0(r4)
    270c:	00bffc34 	movhi	r2,65520
    2710:	10bfde04 	addi	r2,r2,-136
    2714:	1705883a 	add	r2,r2,fp
    2718:	11000017 	ldw	r4,0(r2)
    271c:	00008180 	call	818 <hashmap_get>
    			printf("privkey: %s\n", privkey_wif);
    2720:	00800434 	movhi	r2,16
    2724:	10801304 	addi	r2,r2,76
    2728:	00fffc34 	movhi	r3,65520
    272c:	18ffdc04 	addi	r3,r3,-144
    2730:	1f07883a 	add	r3,r3,fp
    2734:	1885883a 	add	r2,r3,r2
    2738:	10800017 	ldw	r2,0(r2)
    273c:	100b883a 	mov	r5,r2
    2740:	010001b4 	movhi	r4,6
    2744:	212dd804 	addi	r4,r4,-18592
    2748:	0048de40 	call	48de4 <printf>

    			tx = btc_tx_new();
    274c:	0041db40 	call	41db4 <btc_tx_new>
    2750:	013ffc34 	movhi	r4,65520
    2754:	213fec04 	addi	r4,r4,-80
    2758:	2709883a 	add	r4,r4,fp
    275c:	20800015 	stw	r2,0(r4)
				for(int i = 0; i < input_idx; i++){
    2760:	00bffc34 	movhi	r2,65520
    2764:	10bfdd04 	addi	r2,r2,-140
    2768:	1705883a 	add	r2,r2,fp
    276c:	10000015 	stw	zero,0(r2)
    2770:	00002c06 	br	2824 <main+0x78c>
					sign_tx(tx, txhex, script, privkey_wif, 0, i, 1, signed_txhex);
    2774:	00800434 	movhi	r2,16
    2778:	10801304 	addi	r2,r2,76
    277c:	00fffc34 	movhi	r3,65520
    2780:	18ffdc04 	addi	r3,r3,-144
    2784:	1f07883a 	add	r3,r3,fp
    2788:	1885883a 	add	r2,r3,r2
    278c:	10c00017 	ldw	r3,0(r2)
    2790:	013ffc34 	movhi	r4,65520
    2794:	213fed04 	addi	r4,r4,-76
    2798:	2709883a 	add	r4,r4,fp
    279c:	20800017 	ldw	r2,0(r4)
    27a0:	d8800415 	stw	r2,16(sp)
    27a4:	00800044 	movi	r2,1
    27a8:	d8800315 	stw	r2,12(sp)
    27ac:	013ffc34 	movhi	r4,65520
    27b0:	213fdd04 	addi	r4,r4,-140
    27b4:	2709883a 	add	r4,r4,fp
    27b8:	20800017 	ldw	r2,0(r4)
    27bc:	d8800215 	stw	r2,8(sp)
    27c0:	d8000015 	stw	zero,0(sp)
    27c4:	d8000115 	stw	zero,4(sp)
    27c8:	180f883a 	mov	r7,r3
    27cc:	00bffc34 	movhi	r2,65520
    27d0:	10bfe904 	addi	r2,r2,-92
    27d4:	1705883a 	add	r2,r2,fp
    27d8:	11800017 	ldw	r6,0(r2)
    27dc:	00fffc34 	movhi	r3,65520
    27e0:	18ffe804 	addi	r3,r3,-96
    27e4:	1f07883a 	add	r3,r3,fp
    27e8:	19400017 	ldw	r5,0(r3)
    27ec:	00bffc34 	movhi	r2,65520
    27f0:	10bfec04 	addi	r2,r2,-80
    27f4:	1705883a 	add	r2,r2,fp
    27f8:	11000017 	ldw	r4,0(r2)
    27fc:	00018e40 	call	18e4 <sign_tx>
    			input_idx = atoi(res[4]);
    			hashmap_get(keymap, pub_addr, (void**)(&privkey_wif));
    			printf("privkey: %s\n", privkey_wif);

    			tx = btc_tx_new();
				for(int i = 0; i < input_idx; i++){
    2800:	00fffc34 	movhi	r3,65520
    2804:	18ffdd04 	addi	r3,r3,-140
    2808:	1f07883a 	add	r3,r3,fp
    280c:	18800017 	ldw	r2,0(r3)
    2810:	10800044 	addi	r2,r2,1
    2814:	013ffc34 	movhi	r4,65520
    2818:	213fdd04 	addi	r4,r4,-140
    281c:	2709883a 	add	r4,r4,fp
    2820:	20800015 	stw	r2,0(r4)
    2824:	00bffc34 	movhi	r2,65520
    2828:	10bfdd04 	addi	r2,r2,-140
    282c:	1705883a 	add	r2,r2,fp
    2830:	10c00017 	ldw	r3,0(r2)
    2834:	013ffc34 	movhi	r4,65520
    2838:	213feb04 	addi	r4,r4,-84
    283c:	2709883a 	add	r4,r4,fp
    2840:	20800017 	ldw	r2,0(r4)
    2844:	18bfcb16 	blt	r3,r2,2774 <__alt_mem_epcs_flash_controller+0xfdff1774>
					sign_tx(tx, txhex, script, privkey_wif, 0, i, 1, signed_txhex);
				}
				PutStrUart(signed_txhex, 1000);
    2848:	0140fa04 	movi	r5,1000
    284c:	00bffc34 	movhi	r2,65520
    2850:	10bfed04 	addi	r2,r2,-76
    2854:	1705883a 	add	r2,r2,fp
    2858:	11000017 	ldw	r4,0(r2)
    285c:	0002ea00 	call	2ea0 <PutStrUart>

				/* Free memory */
				btc_tx_free(tx);
    2860:	00fffc34 	movhi	r3,65520
    2864:	18ffec04 	addi	r3,r3,-80
    2868:	1f07883a 	add	r3,r3,fp
    286c:	19000017 	ldw	r4,0(r3)
    2870:	0041d400 	call	41d40 <btc_tx_free>
    		}

    		/* free the memory allocated */
    		free(res);
    2874:	00bffc34 	movhi	r2,65520
    2878:	10bfe504 	addi	r2,r2,-108
    287c:	1705883a 	add	r2,r2,fp
    2880:	11000017 	ldw	r4,0(r2)
    2884:	004814c0 	call	4814c <free>
    		memset(buf, 0, BUF_SIZE);
    2888:	00fffc34 	movhi	r3,65520
    288c:	18ffef04 	addi	r3,r3,-68
    2890:	e0c5883a 	add	r2,fp,r3
    2894:	01800434 	movhi	r6,16
    2898:	000b883a 	mov	r5,zero
    289c:	1009883a 	mov	r4,r2
    28a0:	0048c8c0 	call	48c8c <memset>
    	}

		count++;
    28a4:	013ffc34 	movhi	r4,65520
    28a8:	213fdc04 	addi	r4,r4,-144
    28ac:	2709883a 	add	r4,r4,fp
    28b0:	20800003 	ldbu	r2,0(r4)
    28b4:	10800044 	addi	r2,r2,1
    28b8:	00fffc34 	movhi	r3,65520
    28bc:	18ffdc04 	addi	r3,r3,-144
    28c0:	1f07883a 	add	r3,r3,fp
    28c4:	18800005 	stb	r2,0(r3)
		if ((count % 1000000000) == 0)
    28c8:	013ffc34 	movhi	r4,65520
    28cc:	213fdc04 	addi	r4,r4,-144
    28d0:	2709883a 	add	r4,r4,fp
    28d4:	20800003 	ldbu	r2,0(r4)
    28d8:	014ee6f4 	movhi	r5,15259
    28dc:	29728004 	addi	r5,r5,-13824
    28e0:	1009883a 	mov	r4,r2
    28e4:	00457840 	call	45784 <__modsi3>
    28e8:	10000d1e 	bne	r2,zero,2920 <main+0x888>
		{
	    	randVal = u32getRandom();
    28ec:	00029b80 	call	29b8 <u32getRandom>
    28f0:	00fffc34 	movhi	r3,65520
    28f4:	18ffee04 	addi	r3,r3,-72
    28f8:	1f07883a 	add	r3,r3,fp
    28fc:	18800015 	stw	r2,0(r3)
	    	IOWR_ALTERA_AVALON_PIO_DATA(PO_LED_BASE, randVal & 0xFF);
    2900:	013ffc34 	movhi	r4,65520
    2904:	213fee04 	addi	r4,r4,-72
    2908:	2709883a 	add	r4,r4,fp
    290c:	20800017 	ldw	r2,0(r4)
    2910:	10c03fcc 	andi	r3,r2,255
    2914:	00808074 	movhi	r2,513
    2918:	10881404 	addi	r2,r2,8272
    291c:	10c00035 	stwio	r3,0(r2)
//	    	sprintf(buffer, "Random value: 0x%08x\n", randVal);
//	    	PutStrUart((char *)&(buffer[0]));
		}
		ALT_USLEEP(100);
    2920:	01001904 	movi	r4,100
    2924:	0057d380 	call	57d38 <usleep>
    }
    2928:	003e9506 	br	2380 <__alt_mem_epcs_flash_controller+0xfdff1380>

0000292c <initRandom>:
#include "altera_avalon_pio_regs.h"
#include "sys/alt_sys_wrappers.h"


void initRandom(alt_u32 seed)
{
    292c:	defffd04 	addi	sp,sp,-12
    2930:	dfc00215 	stw	ra,8(sp)
    2934:	df000115 	stw	fp,4(sp)
    2938:	df000104 	addi	fp,sp,4
    293c:	e13fff15 	stw	r4,-4(fp)
	IOWR_ALTERA_AVALON_PIO_DATA(PO_RANDOM_SEED_BASE, seed);
    2940:	e0ffff17 	ldw	r3,-4(fp)
    2944:	00808074 	movhi	r2,513
    2948:	10880804 	addi	r2,r2,8224
    294c:	10c00035 	stwio	r3,0(r2)

	IOWR_ALTERA_AVALON_PIO_DATA(PO_SYSTEM_CONTROL_BASE, 0x01);
    2950:	00c00044 	movi	r3,1
    2954:	00808074 	movhi	r2,513
    2958:	10880c04 	addi	r2,r2,8240
    295c:	10c00035 	stwio	r3,0(r2)
	ALT_USLEEP(100);
    2960:	01001904 	movi	r4,100
    2964:	0057d380 	call	57d38 <usleep>
	IOWR_ALTERA_AVALON_PIO_DATA(PO_SYSTEM_CONTROL_BASE, 0x00);
    2968:	0007883a 	mov	r3,zero
    296c:	00808074 	movhi	r2,513
    2970:	10880c04 	addi	r2,r2,8240
    2974:	10c00035 	stwio	r3,0(r2)
}
    2978:	0001883a 	nop
    297c:	e037883a 	mov	sp,fp
    2980:	dfc00117 	ldw	ra,4(sp)
    2984:	df000017 	ldw	fp,0(sp)
    2988:	dec00204 	addi	sp,sp,8
    298c:	f800283a 	ret

00002990 <u08getRandom>:



alt_u8 u08getRandom()
{
    2990:	deffff04 	addi	sp,sp,-4
    2994:	df000015 	stw	fp,0(sp)
    2998:	d839883a 	mov	fp,sp
	return (IORD_ALTERA_AVALON_PIO_DATA(PI_RANDOM_VALUE_BASE) & 0xFF);
    299c:	00808074 	movhi	r2,513
    29a0:	10881004 	addi	r2,r2,8256
    29a4:	10800037 	ldwio	r2,0(r2)
}
    29a8:	e037883a 	mov	sp,fp
    29ac:	df000017 	ldw	fp,0(sp)
    29b0:	dec00104 	addi	sp,sp,4
    29b4:	f800283a 	ret

000029b8 <u32getRandom>:



alt_u32 u32getRandom()
{
    29b8:	defffd04 	addi	sp,sp,-12
    29bc:	dfc00215 	stw	ra,8(sp)
    29c0:	df000115 	stw	fp,4(sp)
    29c4:	dc000015 	stw	r16,0(sp)
    29c8:	df000104 	addi	fp,sp,4
	return ((u08getRandom() & 0xFF) | ((u08getRandom() & 0xFF) << 8) | ((u08getRandom() & 0xFF) << 16) | ((alt_u32) (u08getRandom() & 0xFF) << 24));
    29cc:	00029900 	call	2990 <u08getRandom>
    29d0:	14003fcc 	andi	r16,r2,255
    29d4:	00029900 	call	2990 <u08getRandom>
    29d8:	10803fcc 	andi	r2,r2,255
    29dc:	1004923a 	slli	r2,r2,8
    29e0:	80a0b03a 	or	r16,r16,r2
    29e4:	00029900 	call	2990 <u08getRandom>
    29e8:	10803fcc 	andi	r2,r2,255
    29ec:	1004943a 	slli	r2,r2,16
    29f0:	8084b03a 	or	r2,r16,r2
    29f4:	1021883a 	mov	r16,r2
    29f8:	00029900 	call	2990 <u08getRandom>
    29fc:	10803fcc 	andi	r2,r2,255
    2a00:	1004963a 	slli	r2,r2,24
    2a04:	8084b03a 	or	r2,r16,r2
}
    2a08:	e6ffff04 	addi	sp,fp,-4
    2a0c:	dfc00217 	ldw	ra,8(sp)
    2a10:	df000117 	ldw	fp,4(sp)
    2a14:	dc000017 	ldw	r16,0(sp)
    2a18:	dec00304 	addi	sp,sp,12
    2a1c:	f800283a 	ret

00002a20 <getRandomBuffer>:



void getRandomBuffer(alt_u8 *buffer, alt_u32 len)
{
    2a20:	defff904 	addi	sp,sp,-28
    2a24:	dfc00615 	stw	ra,24(sp)
    2a28:	df000515 	stw	fp,20(sp)
    2a2c:	dc000415 	stw	r16,16(sp)
    2a30:	df000504 	addi	fp,sp,20
    2a34:	e13ffd15 	stw	r4,-12(fp)
    2a38:	e17ffe15 	stw	r5,-8(fp)
	alt_u32 r = 0;
    2a3c:	e03ffc15 	stw	zero,-16(fp)
	for (alt_u32 i = 0; i < len; ++i)
    2a40:	e03ffb15 	stw	zero,-20(fp)
    2a44:	00000806 	br	2a68 <getRandomBuffer+0x48>
	{
		buffer[i] = u08getRandom();
    2a48:	e0fffd17 	ldw	r3,-12(fp)
    2a4c:	e0bffb17 	ldw	r2,-20(fp)
    2a50:	18a1883a 	add	r16,r3,r2
    2a54:	00029900 	call	2990 <u08getRandom>
    2a58:	80800005 	stb	r2,0(r16)


void getRandomBuffer(alt_u8 *buffer, alt_u32 len)
{
	alt_u32 r = 0;
	for (alt_u32 i = 0; i < len; ++i)
    2a5c:	e0bffb17 	ldw	r2,-20(fp)
    2a60:	10800044 	addi	r2,r2,1
    2a64:	e0bffb15 	stw	r2,-20(fp)
    2a68:	e0fffb17 	ldw	r3,-20(fp)
    2a6c:	e0bffe17 	ldw	r2,-8(fp)
    2a70:	18bff536 	bltu	r3,r2,2a48 <__alt_mem_epcs_flash_controller+0xfdff1a48>
	{
		buffer[i] = u08getRandom();
	}
}
    2a74:	0001883a 	nop
    2a78:	e6ffff04 	addi	sp,fp,-4
    2a7c:	dfc00217 	ldw	ra,8(sp)
    2a80:	df000117 	ldw	fp,4(sp)
    2a84:	dc000017 	ldw	r16,0(sp)
    2a88:	dec00304 	addi	sp,sp,12
    2a8c:	f800283a 	ret

00002a90 <append>:
#include "altera_avalon_uart_regs.h"
#include "altera_avalon_uart.h"
#include "sys/alt_irq.h"

void append(char *s, char c)
{
    2a90:	defffb04 	addi	sp,sp,-20
    2a94:	dfc00415 	stw	ra,16(sp)
    2a98:	df000315 	stw	fp,12(sp)
    2a9c:	df000304 	addi	fp,sp,12
    2aa0:	e13ffe15 	stw	r4,-8(fp)
    2aa4:	2805883a 	mov	r2,r5
    2aa8:	e0bfff05 	stb	r2,-4(fp)
	int len = strlen(s);
    2aac:	e13ffe17 	ldw	r4,-8(fp)
    2ab0:	0049cc80 	call	49cc8 <strlen>
    2ab4:	e0bffd15 	stw	r2,-12(fp)
	s[len] = c;
    2ab8:	e0bffd17 	ldw	r2,-12(fp)
    2abc:	e0fffe17 	ldw	r3,-8(fp)
    2ac0:	1885883a 	add	r2,r3,r2
    2ac4:	e0ffff03 	ldbu	r3,-4(fp)
    2ac8:	10c00005 	stb	r3,0(r2)
	s[len+1] = '\0';
    2acc:	e0bffd17 	ldw	r2,-12(fp)
    2ad0:	10800044 	addi	r2,r2,1
    2ad4:	e0fffe17 	ldw	r3,-8(fp)
    2ad8:	1885883a 	add	r2,r3,r2
    2adc:	10000005 	stb	zero,0(r2)
}
    2ae0:	0001883a 	nop
    2ae4:	e037883a 	mov	sp,fp
    2ae8:	dfc00117 	ldw	ra,4(sp)
    2aec:	df000017 	ldw	fp,0(sp)
    2af0:	dec00204 	addi	sp,sp,8
    2af4:	f800283a 	ret

00002af8 <add_newline>:
////	strcat(newstr, c);
////	return newstr;
//
//}

char* add_newline(const char* a, const char* b){
    2af8:	defff904 	addi	sp,sp,-28
    2afc:	dfc00615 	stw	ra,24(sp)
    2b00:	df000515 	stw	fp,20(sp)
    2b04:	dc000415 	stw	r16,16(sp)
    2b08:	df000504 	addi	fp,sp,20
    2b0c:	e13ffd15 	stw	r4,-12(fp)
    2b10:	e17ffe15 	stw	r5,-8(fp)
    size_t len = strlen(a) + strlen(b);
    2b14:	e13ffd17 	ldw	r4,-12(fp)
    2b18:	0049cc80 	call	49cc8 <strlen>
    2b1c:	1021883a 	mov	r16,r2
    2b20:	e13ffe17 	ldw	r4,-8(fp)
    2b24:	0049cc80 	call	49cc8 <strlen>
    2b28:	8085883a 	add	r2,r16,r2
    2b2c:	e0bffb15 	stw	r2,-20(fp)
    char *ret = (char*)malloc(len * sizeof(char) + 1);
    2b30:	e0bffb17 	ldw	r2,-20(fp)
    2b34:	10800044 	addi	r2,r2,1
    2b38:	1009883a 	mov	r4,r2
    2b3c:	00481380 	call	48138 <malloc>
    2b40:	e0bffc15 	stw	r2,-16(fp)
    *ret = '\0';
    2b44:	e0bffc17 	ldw	r2,-16(fp)
    2b48:	10000005 	stb	zero,0(r2)
    return strcat(strcat(ret, a) ,b);
    2b4c:	e17ffd17 	ldw	r5,-12(fp)
    2b50:	e13ffc17 	ldw	r4,-16(fp)
    2b54:	00499280 	call	49928 <strcat>
    2b58:	e17ffe17 	ldw	r5,-8(fp)
    2b5c:	1009883a 	mov	r4,r2
    2b60:	00499280 	call	49928 <strcat>
}
    2b64:	e6ffff04 	addi	sp,fp,-4
    2b68:	dfc00217 	ldw	ra,8(sp)
    2b6c:	df000117 	ldw	fp,4(sp)
    2b70:	dc000017 	ldw	r16,0(sp)
    2b74:	dec00304 	addi	sp,sp,12
    2b78:	f800283a 	ret

00002b7c <uartGetLine>:

void uartGetLine(char *buf) {
    2b7c:	defffc04 	addi	sp,sp,-16
    2b80:	dfc00315 	stw	ra,12(sp)
    2b84:	df000215 	stw	fp,8(sp)
    2b88:	df000204 	addi	fp,sp,8
    2b8c:	e13fff15 	stw	r4,-4(fp)
	if (!EmptyUart()) {
    2b90:	0002e080 	call	2e08 <EmptyUart>
    2b94:	10803fcc 	andi	r2,r2,255
    2b98:	10000d1e 	bne	r2,zero,2bd0 <uartGetLine+0x54>
		while (1) {
			char c = uartGetChar();
    2b9c:	0002be40 	call	2be4 <uartGetChar>
    2ba0:	e0bffe05 	stb	r2,-8(fp)
			if(c != 0){
    2ba4:	e0bffe07 	ldb	r2,-8(fp)
    2ba8:	10000426 	beq	r2,zero,2bbc <uartGetLine+0x40>
				append(buf, c);
    2bac:	e0bffe07 	ldb	r2,-8(fp)
    2bb0:	100b883a 	mov	r5,r2
    2bb4:	e13fff17 	ldw	r4,-4(fp)
    2bb8:	0002a900 	call	2a90 <append>
			}
			if (c == '\n') {
    2bbc:	e0bffe07 	ldb	r2,-8(fp)
    2bc0:	10800298 	cmpnei	r2,r2,10
    2bc4:	10000126 	beq	r2,zero,2bcc <uartGetLine+0x50>
//				append(buf, c);
//				printf("got a new line\n");
//				PutStrUart(buf);
				return;
			}
		}
    2bc8:	003ff406 	br	2b9c <__alt_mem_epcs_flash_controller+0xfdff1b9c>
			}
			if (c == '\n') {
//				append(buf, c);
//				printf("got a new line\n");
//				PutStrUart(buf);
				return;
    2bcc:	0001883a 	nop
			}
		}
	}
}
    2bd0:	e037883a 	mov	sp,fp
    2bd4:	dfc00117 	ldw	ra,4(sp)
    2bd8:	df000017 	ldw	fp,0(sp)
    2bdc:	dec00204 	addi	sp,sp,8
    2be0:	f800283a 	ret

00002be4 <uartGetChar>:

char uartGetChar()
{
    2be4:	defffd04 	addi	sp,sp,-12
    2be8:	dfc00215 	stw	ra,8(sp)
    2bec:	df000115 	stw	fp,4(sp)
    2bf0:	df000104 	addi	fp,sp,4
	if (!EmptyUart())
    2bf4:	0002e080 	call	2e08 <EmptyUart>
    2bf8:	10803fcc 	andi	r2,r2,255
    2bfc:	1000041e 	bne	r2,zero,2c10 <uartGetChar+0x2c>
	{
		unsigned char c = GetCUart();
    2c00:	0002e440 	call	2e44 <GetCUart>
    2c04:	e0bfff05 	stb	r2,-4(fp)
//
//		default:
////			printf("%c", c);
////			PutCUart(c);
//		}
		return c;
    2c08:	e0bfff03 	ldbu	r2,-4(fp)
    2c0c:	00000106 	br	2c14 <uartGetChar+0x30>
	}else{
		return 0;
    2c10:	0005883a 	mov	r2,zero
	}
}
    2c14:	e037883a 	mov	sp,fp
    2c18:	dfc00117 	ldw	ra,4(sp)
    2c1c:	df000017 	ldw	fp,0(sp)
    2c20:	dec00204 	addi	sp,sp,8
    2c24:	f800283a 	ret

00002c28 <IsrUart>:
unsigned short RxTail = 0;
unsigned char rx_buffer[RX_BUFFER_SIZE];


static void IsrUart(void* context, unsigned int id)
{
    2c28:	defffc04 	addi	sp,sp,-16
    2c2c:	df000315 	stw	fp,12(sp)
    2c30:	df000304 	addi	fp,sp,12
    2c34:	e13ffe15 	stw	r4,-8(fp)
    2c38:	e17fff15 	stw	r5,-4(fp)
	int sr = IORD_ALTERA_AVALON_UART_STATUS(UART_BASE);
    2c3c:	00808074 	movhi	r2,513
    2c40:	10880204 	addi	r2,r2,8200
    2c44:	10800037 	ldwio	r2,0(r2)
    2c48:	e0bffd15 	stw	r2,-12(fp)

	if(sr & ALTERA_AVALON_UART_STATUS_RRDY_MSK)
    2c4c:	e0bffd17 	ldw	r2,-12(fp)
    2c50:	1080200c 	andi	r2,r2,128
    2c54:	10001626 	beq	r2,zero,2cb0 <IsrUart+0x88>
	{
		rx_buffer[RxHead] = IORD_ALTERA_AVALON_UART_RXDATA(UART_BASE);
    2c58:	d0a8760b 	ldhu	r2,-24104(gp)
    2c5c:	10ffffcc 	andi	r3,r2,65535
    2c60:	00808074 	movhi	r2,513
    2c64:	10880004 	addi	r2,r2,8192
    2c68:	10800037 	ldwio	r2,0(r2)
    2c6c:	1009883a 	mov	r4,r2
    2c70:	008001b4 	movhi	r2,6
    2c74:	10979604 	addi	r2,r2,24152
    2c78:	10c5883a 	add	r2,r2,r3
    2c7c:	11000005 	stb	r4,0(r2)

		IOWR_ALTERA_AVALON_UART_STATUS(UART_BASE, 0);
    2c80:	0007883a 	mov	r3,zero
    2c84:	00808074 	movhi	r2,513
    2c88:	10880204 	addi	r2,r2,8200
    2c8c:	10c00035 	stwio	r3,0(r2)

		if (++RxHead > (RX_BUFFER_SIZE - 1))
    2c90:	d0a8760b 	ldhu	r2,-24104(gp)
    2c94:	10800044 	addi	r2,r2,1
    2c98:	d0a8760d 	sth	r2,-24104(gp)
    2c9c:	d0a8760b 	ldhu	r2,-24104(gp)
    2ca0:	10bfffcc 	andi	r2,r2,65535
    2ca4:	10840030 	cmpltui	r2,r2,4096
    2ca8:	1000011e 	bne	r2,zero,2cb0 <IsrUart+0x88>
		{
			RxHead = 0;
    2cac:	d028760d 	sth	zero,-24104(gp)
		}
	}

	if(sr & ALTERA_AVALON_UART_STATUS_TRDY_MSK)
    2cb0:	e0bffd17 	ldw	r2,-12(fp)
    2cb4:	1080100c 	andi	r2,r2,64
    2cb8:	10002126 	beq	r2,zero,2d40 <IsrUart+0x118>
	{
		if(IORD_ALTERA_AVALON_UART_CONTROL(UART_BASE) & ALTERA_AVALON_UART_CONTROL_TRDY_MSK)
    2cbc:	00808074 	movhi	r2,513
    2cc0:	10880304 	addi	r2,r2,8204
    2cc4:	10800037 	ldwio	r2,0(r2)
    2cc8:	1080100c 	andi	r2,r2,64
    2ccc:	10001c26 	beq	r2,zero,2d40 <IsrUart+0x118>
		{
			if (TxTail != TxHead)
    2cd0:	d0e8758b 	ldhu	r3,-24106(gp)
    2cd4:	d0a8750b 	ldhu	r2,-24108(gp)
    2cd8:	18ffffcc 	andi	r3,r3,65535
    2cdc:	10bfffcc 	andi	r2,r2,65535
    2ce0:	18801326 	beq	r3,r2,2d30 <IsrUart+0x108>
			{
				IOWR_ALTERA_AVALON_UART_TXDATA(UART_BASE, tx_buffer[TxTail]);
    2ce4:	d0a8758b 	ldhu	r2,-24106(gp)
    2ce8:	10ffffcc 	andi	r3,r2,65535
    2cec:	008001b4 	movhi	r2,6
    2cf0:	109b9604 	addi	r2,r2,28248
    2cf4:	10c5883a 	add	r2,r2,r3
    2cf8:	10800003 	ldbu	r2,0(r2)
    2cfc:	10c03fcc 	andi	r3,r2,255
    2d00:	00808074 	movhi	r2,513
    2d04:	10880104 	addi	r2,r2,8196
    2d08:	10c00035 	stwio	r3,0(r2)

				if (++TxTail > (TX_BUFFER_SIZE - 1))
    2d0c:	d0a8758b 	ldhu	r2,-24106(gp)
    2d10:	10800044 	addi	r2,r2,1
    2d14:	d0a8758d 	sth	r2,-24106(gp)
    2d18:	d0a8758b 	ldhu	r2,-24106(gp)
    2d1c:	10bfffcc 	andi	r2,r2,65535
    2d20:	10840030 	cmpltui	r2,r2,4096
    2d24:	1000061e 	bne	r2,zero,2d40 <IsrUart+0x118>
				{
					TxTail = 0;
    2d28:	d028758d 	sth	zero,-24106(gp)
			{
				IOWR_ALTERA_AVALON_UART_CONTROL(UART_BASE, ALTERA_AVALON_UART_CONTROL_RRDY_MSK);
			}
		}
	}
}
    2d2c:	00000406 	br	2d40 <IsrUart+0x118>
					TxTail = 0;
				}
			}
			else
			{
				IOWR_ALTERA_AVALON_UART_CONTROL(UART_BASE, ALTERA_AVALON_UART_CONTROL_RRDY_MSK);
    2d30:	00c02004 	movi	r3,128
    2d34:	00808074 	movhi	r2,513
    2d38:	10880304 	addi	r2,r2,8204
    2d3c:	10c00035 	stwio	r3,0(r2)
			}
		}
	}
}
    2d40:	0001883a 	nop
    2d44:	e037883a 	mov	sp,fp
    2d48:	df000017 	ldw	fp,0(sp)
    2d4c:	dec00104 	addi	sp,sp,4
    2d50:	f800283a 	ret

00002d54 <initUart>:


void initUart(unsigned int BaudRate)
{
    2d54:	defffa04 	addi	sp,sp,-24
    2d58:	dfc00515 	stw	ra,20(sp)
    2d5c:	df000415 	stw	fp,16(sp)
    2d60:	df000404 	addi	fp,sp,16
    2d64:	e13fff15 	stw	r4,-4(fp)
	int context_uart;
	unsigned int divisor = (ALT_CPU_FREQ/UART_USB_BAUD_RATE) +1;
    2d68:	00806cc4 	movi	r2,435
    2d6c:	e0bffd15 	stw	r2,-12(fp)

	IOWR_ALTERA_AVALON_UART_DIVISOR(UART_BASE, divisor);
    2d70:	e0fffd17 	ldw	r3,-12(fp)
    2d74:	00808074 	movhi	r2,513
    2d78:	10880404 	addi	r2,r2,8208
    2d7c:	10c00035 	stwio	r3,0(r2)
	IOWR_ALTERA_AVALON_UART_CONTROL(UART_BASE, ALTERA_AVALON_UART_CONTROL_RRDY_MSK);
    2d80:	00c02004 	movi	r3,128
    2d84:	00808074 	movhi	r2,513
    2d88:	10880304 	addi	r2,r2,8204
    2d8c:	10c00035 	stwio	r3,0(r2)


#ifdef ALT_ENHANCED_INTERRUPT_API_PRESENT
	alt_ic_isr_register(UART_IRQ_INTERRUPT_CONTROLLER_ID, UART_IRQ, (alt_isr_func) IsrUart, &context_uart, NULL);
    2d90:	e0bffe04 	addi	r2,fp,-8
    2d94:	d8000015 	stw	zero,0(sp)
    2d98:	100f883a 	mov	r7,r2
    2d9c:	01800034 	movhi	r6,0
    2da0:	318b0a04 	addi	r6,r6,11304
    2da4:	01400084 	movi	r5,2
    2da8:	0009883a 	mov	r4,zero
    2dac:	005719c0 	call	5719c <alt_ic_isr_register>
	alt_ic_irq_enable (UART_IRQ_INTERRUPT_CONTROLLER_ID, UART_IRQ);
    2db0:	01400084 	movi	r5,2
    2db4:	0009883a 	mov	r4,zero
    2db8:	00571ec0 	call	571ec <alt_ic_irq_enable>
#else
	alt_irq_register(UART_IRQ, &context_uart, IsrUart);
	alt_irq_enable(UART_IRQ);
#endif
}
    2dbc:	0001883a 	nop
    2dc0:	e037883a 	mov	sp,fp
    2dc4:	dfc00117 	ldw	ra,4(sp)
    2dc8:	df000017 	ldw	fp,0(sp)
    2dcc:	dec00204 	addi	sp,sp,8
    2dd0:	f800283a 	ret

00002dd4 <closeUart>:



void closeUart()
{
    2dd4:	defffe04 	addi	sp,sp,-8
    2dd8:	dfc00115 	stw	ra,4(sp)
    2ddc:	df000015 	stw	fp,0(sp)
    2de0:	d839883a 	mov	fp,sp
#ifdef ALT_ENHANCED_INTERRUPT_API_PRESENT
	alt_ic_irq_disable (UART_IRQ_INTERRUPT_CONTROLLER_ID, UART_IRQ);
    2de4:	01400084 	movi	r5,2
    2de8:	0009883a 	mov	r4,zero
    2dec:	00572740 	call	57274 <alt_ic_irq_disable>

#else
	alt_irq_disable(UART_IRQ);
#endif
}
    2df0:	0001883a 	nop
    2df4:	e037883a 	mov	sp,fp
    2df8:	dfc00117 	ldw	ra,4(sp)
    2dfc:	df000017 	ldw	fp,0(sp)
    2e00:	dec00204 	addi	sp,sp,8
    2e04:	f800283a 	ret

00002e08 <EmptyUart>:



unsigned char EmptyUart()
{
    2e08:	deffff04 	addi	sp,sp,-4
    2e0c:	df000015 	stw	fp,0(sp)
    2e10:	d839883a 	mov	fp,sp
	if(RxHead == RxTail)
    2e14:	d0e8760b 	ldhu	r3,-24104(gp)
    2e18:	d0a8768b 	ldhu	r2,-24102(gp)
    2e1c:	18ffffcc 	andi	r3,r3,65535
    2e20:	10bfffcc 	andi	r2,r2,65535
    2e24:	1880021e 	bne	r3,r2,2e30 <EmptyUart+0x28>
	{
		return 1;
    2e28:	00800044 	movi	r2,1
    2e2c:	00000106 	br	2e34 <EmptyUart+0x2c>
	}
	return 0;
    2e30:	0005883a 	mov	r2,zero
}
    2e34:	e037883a 	mov	sp,fp
    2e38:	df000017 	ldw	fp,0(sp)
    2e3c:	dec00104 	addi	sp,sp,4
    2e40:	f800283a 	ret

00002e44 <GetCUart>:



unsigned char GetCUart(void)
{
    2e44:	defffe04 	addi	sp,sp,-8
    2e48:	df000115 	stw	fp,4(sp)
    2e4c:	df000104 	addi	fp,sp,4
	unsigned char rxChar;

	/* buffer is empty */
	rxChar = rx_buffer[RxTail];
    2e50:	d0a8768b 	ldhu	r2,-24102(gp)
    2e54:	10ffffcc 	andi	r3,r2,65535
    2e58:	008001b4 	movhi	r2,6
    2e5c:	10979604 	addi	r2,r2,24152
    2e60:	10c5883a 	add	r2,r2,r3
    2e64:	10800003 	ldbu	r2,0(r2)
    2e68:	e0bfff05 	stb	r2,-4(fp)

	if (++RxTail > (RX_BUFFER_SIZE - 1))
    2e6c:	d0a8768b 	ldhu	r2,-24102(gp)
    2e70:	10800044 	addi	r2,r2,1
    2e74:	d0a8768d 	sth	r2,-24102(gp)
    2e78:	d0a8768b 	ldhu	r2,-24102(gp)
    2e7c:	10bfffcc 	andi	r2,r2,65535
    2e80:	10840030 	cmpltui	r2,r2,4096
    2e84:	1000011e 	bne	r2,zero,2e8c <GetCUart+0x48>
	{
		RxTail = 0;
    2e88:	d028768d 	sth	zero,-24102(gp)
	}

	return rxChar;
    2e8c:	e0bfff03 	ldbu	r2,-4(fp)
}
    2e90:	e037883a 	mov	sp,fp
    2e94:	df000017 	ldw	fp,0(sp)
    2e98:	dec00104 	addi	sp,sp,4
    2e9c:	f800283a 	ret

00002ea0 <PutStrUart>:



unsigned char PutStrUart(char *str, int chunksize)
{
    2ea0:	defff704 	addi	sp,sp,-36
    2ea4:	dfc00815 	stw	ra,32(sp)
    2ea8:	df000715 	stw	fp,28(sp)
    2eac:	df000704 	addi	fp,sp,28
    2eb0:	e13ffe15 	stw	r4,-8(fp)
    2eb4:	e17fff15 	stw	r5,-4(fp)
//	{
//		PutCUart(str[i]);
//	}
//	return 0;

	int chunks = strlen(str) / chunksize;
    2eb8:	e13ffe17 	ldw	r4,-8(fp)
    2ebc:	0049cc80 	call	49cc8 <strlen>
    2ec0:	1007883a 	mov	r3,r2
    2ec4:	e0bfff17 	ldw	r2,-4(fp)
    2ec8:	100b883a 	mov	r5,r2
    2ecc:	1809883a 	mov	r4,r3
    2ed0:	00457f80 	call	457f8 <__udivsi3>
    2ed4:	e0bffc15 	stw	r2,-16(fp)
	for(int i = 0; i < chunks; i++){
    2ed8:	e03ff915 	stw	zero,-28(fp)
    2edc:	00001a06 	br	2f48 <PutStrUart+0xa8>
		for (int j = 0; j < chunksize; j++) {
    2ee0:	e03ffa15 	stw	zero,-24(fp)
    2ee4:	00000f06 	br	2f24 <PutStrUart+0x84>
			PutCUart(str[i * chunksize + j]);
    2ee8:	e0fff917 	ldw	r3,-28(fp)
    2eec:	e0bfff17 	ldw	r2,-4(fp)
    2ef0:	1887383a 	mul	r3,r3,r2
    2ef4:	e0bffa17 	ldw	r2,-24(fp)
    2ef8:	1885883a 	add	r2,r3,r2
    2efc:	1007883a 	mov	r3,r2
    2f00:	e0bffe17 	ldw	r2,-8(fp)
    2f04:	10c5883a 	add	r2,r2,r3
    2f08:	10800003 	ldbu	r2,0(r2)
    2f0c:	10803fcc 	andi	r2,r2,255
    2f10:	1009883a 	mov	r4,r2
    2f14:	0002fcc0 	call	2fcc <PutCUart>
//	}
//	return 0;

	int chunks = strlen(str) / chunksize;
	for(int i = 0; i < chunks; i++){
		for (int j = 0; j < chunksize; j++) {
    2f18:	e0bffa17 	ldw	r2,-24(fp)
    2f1c:	10800044 	addi	r2,r2,1
    2f20:	e0bffa15 	stw	r2,-24(fp)
    2f24:	e0fffa17 	ldw	r3,-24(fp)
    2f28:	e0bfff17 	ldw	r2,-4(fp)
    2f2c:	18bfee16 	blt	r3,r2,2ee8 <__alt_mem_epcs_flash_controller+0xfdff1ee8>
			PutCUart(str[i * chunksize + j]);
		}
		usleep(500 * 1000);
    2f30:	01000234 	movhi	r4,8
    2f34:	21284804 	addi	r4,r4,-24288
    2f38:	0057d380 	call	57d38 <usleep>
//		PutCUart(str[i]);
//	}
//	return 0;

	int chunks = strlen(str) / chunksize;
	for(int i = 0; i < chunks; i++){
    2f3c:	e0bff917 	ldw	r2,-28(fp)
    2f40:	10800044 	addi	r2,r2,1
    2f44:	e0bff915 	stw	r2,-28(fp)
    2f48:	e0fff917 	ldw	r3,-28(fp)
    2f4c:	e0bffc17 	ldw	r2,-16(fp)
    2f50:	18bfe316 	blt	r3,r2,2ee0 <__alt_mem_epcs_flash_controller+0xfdff1ee0>
			PutCUart(str[i * chunksize + j]);
		}
		usleep(500 * 1000);
	}

	int last = chunks * chunksize;
    2f54:	e0fffc17 	ldw	r3,-16(fp)
    2f58:	e0bfff17 	ldw	r2,-4(fp)
    2f5c:	1885383a 	mul	r2,r3,r2
    2f60:	e0bffd15 	stw	r2,-12(fp)
	for (int i = last; i < strlen(str); i++) {
    2f64:	e0bffd17 	ldw	r2,-12(fp)
    2f68:	e0bffb15 	stw	r2,-20(fp)
    2f6c:	00000a06 	br	2f98 <PutStrUart+0xf8>
		PutCUart(str[i]);
    2f70:	e0bffb17 	ldw	r2,-20(fp)
    2f74:	e0fffe17 	ldw	r3,-8(fp)
    2f78:	1885883a 	add	r2,r3,r2
    2f7c:	10800003 	ldbu	r2,0(r2)
    2f80:	10803fcc 	andi	r2,r2,255
    2f84:	1009883a 	mov	r4,r2
    2f88:	0002fcc0 	call	2fcc <PutCUart>
		}
		usleep(500 * 1000);
	}

	int last = chunks * chunksize;
	for (int i = last; i < strlen(str); i++) {
    2f8c:	e0bffb17 	ldw	r2,-20(fp)
    2f90:	10800044 	addi	r2,r2,1
    2f94:	e0bffb15 	stw	r2,-20(fp)
    2f98:	e13ffe17 	ldw	r4,-8(fp)
    2f9c:	0049cc80 	call	49cc8 <strlen>
    2fa0:	1007883a 	mov	r3,r2
    2fa4:	e0bffb17 	ldw	r2,-20(fp)
    2fa8:	10fff136 	bltu	r2,r3,2f70 <__alt_mem_epcs_flash_controller+0xfdff1f70>
		PutCUart(str[i]);
	}
	PutCUart('\n');
    2fac:	01000284 	movi	r4,10
    2fb0:	0002fcc0 	call	2fcc <PutCUart>
	return 0;
    2fb4:	0005883a 	mov	r2,zero
}
    2fb8:	e037883a 	mov	sp,fp
    2fbc:	dfc00117 	ldw	ra,4(sp)
    2fc0:	df000017 	ldw	fp,0(sp)
    2fc4:	dec00204 	addi	sp,sp,8
    2fc8:	f800283a 	ret

00002fcc <PutCUart>:



unsigned char PutCUart(unsigned char in_char)
{
    2fcc:	defffc04 	addi	sp,sp,-16
    2fd0:	df000315 	stw	fp,12(sp)
    2fd4:	df000304 	addi	fp,sp,12
    2fd8:	2005883a 	mov	r2,r4
    2fdc:	e0bfff05 	stb	r2,-4(fp)
	unsigned short size;
	unsigned int z = IORD_ALTERA_AVALON_UART_STATUS(UART_BASE) & ALTERA_AVALON_UART_STATUS_TRDY_MSK;
    2fe0:	00808074 	movhi	r2,513
    2fe4:	10880204 	addi	r2,r2,8200
    2fe8:	10800037 	ldwio	r2,0(r2)
    2fec:	1080100c 	andi	r2,r2,64
    2ff0:	e0bffe15 	stw	r2,-8(fp)

	if ((TxHead == TxTail) && z)
    2ff4:	d0e8750b 	ldhu	r3,-24108(gp)
    2ff8:	d0a8758b 	ldhu	r2,-24106(gp)
    2ffc:	18ffffcc 	andi	r3,r3,65535
    3000:	10bfffcc 	andi	r2,r2,65535
    3004:	1880071e 	bne	r3,r2,3024 <PutCUart+0x58>
    3008:	e0bffe17 	ldw	r2,-8(fp)
    300c:	10000526 	beq	r2,zero,3024 <PutCUart+0x58>
	{
		IOWR_ALTERA_AVALON_UART_TXDATA(UART_BASE, in_char);
    3010:	e0ffff03 	ldbu	r3,-4(fp)
    3014:	00808074 	movhi	r2,513
    3018:	10880104 	addi	r2,r2,8196
    301c:	10c00035 	stwio	r3,0(r2)
    3020:	00002c06 	br	30d4 <PutCUart+0x108>
	}
	else
	{
		if (TxHead >= TxTail)
    3024:	d0e8750b 	ldhu	r3,-24108(gp)
    3028:	d0a8758b 	ldhu	r2,-24106(gp)
    302c:	18ffffcc 	andi	r3,r3,65535
    3030:	10bfffcc 	andi	r2,r2,65535
    3034:	18800536 	bltu	r3,r2,304c <PutCUart+0x80>
		{
			size = TxHead - TxTail;
    3038:	d0e8750b 	ldhu	r3,-24108(gp)
    303c:	d0a8758b 	ldhu	r2,-24106(gp)
    3040:	1885c83a 	sub	r2,r3,r2
    3044:	e0bffd0d 	sth	r2,-12(fp)
    3048:	00000506 	br	3060 <PutCUart+0x94>
		}

		else
		{
			size = ((TX_BUFFER_SIZE - 1) - TxTail) + TxHead;
    304c:	d0e8750b 	ldhu	r3,-24108(gp)
    3050:	d0a8758b 	ldhu	r2,-24106(gp)
    3054:	1885c83a 	sub	r2,r3,r2
    3058:	1083ffc4 	addi	r2,r2,4095
    305c:	e0bffd0d 	sth	r2,-12(fp)
		}

		if (size > (TX_BUFFER_SIZE - 3))
    3060:	e0bffd0b 	ldhu	r2,-12(fp)
    3064:	1083ffb0 	cmpltui	r2,r2,4094
    3068:	1000021e 	bne	r2,zero,3074 <PutCUart+0xa8>
		{
			return (-1);
    306c:	00bfffc4 	movi	r2,-1
    3070:	00001906 	br	30d8 <PutCUart+0x10c>
		}

		tx_buffer[TxHead] = in_char;
    3074:	d0a8750b 	ldhu	r2,-24108(gp)
    3078:	10ffffcc 	andi	r3,r2,65535
    307c:	008001b4 	movhi	r2,6
    3080:	109b9604 	addi	r2,r2,28248
    3084:	10c5883a 	add	r2,r2,r3
    3088:	e0ffff03 	ldbu	r3,-4(fp)
    308c:	10c00005 	stb	r3,0(r2)

		if (++TxHead > (TX_BUFFER_SIZE - 1))
    3090:	d0a8750b 	ldhu	r2,-24108(gp)
    3094:	10800044 	addi	r2,r2,1
    3098:	d0a8750d 	sth	r2,-24108(gp)
    309c:	d0a8750b 	ldhu	r2,-24108(gp)
    30a0:	10bfffcc 	andi	r2,r2,65535
    30a4:	10840030 	cmpltui	r2,r2,4096
    30a8:	1000011e 	bne	r2,zero,30b0 <PutCUart+0xe4>
		{
			TxHead = 0;
    30ac:	d028750d 	sth	zero,-24108(gp)
		}

		z = IORD_ALTERA_AVALON_UART_CONTROL(UART_BASE) | ALTERA_AVALON_UART_CONTROL_TRDY_MSK;
    30b0:	00808074 	movhi	r2,513
    30b4:	10880304 	addi	r2,r2,8204
    30b8:	10800037 	ldwio	r2,0(r2)
    30bc:	10801014 	ori	r2,r2,64
    30c0:	e0bffe15 	stw	r2,-8(fp)
		IOWR_ALTERA_AVALON_UART_CONTROL(UART_BASE, z);
    30c4:	e0fffe17 	ldw	r3,-8(fp)
    30c8:	00808074 	movhi	r2,513
    30cc:	10880304 	addi	r2,r2,8204
    30d0:	10c00035 	stwio	r3,0(r2)
	}
	return(1);
    30d4:	00800044 	movi	r2,1
}
    30d8:	e037883a 	mov	sp,fp
    30dc:	df000017 	ldw	fp,0(sp)
    30e0:	dec00104 	addi	sp,sp,4
    30e4:	f800283a 	ret

000030e8 <btc_base58_decode>:
    -1, 33, 34, 35, 36, 37, 38, 39, 40, 41, 42, 43, -1, 44, 45, 46,
    47, 48, 49, 50, 51, 52, 53, 54, 55, 56, 57, -1, -1, -1, -1, -1,
};

int btc_base58_decode(void* bin, size_t* binszp, const char* b58)
{
    30e8:	deffe304 	addi	sp,sp,-116
    30ec:	dfc01c15 	stw	ra,112(sp)
    30f0:	df001b15 	stw	fp,108(sp)
    30f4:	ddc01a15 	stw	r23,104(sp)
    30f8:	dd801915 	stw	r22,100(sp)
    30fc:	dd401815 	stw	r21,96(sp)
    3100:	dd001715 	stw	r20,92(sp)
    3104:	dcc01615 	stw	r19,88(sp)
    3108:	dc801515 	stw	r18,84(sp)
    310c:	dc401415 	stw	r17,80(sp)
    3110:	dc001315 	stw	r16,76(sp)
    3114:	df001b04 	addi	fp,sp,108
    3118:	e13ff415 	stw	r4,-48(fp)
    311c:	e17ff515 	stw	r5,-44(fp)
    3120:	e1bff615 	stw	r6,-40(fp)
    3124:	d809883a 	mov	r4,sp
    3128:	e13ff715 	stw	r4,-36(fp)
    size_t binsz = *binszp;
    312c:	e13ff517 	ldw	r4,-44(fp)
    3130:	21000017 	ldw	r4,0(r4)
    3134:	e13fea15 	stw	r4,-88(fp)
    const unsigned char* b58u = (const void*)b58;
    3138:	e13ff617 	ldw	r4,-40(fp)
    313c:	e13feb15 	stw	r4,-84(fp)
    unsigned char* binu = bin;
    3140:	e13ff417 	ldw	r4,-48(fp)
    3144:	e13fe515 	stw	r4,-108(fp)
    size_t outisz = (binsz + 3) / 4;
    3148:	e13fea17 	ldw	r4,-88(fp)
    314c:	210000c4 	addi	r4,r4,3
    3150:	2008d0ba 	srli	r4,r4,2
    3154:	e13fec15 	stw	r4,-80(fp)
    uint32_t outi[outisz];
    3158:	e13fec17 	ldw	r4,-80(fp)
    315c:	200b883a 	mov	r5,r4
    3160:	297fffc4 	addi	r5,r5,-1
    3164:	e17fed15 	stw	r5,-76(fp)
    3168:	2017883a 	mov	r11,r4
    316c:	0019883a 	mov	r12,zero
    3170:	580ad6fa 	srli	r5,r11,27
    3174:	6010917a 	slli	r8,r12,5
    3178:	2a10b03a 	or	r8,r5,r8
    317c:	580e917a 	slli	r7,r11,5
    3180:	2013883a 	mov	r9,r4
    3184:	0015883a 	mov	r10,zero
    3188:	480ad6fa 	srli	r5,r9,27
    318c:	5006917a 	slli	r3,r10,5
    3190:	28c6b03a 	or	r3,r5,r3
    3194:	4804917a 	slli	r2,r9,5
    3198:	2105883a 	add	r2,r4,r4
    319c:	1085883a 	add	r2,r2,r2
    31a0:	108000c4 	addi	r2,r2,3
    31a4:	108000c4 	addi	r2,r2,3
    31a8:	1004d0ba 	srli	r2,r2,2
    31ac:	1085883a 	add	r2,r2,r2
    31b0:	1085883a 	add	r2,r2,r2
    31b4:	d8b7c83a 	sub	sp,sp,r2
    31b8:	d805883a 	mov	r2,sp
    31bc:	108000c4 	addi	r2,r2,3
    31c0:	1004d0ba 	srli	r2,r2,2
    31c4:	1085883a 	add	r2,r2,r2
    31c8:	1085883a 	add	r2,r2,r2
    31cc:	e0bfee15 	stw	r2,-72(fp)
    uint64_t t;
    uint32_t c;
    size_t i, j;
    uint8_t bytesleft = binsz % 4;
    31d0:	e0bfea17 	ldw	r2,-88(fp)
    31d4:	108000cc 	andi	r2,r2,3
    31d8:	e0bfef05 	stb	r2,-68(fp)
    uint32_t zeromask = bytesleft ? (0xffffffff << (bytesleft * 8)) : 0;
    31dc:	e0bfef03 	ldbu	r2,-68(fp)
    31e0:	10000526 	beq	r2,zero,31f8 <btc_base58_decode+0x110>
    31e4:	e0bfef03 	ldbu	r2,-68(fp)
    31e8:	100490fa 	slli	r2,r2,3
    31ec:	00ffffc4 	movi	r3,-1
    31f0:	1884983a 	sll	r2,r3,r2
    31f4:	00000106 	br	31fc <btc_base58_decode+0x114>
    31f8:	0005883a 	mov	r2,zero
    31fc:	e0bff015 	stw	r2,-64(fp)
    unsigned zerocount = 0;
    3200:	e03fe915 	stw	zero,-92(fp)
    size_t b58sz;

    b58sz = strlen(b58);
    3204:	e13ff617 	ldw	r4,-40(fp)
    3208:	0049cc80 	call	49cc8 <strlen>
    320c:	e0bff115 	stw	r2,-60(fp)

    memset(outi, 0, outisz * sizeof(*outi));
    3210:	e0ffee17 	ldw	r3,-72(fp)
    3214:	e0bfec17 	ldw	r2,-80(fp)
    3218:	1085883a 	add	r2,r2,r2
    321c:	1085883a 	add	r2,r2,r2
    3220:	100d883a 	mov	r6,r2
    3224:	000b883a 	mov	r5,zero
    3228:	1809883a 	mov	r4,r3
    322c:	0048c8c0 	call	48c8c <memset>

    // Leading zeros, just count
    for (i = 0; i < b58sz && !b58digits_map[b58u[i]]; ++i) {
    3230:	e03fe715 	stw	zero,-100(fp)
    3234:	00000606 	br	3250 <btc_base58_decode+0x168>
        ++zerocount;
    3238:	e0bfe917 	ldw	r2,-92(fp)
    323c:	10800044 	addi	r2,r2,1
    3240:	e0bfe915 	stw	r2,-92(fp)
    b58sz = strlen(b58);

    memset(outi, 0, outisz * sizeof(*outi));

    // Leading zeros, just count
    for (i = 0; i < b58sz && !b58digits_map[b58u[i]]; ++i) {
    3244:	e0bfe717 	ldw	r2,-100(fp)
    3248:	10800044 	addi	r2,r2,1
    324c:	e0bfe715 	stw	r2,-100(fp)
    3250:	e0ffe717 	ldw	r3,-100(fp)
    3254:	e0bff117 	ldw	r2,-60(fp)
    3258:	1880832e 	bgeu	r3,r2,3468 <btc_base58_decode+0x380>
    325c:	e0ffeb17 	ldw	r3,-84(fp)
    3260:	e0bfe717 	ldw	r2,-100(fp)
    3264:	1885883a 	add	r2,r3,r2
    3268:	10800003 	ldbu	r2,0(r2)
    326c:	10c03fcc 	andi	r3,r2,255
    3270:	008001b4 	movhi	r2,6
    3274:	10ade004 	addi	r2,r2,-18560
    3278:	10c5883a 	add	r2,r2,r3
    327c:	10800003 	ldbu	r2,0(r2)
    3280:	10803fcc 	andi	r2,r2,255
    3284:	1080201c 	xori	r2,r2,128
    3288:	10bfe004 	addi	r2,r2,-128
    328c:	103fea26 	beq	r2,zero,3238 <__alt_mem_epcs_flash_controller+0xfdff2238>
        ++zerocount;
    }

    for (; i < b58sz; ++i) {
    3290:	00007506 	br	3468 <btc_base58_decode+0x380>
        if (b58u[i] & 0x80) {
    3294:	e0ffeb17 	ldw	r3,-84(fp)
    3298:	e0bfe717 	ldw	r2,-100(fp)
    329c:	1885883a 	add	r2,r3,r2
    32a0:	10800003 	ldbu	r2,0(r2)
    32a4:	10803fcc 	andi	r2,r2,255
    32a8:	1080201c 	xori	r2,r2,128
    32ac:	10bfe004 	addi	r2,r2,-128
    32b0:	1000020e 	bge	r2,zero,32bc <btc_base58_decode+0x1d4>
            // High-bit set on invalid digit
            return false;
    32b4:	0005883a 	mov	r2,zero
    32b8:	0000e906 	br	3660 <btc_base58_decode+0x578>
        }
        if (b58digits_map[b58u[i]] == -1) {
    32bc:	e0ffeb17 	ldw	r3,-84(fp)
    32c0:	e0bfe717 	ldw	r2,-100(fp)
    32c4:	1885883a 	add	r2,r3,r2
    32c8:	10800003 	ldbu	r2,0(r2)
    32cc:	10c03fcc 	andi	r3,r2,255
    32d0:	008001b4 	movhi	r2,6
    32d4:	10ade004 	addi	r2,r2,-18560
    32d8:	10c5883a 	add	r2,r2,r3
    32dc:	10800003 	ldbu	r2,0(r2)
    32e0:	10803fcc 	andi	r2,r2,255
    32e4:	1080201c 	xori	r2,r2,128
    32e8:	10bfe004 	addi	r2,r2,-128
    32ec:	10bfffd8 	cmpnei	r2,r2,-1
    32f0:	1000021e 	bne	r2,zero,32fc <btc_base58_decode+0x214>
            // Invalid base58 digit
            return false;
    32f4:	0005883a 	mov	r2,zero
    32f8:	0000d906 	br	3660 <btc_base58_decode+0x578>
        }
        c = (unsigned)b58digits_map[b58u[i]];
    32fc:	e0ffeb17 	ldw	r3,-84(fp)
    3300:	e0bfe717 	ldw	r2,-100(fp)
    3304:	1885883a 	add	r2,r3,r2
    3308:	10800003 	ldbu	r2,0(r2)
    330c:	10c03fcc 	andi	r3,r2,255
    3310:	008001b4 	movhi	r2,6
    3314:	10ade004 	addi	r2,r2,-18560
    3318:	10c5883a 	add	r2,r2,r3
    331c:	10800003 	ldbu	r2,0(r2)
    3320:	10803fcc 	andi	r2,r2,255
    3324:	1080201c 	xori	r2,r2,128
    3328:	10bfe004 	addi	r2,r2,-128
    332c:	e0bfe615 	stw	r2,-104(fp)
        for (j = outisz; j--;) {
    3330:	e0bfec17 	ldw	r2,-80(fp)
    3334:	e0bfe815 	stw	r2,-96(fp)
    3338:	00002906 	br	33e0 <btc_base58_decode+0x2f8>
            t = ((uint64_t)outi[j]) * 58 + c;
    333c:	e0ffee17 	ldw	r3,-72(fp)
    3340:	e0bfe817 	ldw	r2,-96(fp)
    3344:	1085883a 	add	r2,r2,r2
    3348:	1085883a 	add	r2,r2,r2
    334c:	1885883a 	add	r2,r3,r2
    3350:	10800017 	ldw	r2,0(r2)
    3354:	102d883a 	mov	r22,r2
    3358:	002f883a 	mov	r23,zero
    335c:	01800e84 	movi	r6,58
    3360:	000f883a 	mov	r7,zero
    3364:	b009883a 	mov	r4,r22
    3368:	b80b883a 	mov	r5,r23
    336c:	00456a00 	call	456a0 <__muldi3>
    3370:	100d883a 	mov	r6,r2
    3374:	180f883a 	mov	r7,r3
    3378:	3009883a 	mov	r4,r6
    337c:	380b883a 	mov	r5,r7
    3380:	e0bfe617 	ldw	r2,-104(fp)
    3384:	1021883a 	mov	r16,r2
    3388:	0023883a 	mov	r17,zero
    338c:	2405883a 	add	r2,r4,r16
    3390:	110d803a 	cmpltu	r6,r2,r4
    3394:	2c47883a 	add	r3,r5,r17
    3398:	30c9883a 	add	r4,r6,r3
    339c:	2007883a 	mov	r3,r4
    33a0:	e0bff215 	stw	r2,-56(fp)
    33a4:	e0fff315 	stw	r3,-52(fp)
            c = (t & 0x3f00000000) >> 32;
    33a8:	e0bff217 	ldw	r2,-56(fp)
    33ac:	1024703a 	and	r18,r2,zero
    33b0:	e0bff317 	ldw	r2,-52(fp)
    33b4:	14c00fcc 	andi	r19,r2,63
    33b8:	9828d83a 	srl	r20,r19,zero
    33bc:	002b883a 	mov	r21,zero
    33c0:	e53fe615 	stw	r20,-104(fp)
            outi[j] = t & 0xffffffff;
    33c4:	e0fff217 	ldw	r3,-56(fp)
    33c8:	e13fee17 	ldw	r4,-72(fp)
    33cc:	e0bfe817 	ldw	r2,-96(fp)
    33d0:	1085883a 	add	r2,r2,r2
    33d4:	1085883a 	add	r2,r2,r2
    33d8:	2085883a 	add	r2,r4,r2
    33dc:	10c00015 	stw	r3,0(r2)
        if (b58digits_map[b58u[i]] == -1) {
            // Invalid base58 digit
            return false;
        }
        c = (unsigned)b58digits_map[b58u[i]];
        for (j = outisz; j--;) {
    33e0:	e0bfe817 	ldw	r2,-96(fp)
    33e4:	10ffffc4 	addi	r3,r2,-1
    33e8:	e0ffe815 	stw	r3,-96(fp)
    33ec:	103fd31e 	bne	r2,zero,333c <__alt_mem_epcs_flash_controller+0xfdff233c>
            t = ((uint64_t)outi[j]) * 58 + c;
            c = (t & 0x3f00000000) >> 32;
            outi[j] = t & 0xffffffff;
        }
        if (c) {
    33f0:	e0bfe617 	ldw	r2,-104(fp)
    33f4:	10000a26 	beq	r2,zero,3420 <btc_base58_decode+0x338>
            // Output number too big (carry to the next int32)
            memset(outi, 0, outisz * sizeof(*outi));
    33f8:	e0ffee17 	ldw	r3,-72(fp)
    33fc:	e0bfec17 	ldw	r2,-80(fp)
    3400:	1085883a 	add	r2,r2,r2
    3404:	1085883a 	add	r2,r2,r2
    3408:	100d883a 	mov	r6,r2
    340c:	000b883a 	mov	r5,zero
    3410:	1809883a 	mov	r4,r3
    3414:	0048c8c0 	call	48c8c <memset>
            return false;
    3418:	0005883a 	mov	r2,zero
    341c:	00009006 	br	3660 <btc_base58_decode+0x578>
        }
        if (outi[0] & zeromask) {
    3420:	e0bfee17 	ldw	r2,-72(fp)
    3424:	10c00017 	ldw	r3,0(r2)
    3428:	e0bff017 	ldw	r2,-64(fp)
    342c:	1884703a 	and	r2,r3,r2
    3430:	10000a26 	beq	r2,zero,345c <btc_base58_decode+0x374>
            // Output number too big (last int32 filled too far)
            memset(outi, 0, outisz * sizeof(*outi));
    3434:	e0ffee17 	ldw	r3,-72(fp)
    3438:	e0bfec17 	ldw	r2,-80(fp)
    343c:	1085883a 	add	r2,r2,r2
    3440:	1085883a 	add	r2,r2,r2
    3444:	100d883a 	mov	r6,r2
    3448:	000b883a 	mov	r5,zero
    344c:	1809883a 	mov	r4,r3
    3450:	0048c8c0 	call	48c8c <memset>
            return false;
    3454:	0005883a 	mov	r2,zero
    3458:	00008106 	br	3660 <btc_base58_decode+0x578>
    // Leading zeros, just count
    for (i = 0; i < b58sz && !b58digits_map[b58u[i]]; ++i) {
        ++zerocount;
    }

    for (; i < b58sz; ++i) {
    345c:	e0bfe717 	ldw	r2,-100(fp)
    3460:	10800044 	addi	r2,r2,1
    3464:	e0bfe715 	stw	r2,-100(fp)
    3468:	e0ffe717 	ldw	r3,-100(fp)
    346c:	e0bff117 	ldw	r2,-60(fp)
    3470:	18bf8836 	bltu	r3,r2,3294 <__alt_mem_epcs_flash_controller+0xfdff2294>
            memset(outi, 0, outisz * sizeof(*outi));
            return false;
        }
    }

    j = 0;
    3474:	e03fe815 	stw	zero,-96(fp)
    switch (bytesleft) {
    3478:	e0bfef03 	ldbu	r2,-68(fp)
    347c:	10c000a0 	cmpeqi	r3,r2,2
    3480:	18000d1e 	bne	r3,zero,34b8 <btc_base58_decode+0x3d0>
    3484:	10c000e0 	cmpeqi	r3,r2,3
    3488:	1800031e 	bne	r3,zero,3498 <btc_base58_decode+0x3b0>
    348c:	10800060 	cmpeqi	r2,r2,1
    3490:	1000111e 	bne	r2,zero,34d8 <btc_base58_decode+0x3f0>
        *(binu++) = (outi[0] & 0xff00) >> 8;
    case 1:
        *(binu++) = (outi[0] & 0xff);
        ++j;
    default:
        break;
    3494:	00001906 	br	34fc <btc_base58_decode+0x414>
    }

    j = 0;
    switch (bytesleft) {
    case 3:
        *(binu++) = (outi[0] & 0xff0000) >> 16;
    3498:	e0bfe517 	ldw	r2,-108(fp)
    349c:	10c00044 	addi	r3,r2,1
    34a0:	e0ffe515 	stw	r3,-108(fp)
    34a4:	e0ffee17 	ldw	r3,-72(fp)
    34a8:	18c00017 	ldw	r3,0(r3)
    34ac:	18c03fec 	andhi	r3,r3,255
    34b0:	1806d43a 	srli	r3,r3,16
    34b4:	10c00005 	stb	r3,0(r2)
    case 2:
        *(binu++) = (outi[0] & 0xff00) >> 8;
    34b8:	e0bfe517 	ldw	r2,-108(fp)
    34bc:	10c00044 	addi	r3,r2,1
    34c0:	e0ffe515 	stw	r3,-108(fp)
    34c4:	e0ffee17 	ldw	r3,-72(fp)
    34c8:	18c00017 	ldw	r3,0(r3)
    34cc:	18ffc00c 	andi	r3,r3,65280
    34d0:	1806d23a 	srli	r3,r3,8
    34d4:	10c00005 	stb	r3,0(r2)
    case 1:
        *(binu++) = (outi[0] & 0xff);
    34d8:	e0bfe517 	ldw	r2,-108(fp)
    34dc:	10c00044 	addi	r3,r2,1
    34e0:	e0ffe515 	stw	r3,-108(fp)
    34e4:	e0ffee17 	ldw	r3,-72(fp)
    34e8:	18c00017 	ldw	r3,0(r3)
    34ec:	10c00005 	stb	r3,0(r2)
        ++j;
    34f0:	e0bfe817 	ldw	r2,-96(fp)
    34f4:	10800044 	addi	r2,r2,1
    34f8:	e0bfe815 	stw	r2,-96(fp)
    default:
        break;
    34fc:	0001883a 	nop
    }

    for (; j < outisz; ++j) {
    3500:	00002e06 	br	35bc <btc_base58_decode+0x4d4>
        *(binu++) = (outi[j] >> 0x18) & 0xff;
    3504:	e0bfe517 	ldw	r2,-108(fp)
    3508:	10c00044 	addi	r3,r2,1
    350c:	e0ffe515 	stw	r3,-108(fp)
    3510:	e13fee17 	ldw	r4,-72(fp)
    3514:	e0ffe817 	ldw	r3,-96(fp)
    3518:	18c7883a 	add	r3,r3,r3
    351c:	18c7883a 	add	r3,r3,r3
    3520:	20c7883a 	add	r3,r4,r3
    3524:	18c00017 	ldw	r3,0(r3)
    3528:	1806d63a 	srli	r3,r3,24
    352c:	10c00005 	stb	r3,0(r2)
        *(binu++) = (outi[j] >> 0x10) & 0xff;
    3530:	e0bfe517 	ldw	r2,-108(fp)
    3534:	10c00044 	addi	r3,r2,1
    3538:	e0ffe515 	stw	r3,-108(fp)
    353c:	e13fee17 	ldw	r4,-72(fp)
    3540:	e0ffe817 	ldw	r3,-96(fp)
    3544:	18c7883a 	add	r3,r3,r3
    3548:	18c7883a 	add	r3,r3,r3
    354c:	20c7883a 	add	r3,r4,r3
    3550:	18c00017 	ldw	r3,0(r3)
    3554:	1806d43a 	srli	r3,r3,16
    3558:	10c00005 	stb	r3,0(r2)
        *(binu++) = (outi[j] >> 8) & 0xff;
    355c:	e0bfe517 	ldw	r2,-108(fp)
    3560:	10c00044 	addi	r3,r2,1
    3564:	e0ffe515 	stw	r3,-108(fp)
    3568:	e13fee17 	ldw	r4,-72(fp)
    356c:	e0ffe817 	ldw	r3,-96(fp)
    3570:	18c7883a 	add	r3,r3,r3
    3574:	18c7883a 	add	r3,r3,r3
    3578:	20c7883a 	add	r3,r4,r3
    357c:	18c00017 	ldw	r3,0(r3)
    3580:	1806d23a 	srli	r3,r3,8
    3584:	10c00005 	stb	r3,0(r2)
        *(binu++) = (outi[j] >> 0) & 0xff;
    3588:	e0bfe517 	ldw	r2,-108(fp)
    358c:	10c00044 	addi	r3,r2,1
    3590:	e0ffe515 	stw	r3,-108(fp)
    3594:	e13fee17 	ldw	r4,-72(fp)
    3598:	e0ffe817 	ldw	r3,-96(fp)
    359c:	18c7883a 	add	r3,r3,r3
    35a0:	18c7883a 	add	r3,r3,r3
    35a4:	20c7883a 	add	r3,r4,r3
    35a8:	18c00017 	ldw	r3,0(r3)
    35ac:	10c00005 	stb	r3,0(r2)
        ++j;
    default:
        break;
    }

    for (; j < outisz; ++j) {
    35b0:	e0bfe817 	ldw	r2,-96(fp)
    35b4:	10800044 	addi	r2,r2,1
    35b8:	e0bfe815 	stw	r2,-96(fp)
    35bc:	e0ffe817 	ldw	r3,-96(fp)
    35c0:	e0bfec17 	ldw	r2,-80(fp)
    35c4:	18bfcf36 	bltu	r3,r2,3504 <__alt_mem_epcs_flash_controller+0xfdff2504>
        *(binu++) = (outi[j] >> 8) & 0xff;
        *(binu++) = (outi[j] >> 0) & 0xff;
    }

    // Count canonical base58 byte count
    binu = bin;
    35c8:	e0bff417 	ldw	r2,-48(fp)
    35cc:	e0bfe515 	stw	r2,-108(fp)
    for (i = 0; i < binsz; ++i) {
    35d0:	e03fe715 	stw	zero,-100(fp)
    35d4:	00000e06 	br	3610 <btc_base58_decode+0x528>
        if (binu[i]) {
    35d8:	e0ffe517 	ldw	r3,-108(fp)
    35dc:	e0bfe717 	ldw	r2,-100(fp)
    35e0:	1885883a 	add	r2,r3,r2
    35e4:	10800003 	ldbu	r2,0(r2)
    35e8:	10803fcc 	andi	r2,r2,255
    35ec:	10000c1e 	bne	r2,zero,3620 <btc_base58_decode+0x538>
            break;
        }
        --*binszp;
    35f0:	e0bff517 	ldw	r2,-44(fp)
    35f4:	10800017 	ldw	r2,0(r2)
    35f8:	10ffffc4 	addi	r3,r2,-1
    35fc:	e0bff517 	ldw	r2,-44(fp)
    3600:	10c00015 	stw	r3,0(r2)
        *(binu++) = (outi[j] >> 0) & 0xff;
    }

    // Count canonical base58 byte count
    binu = bin;
    for (i = 0; i < binsz; ++i) {
    3604:	e0bfe717 	ldw	r2,-100(fp)
    3608:	10800044 	addi	r2,r2,1
    360c:	e0bfe715 	stw	r2,-100(fp)
    3610:	e0ffe717 	ldw	r3,-100(fp)
    3614:	e0bfea17 	ldw	r2,-88(fp)
    3618:	18bfef36 	bltu	r3,r2,35d8 <__alt_mem_epcs_flash_controller+0xfdff25d8>
    361c:	00000106 	br	3624 <btc_base58_decode+0x53c>
        if (binu[i]) {
            break;
    3620:	0001883a 	nop
        }
        --*binszp;
    }
    *binszp += zerocount;
    3624:	e0bff517 	ldw	r2,-44(fp)
    3628:	10c00017 	ldw	r3,0(r2)
    362c:	e0bfe917 	ldw	r2,-92(fp)
    3630:	1887883a 	add	r3,r3,r2
    3634:	e0bff517 	ldw	r2,-44(fp)
    3638:	10c00015 	stw	r3,0(r2)

    memset(outi, 0, outisz * sizeof(*outi));
    363c:	e0ffee17 	ldw	r3,-72(fp)
    3640:	e0bfec17 	ldw	r2,-80(fp)
    3644:	1085883a 	add	r2,r2,r2
    3648:	1085883a 	add	r2,r2,r2
    364c:	100d883a 	mov	r6,r2
    3650:	000b883a 	mov	r5,zero
    3654:	1809883a 	mov	r4,r3
    3658:	0048c8c0 	call	48c8c <memset>
    return true;
    365c:	00800044 	movi	r2,1
    3660:	e6fff717 	ldw	sp,-36(fp)
}
    3664:	e6fff804 	addi	sp,fp,-32
    3668:	dfc00917 	ldw	ra,36(sp)
    366c:	df000817 	ldw	fp,32(sp)
    3670:	ddc00717 	ldw	r23,28(sp)
    3674:	dd800617 	ldw	r22,24(sp)
    3678:	dd400517 	ldw	r21,20(sp)
    367c:	dd000417 	ldw	r20,16(sp)
    3680:	dcc00317 	ldw	r19,12(sp)
    3684:	dc800217 	ldw	r18,8(sp)
    3688:	dc400117 	ldw	r17,4(sp)
    368c:	dc000017 	ldw	r16,0(sp)
    3690:	dec00a04 	addi	sp,sp,40
    3694:	f800283a 	ret

00003698 <btc_b58check>:

int btc_b58check(const void* bin, size_t binsz, const char* base58str)
{
    3698:	defff104 	addi	sp,sp,-60
    369c:	dfc00e15 	stw	ra,56(sp)
    36a0:	df000d15 	stw	fp,52(sp)
    36a4:	df000d04 	addi	fp,sp,52
    36a8:	e13ffd15 	stw	r4,-12(fp)
    36ac:	e17ffe15 	stw	r5,-8(fp)
    36b0:	e1bfff15 	stw	r6,-4(fp)
    uint256 buf;
    const uint8_t* binc = bin;
    36b4:	e0bffd17 	ldw	r2,-12(fp)
    36b8:	e0bff415 	stw	r2,-48(fp)
    unsigned i;
    if (binsz < 4) {
    36bc:	e0bffe17 	ldw	r2,-8(fp)
    36c0:	10800128 	cmpgeui	r2,r2,4
    36c4:	1000021e 	bne	r2,zero,36d0 <btc_b58check+0x38>
        return -4;
    36c8:	00bfff04 	movi	r2,-4
    36cc:	00004106 	br	37d4 <btc_b58check+0x13c>
    }

    sha256_Raw(bin, binsz - 4, buf);
    36d0:	e0bffe17 	ldw	r2,-8(fp)
    36d4:	10bfff04 	addi	r2,r2,-4
    36d8:	e0fff504 	addi	r3,fp,-44
    36dc:	180d883a 	mov	r6,r3
    36e0:	100b883a 	mov	r5,r2
    36e4:	e13ffd17 	ldw	r4,-12(fp)
    36e8:	003f9a40 	call	3f9a4 <sha256_Raw>
    sha256_Raw(buf, sizeof(buf), buf);
    36ec:	e0fff504 	addi	r3,fp,-44
    36f0:	e0bff504 	addi	r2,fp,-44
    36f4:	180d883a 	mov	r6,r3
    36f8:	01400804 	movi	r5,32
    36fc:	1009883a 	mov	r4,r2
    3700:	003f9a40 	call	3f9a4 <sha256_Raw>

    if (memcmp(&binc[binsz - 4], buf, 4)) {
    3704:	e0bffe17 	ldw	r2,-8(fp)
    3708:	10bfff04 	addi	r2,r2,-4
    370c:	e0fff417 	ldw	r3,-48(fp)
    3710:	1885883a 	add	r2,r3,r2
    3714:	e0fff504 	addi	r3,fp,-44
    3718:	01800104 	movi	r6,4
    371c:	180b883a 	mov	r5,r3
    3720:	1009883a 	mov	r4,r2
    3724:	004896c0 	call	4896c <memcmp>
    3728:	10000226 	beq	r2,zero,3734 <btc_b58check+0x9c>
        return -1;
    372c:	00bfffc4 	movi	r2,-1
    3730:	00002806 	br	37d4 <btc_b58check+0x13c>
    }

    // Check number of zeros is correct AFTER verifying checksum (to avoid possibility of accessing base58str beyond the end)
    for (i = 0; binc[i] == '\0' && base58str[i] == '1'; ++i) {
    3734:	e03ff315 	stw	zero,-52(fp)
    3738:	00000306 	br	3748 <btc_b58check+0xb0>
    373c:	e0bff317 	ldw	r2,-52(fp)
    3740:	10800044 	addi	r2,r2,1
    3744:	e0bff315 	stw	r2,-52(fp)
    3748:	e0fff417 	ldw	r3,-48(fp)
    374c:	e0bff317 	ldw	r2,-52(fp)
    3750:	1885883a 	add	r2,r3,r2
    3754:	10800003 	ldbu	r2,0(r2)
    3758:	10803fcc 	andi	r2,r2,255
    375c:	1000091e 	bne	r2,zero,3784 <btc_b58check+0xec>
    3760:	e0ffff17 	ldw	r3,-4(fp)
    3764:	e0bff317 	ldw	r2,-52(fp)
    3768:	1885883a 	add	r2,r3,r2
    376c:	10800003 	ldbu	r2,0(r2)
    3770:	10803fcc 	andi	r2,r2,255
    3774:	1080201c 	xori	r2,r2,128
    3778:	10bfe004 	addi	r2,r2,-128
    377c:	10800c60 	cmpeqi	r2,r2,49
    3780:	103fee1e 	bne	r2,zero,373c <__alt_mem_epcs_flash_controller+0xfdff273c>
    } // Just finding the end of zeros, nothing to do in loop
    if (binc[i] == '\0' || base58str[i] == '1') {
    3784:	e0fff417 	ldw	r3,-48(fp)
    3788:	e0bff317 	ldw	r2,-52(fp)
    378c:	1885883a 	add	r2,r3,r2
    3790:	10800003 	ldbu	r2,0(r2)
    3794:	10803fcc 	andi	r2,r2,255
    3798:	10000926 	beq	r2,zero,37c0 <btc_b58check+0x128>
    379c:	e0ffff17 	ldw	r3,-4(fp)
    37a0:	e0bff317 	ldw	r2,-52(fp)
    37a4:	1885883a 	add	r2,r3,r2
    37a8:	10800003 	ldbu	r2,0(r2)
    37ac:	10803fcc 	andi	r2,r2,255
    37b0:	1080201c 	xori	r2,r2,128
    37b4:	10bfe004 	addi	r2,r2,-128
    37b8:	10800c58 	cmpnei	r2,r2,49
    37bc:	1000021e 	bne	r2,zero,37c8 <btc_b58check+0x130>
        return -3;
    37c0:	00bfff44 	movi	r2,-3
    37c4:	00000306 	br	37d4 <btc_b58check+0x13c>
    }

    return binc[0];
    37c8:	e0bff417 	ldw	r2,-48(fp)
    37cc:	10800003 	ldbu	r2,0(r2)
    37d0:	10803fcc 	andi	r2,r2,255
}
    37d4:	e037883a 	mov	sp,fp
    37d8:	dfc00117 	ldw	ra,4(sp)
    37dc:	df000017 	ldw	fp,0(sp)
    37e0:	dec00204 	addi	sp,sp,8
    37e4:	f800283a 	ret

000037e8 <btc_base58_encode>:

static const char b58digits_ordered[] =
    "123456789ABCDEFGHJKLMNPQRSTUVWXYZabcdefghijkmnopqrstuvwxyz";

int btc_base58_encode(char* b58, size_t* b58sz, const void* data, size_t binsz)
{
    37e8:	deffe804 	addi	sp,sp,-96
    37ec:	dfc01715 	stw	ra,92(sp)
    37f0:	df001615 	stw	fp,88(sp)
    37f4:	ddc01515 	stw	r23,84(sp)
    37f8:	dd801415 	stw	r22,80(sp)
    37fc:	dd401315 	stw	r21,76(sp)
    3800:	dd001215 	stw	r20,72(sp)
    3804:	dcc01115 	stw	r19,68(sp)
    3808:	dc801015 	stw	r18,64(sp)
    380c:	dc400f15 	stw	r17,60(sp)
    3810:	dc000e15 	stw	r16,56(sp)
    3814:	df001604 	addi	fp,sp,88
    3818:	e13ff315 	stw	r4,-52(fp)
    381c:	e17ff415 	stw	r5,-48(fp)
    3820:	e1bff515 	stw	r6,-44(fp)
    3824:	e1fff615 	stw	r7,-40(fp)
    const uint8_t* bin = data;
    3828:	e0bff517 	ldw	r2,-44(fp)
    382c:	e0bfef15 	stw	r2,-68(fp)
    int carry;
    ssize_t i, j, high, zcount = 0;
    3830:	e03fee15 	stw	zero,-72(fp)
    size_t size;

    while (zcount < (ssize_t)binsz && !bin[zcount]) {
    3834:	00000306 	br	3844 <btc_base58_encode+0x5c>
        ++zcount;
    3838:	e0bfee17 	ldw	r2,-72(fp)
    383c:	10800044 	addi	r2,r2,1
    3840:	e0bfee15 	stw	r2,-72(fp)
    const uint8_t* bin = data;
    int carry;
    ssize_t i, j, high, zcount = 0;
    size_t size;

    while (zcount < (ssize_t)binsz && !bin[zcount]) {
    3844:	e0bff617 	ldw	r2,-40(fp)
    3848:	e0ffee17 	ldw	r3,-72(fp)
    384c:	1880060e 	bge	r3,r2,3868 <btc_base58_encode+0x80>
    3850:	e0bfee17 	ldw	r2,-72(fp)
    3854:	e0ffef17 	ldw	r3,-68(fp)
    3858:	1885883a 	add	r2,r3,r2
    385c:	10800003 	ldbu	r2,0(r2)
    3860:	10803fcc 	andi	r2,r2,255
    3864:	103ff426 	beq	r2,zero,3838 <__alt_mem_epcs_flash_controller+0xfdff2838>
        ++zcount;
    }

    size = (binsz - zcount) * 138 / 100 + 1;
    3868:	e0bfee17 	ldw	r2,-72(fp)
    386c:	e0fff617 	ldw	r3,-40(fp)
    3870:	1885c83a 	sub	r2,r3,r2
    3874:	108022a4 	muli	r2,r2,138
    3878:	01401904 	movi	r5,100
    387c:	1009883a 	mov	r4,r2
    3880:	00457f80 	call	457f8 <__udivsi3>
    3884:	10800044 	addi	r2,r2,1
    3888:	e0bff015 	stw	r2,-64(fp)
    uint8_t buf[size];
    388c:	e0bff017 	ldw	r2,-64(fp)
    3890:	d807883a 	mov	r3,sp
    3894:	e0fff715 	stw	r3,-36(fp)
    3898:	1007883a 	mov	r3,r2
    389c:	18ffffc4 	addi	r3,r3,-1
    38a0:	e0fff115 	stw	r3,-60(fp)
    38a4:	102d883a 	mov	r22,r2
    38a8:	002f883a 	mov	r23,zero
    38ac:	b006d77a 	srli	r3,r22,29
    38b0:	b82690fa 	slli	r19,r23,3
    38b4:	1ce6b03a 	or	r19,r3,r19
    38b8:	b02490fa 	slli	r18,r22,3
    38bc:	1029883a 	mov	r20,r2
    38c0:	002b883a 	mov	r21,zero
    38c4:	a006d77a 	srli	r3,r20,29
    38c8:	a82290fa 	slli	r17,r21,3
    38cc:	1c62b03a 	or	r17,r3,r17
    38d0:	a02090fa 	slli	r16,r20,3
    38d4:	108000c4 	addi	r2,r2,3
    38d8:	1004d0ba 	srli	r2,r2,2
    38dc:	1085883a 	add	r2,r2,r2
    38e0:	1085883a 	add	r2,r2,r2
    38e4:	d8b7c83a 	sub	sp,sp,r2
    38e8:	d805883a 	mov	r2,sp
    38ec:	1005883a 	mov	r2,r2
    38f0:	e0bff215 	stw	r2,-56(fp)
    memset(buf, 0, size);
    38f4:	e0bff217 	ldw	r2,-56(fp)
    38f8:	e1bff017 	ldw	r6,-64(fp)
    38fc:	000b883a 	mov	r5,zero
    3900:	1009883a 	mov	r4,r2
    3904:	0048c8c0 	call	48c8c <memset>

    for (i = zcount, high = size - 1; i < (ssize_t)binsz; ++i, high = j) {
    3908:	e0bfee17 	ldw	r2,-72(fp)
    390c:	e0bfeb15 	stw	r2,-84(fp)
    3910:	e0bff017 	ldw	r2,-64(fp)
    3914:	10bfffc4 	addi	r2,r2,-1
    3918:	e0bfed15 	stw	r2,-76(fp)
    391c:	00002e06 	br	39d8 <btc_base58_encode+0x1f0>
        for (carry = bin[i], j = size - 1; (j > high) || carry; --j) {
    3920:	e0bfeb17 	ldw	r2,-84(fp)
    3924:	e0ffef17 	ldw	r3,-68(fp)
    3928:	1885883a 	add	r2,r3,r2
    392c:	10800003 	ldbu	r2,0(r2)
    3930:	10803fcc 	andi	r2,r2,255
    3934:	e0bfea15 	stw	r2,-88(fp)
    3938:	e0bff017 	ldw	r2,-64(fp)
    393c:	10bfffc4 	addi	r2,r2,-1
    3940:	e0bfec15 	stw	r2,-80(fp)
    3944:	00001a06 	br	39b0 <btc_base58_encode+0x1c8>
            carry += 256 * buf[j];
    3948:	e0fff217 	ldw	r3,-56(fp)
    394c:	e0bfec17 	ldw	r2,-80(fp)
    3950:	1885883a 	add	r2,r3,r2
    3954:	10800003 	ldbu	r2,0(r2)
    3958:	10803fcc 	andi	r2,r2,255
    395c:	1004923a 	slli	r2,r2,8
    3960:	e0ffea17 	ldw	r3,-88(fp)
    3964:	1885883a 	add	r2,r3,r2
    3968:	e0bfea15 	stw	r2,-88(fp)
            buf[j] = carry % 58;
    396c:	e0bfea17 	ldw	r2,-88(fp)
    3970:	01400e84 	movi	r5,58
    3974:	1009883a 	mov	r4,r2
    3978:	00457840 	call	45784 <__modsi3>
    397c:	1009883a 	mov	r4,r2
    3980:	e0fff217 	ldw	r3,-56(fp)
    3984:	e0bfec17 	ldw	r2,-80(fp)
    3988:	1885883a 	add	r2,r3,r2
    398c:	11000005 	stb	r4,0(r2)
            carry /= 58;
    3990:	e0bfea17 	ldw	r2,-88(fp)
    3994:	01400e84 	movi	r5,58
    3998:	1009883a 	mov	r4,r2
    399c:	00457000 	call	45700 <__divsi3>
    39a0:	e0bfea15 	stw	r2,-88(fp)
    size = (binsz - zcount) * 138 / 100 + 1;
    uint8_t buf[size];
    memset(buf, 0, size);

    for (i = zcount, high = size - 1; i < (ssize_t)binsz; ++i, high = j) {
        for (carry = bin[i], j = size - 1; (j > high) || carry; --j) {
    39a4:	e0bfec17 	ldw	r2,-80(fp)
    39a8:	10bfffc4 	addi	r2,r2,-1
    39ac:	e0bfec15 	stw	r2,-80(fp)
    39b0:	e0bfec17 	ldw	r2,-80(fp)
    39b4:	e0ffed17 	ldw	r3,-76(fp)
    39b8:	18bfe316 	blt	r3,r2,3948 <__alt_mem_epcs_flash_controller+0xfdff2948>
    39bc:	e0bfea17 	ldw	r2,-88(fp)
    39c0:	103fe11e 	bne	r2,zero,3948 <__alt_mem_epcs_flash_controller+0xfdff2948>

    size = (binsz - zcount) * 138 / 100 + 1;
    uint8_t buf[size];
    memset(buf, 0, size);

    for (i = zcount, high = size - 1; i < (ssize_t)binsz; ++i, high = j) {
    39c4:	e0bfeb17 	ldw	r2,-84(fp)
    39c8:	10800044 	addi	r2,r2,1
    39cc:	e0bfeb15 	stw	r2,-84(fp)
    39d0:	e0bfec17 	ldw	r2,-80(fp)
    39d4:	e0bfed15 	stw	r2,-76(fp)
    39d8:	e0bff617 	ldw	r2,-40(fp)
    39dc:	e0ffeb17 	ldw	r3,-84(fp)
    39e0:	18bfcf16 	blt	r3,r2,3920 <__alt_mem_epcs_flash_controller+0xfdff2920>
            buf[j] = carry % 58;
            carry /= 58;
        }
    }

    for (j = 0; j < (ssize_t)size && !buf[j]; ++j)
    39e4:	e03fec15 	stw	zero,-80(fp)
    39e8:	00000306 	br	39f8 <btc_base58_encode+0x210>
    39ec:	e0bfec17 	ldw	r2,-80(fp)
    39f0:	10800044 	addi	r2,r2,1
    39f4:	e0bfec15 	stw	r2,-80(fp)
    39f8:	e0bff017 	ldw	r2,-64(fp)
    39fc:	e0ffec17 	ldw	r3,-80(fp)
    3a00:	1880060e 	bge	r3,r2,3a1c <btc_base58_encode+0x234>
    3a04:	e0fff217 	ldw	r3,-56(fp)
    3a08:	e0bfec17 	ldw	r2,-80(fp)
    3a0c:	1885883a 	add	r2,r3,r2
    3a10:	10800003 	ldbu	r2,0(r2)
    3a14:	10803fcc 	andi	r2,r2,255
    3a18:	103ff426 	beq	r2,zero,39ec <__alt_mem_epcs_flash_controller+0xfdff29ec>
        ;

    if (*b58sz <= zcount + size - j) {
    3a1c:	e0bff417 	ldw	r2,-48(fp)
    3a20:	10800017 	ldw	r2,0(r2)
    3a24:	e13fee17 	ldw	r4,-72(fp)
    3a28:	e0fff017 	ldw	r3,-64(fp)
    3a2c:	20c9883a 	add	r4,r4,r3
    3a30:	e0ffec17 	ldw	r3,-80(fp)
    3a34:	20c7c83a 	sub	r3,r4,r3
    3a38:	18800f36 	bltu	r3,r2,3a78 <btc_base58_encode+0x290>
        *b58sz = zcount + size - j + 1;
    3a3c:	e0ffee17 	ldw	r3,-72(fp)
    3a40:	e0bff017 	ldw	r2,-64(fp)
    3a44:	1887883a 	add	r3,r3,r2
    3a48:	e0bfec17 	ldw	r2,-80(fp)
    3a4c:	1885c83a 	sub	r2,r3,r2
    3a50:	10c00044 	addi	r3,r2,1
    3a54:	e0bff417 	ldw	r2,-48(fp)
    3a58:	10c00015 	stw	r3,0(r2)
        memset(buf, 0, size);
    3a5c:	e0bff217 	ldw	r2,-56(fp)
    3a60:	e1bff017 	ldw	r6,-64(fp)
    3a64:	000b883a 	mov	r5,zero
    3a68:	1009883a 	mov	r4,r2
    3a6c:	0048c8c0 	call	48c8c <memset>
        return false;
    3a70:	0005883a 	mov	r2,zero
    3a74:	00002f06 	br	3b34 <btc_base58_encode+0x34c>
    }

    if (zcount) {
    3a78:	e0bfee17 	ldw	r2,-72(fp)
    3a7c:	10000526 	beq	r2,zero,3a94 <btc_base58_encode+0x2ac>
        memset(b58, '1', zcount);
    3a80:	e0bfee17 	ldw	r2,-72(fp)
    3a84:	100d883a 	mov	r6,r2
    3a88:	01400c44 	movi	r5,49
    3a8c:	e13ff317 	ldw	r4,-52(fp)
    3a90:	0048c8c0 	call	48c8c <memset>
    }
    for (i = zcount; j < (ssize_t)size; ++i, ++j) {
    3a94:	e0bfee17 	ldw	r2,-72(fp)
    3a98:	e0bfeb15 	stw	r2,-84(fp)
    3a9c:	00001306 	br	3aec <btc_base58_encode+0x304>
        b58[i] = b58digits_ordered[buf[j]];
    3aa0:	e0bfeb17 	ldw	r2,-84(fp)
    3aa4:	e0fff317 	ldw	r3,-52(fp)
    3aa8:	1887883a 	add	r3,r3,r2
    3aac:	e13ff217 	ldw	r4,-56(fp)
    3ab0:	e0bfec17 	ldw	r2,-80(fp)
    3ab4:	2085883a 	add	r2,r4,r2
    3ab8:	10800003 	ldbu	r2,0(r2)
    3abc:	11003fcc 	andi	r4,r2,255
    3ac0:	008001b4 	movhi	r2,6
    3ac4:	10ae0004 	addi	r2,r2,-18432
    3ac8:	1105883a 	add	r2,r2,r4
    3acc:	10800003 	ldbu	r2,0(r2)
    3ad0:	18800005 	stb	r2,0(r3)
    }

    if (zcount) {
        memset(b58, '1', zcount);
    }
    for (i = zcount; j < (ssize_t)size; ++i, ++j) {
    3ad4:	e0bfeb17 	ldw	r2,-84(fp)
    3ad8:	10800044 	addi	r2,r2,1
    3adc:	e0bfeb15 	stw	r2,-84(fp)
    3ae0:	e0bfec17 	ldw	r2,-80(fp)
    3ae4:	10800044 	addi	r2,r2,1
    3ae8:	e0bfec15 	stw	r2,-80(fp)
    3aec:	e0bff017 	ldw	r2,-64(fp)
    3af0:	e0ffec17 	ldw	r3,-80(fp)
    3af4:	18bfea16 	blt	r3,r2,3aa0 <__alt_mem_epcs_flash_controller+0xfdff2aa0>
        b58[i] = b58digits_ordered[buf[j]];
    }
    b58[i] = '\0';
    3af8:	e0bfeb17 	ldw	r2,-84(fp)
    3afc:	e0fff317 	ldw	r3,-52(fp)
    3b00:	1885883a 	add	r2,r3,r2
    3b04:	10000005 	stb	zero,0(r2)
    *b58sz = i + 1;
    3b08:	e0bfeb17 	ldw	r2,-84(fp)
    3b0c:	10800044 	addi	r2,r2,1
    3b10:	1007883a 	mov	r3,r2
    3b14:	e0bff417 	ldw	r2,-48(fp)
    3b18:	10c00015 	stw	r3,0(r2)

    memset(buf, 0, size);
    3b1c:	e0bff217 	ldw	r2,-56(fp)
    3b20:	e1bff017 	ldw	r6,-64(fp)
    3b24:	000b883a 	mov	r5,zero
    3b28:	1009883a 	mov	r4,r2
    3b2c:	0048c8c0 	call	48c8c <memset>
    return true;
    3b30:	00800044 	movi	r2,1
    3b34:	e6fff717 	ldw	sp,-36(fp)
}
    3b38:	e6fff804 	addi	sp,fp,-32
    3b3c:	dfc00917 	ldw	ra,36(sp)
    3b40:	df000817 	ldw	fp,32(sp)
    3b44:	ddc00717 	ldw	r23,28(sp)
    3b48:	dd800617 	ldw	r22,24(sp)
    3b4c:	dd400517 	ldw	r21,20(sp)
    3b50:	dd000417 	ldw	r20,16(sp)
    3b54:	dcc00317 	ldw	r19,12(sp)
    3b58:	dc800217 	ldw	r18,8(sp)
    3b5c:	dc400117 	ldw	r17,4(sp)
    3b60:	dc000017 	ldw	r16,0(sp)
    3b64:	dec00a04 	addi	sp,sp,40
    3b68:	f800283a 	ret

00003b6c <btc_base58_encode_check>:

int btc_base58_encode_check(const uint8_t* data, int datalen, char* str, int strsize)
{
    3b6c:	defff304 	addi	sp,sp,-52
    3b70:	dfc00c15 	stw	ra,48(sp)
    3b74:	df000b15 	stw	fp,44(sp)
    3b78:	dc400a15 	stw	r17,40(sp)
    3b7c:	dc000915 	stw	r16,36(sp)
    3b80:	df000b04 	addi	fp,sp,44
    3b84:	e13ffa15 	stw	r4,-24(fp)
    3b88:	e17ffb15 	stw	r5,-20(fp)
    3b8c:	e1bffc15 	stw	r6,-16(fp)
    3b90:	e1fffd15 	stw	r7,-12(fp)
    3b94:	d809883a 	mov	r4,sp
    3b98:	2023883a 	mov	r17,r4
    int ret;
    if (datalen > 128) {
    3b9c:	e13ffb17 	ldw	r4,-20(fp)
    3ba0:	21002050 	cmplti	r4,r4,129
    3ba4:	2000021e 	bne	r4,zero,3bb0 <btc_base58_encode_check+0x44>
        return 0;
    3ba8:	0005883a 	mov	r2,zero
    3bac:	00004706 	br	3ccc <btc_base58_encode_check+0x160>
    }
    uint8_t buf[datalen + 32];
    3bb0:	e13ffb17 	ldw	r4,-20(fp)
    3bb4:	24000804 	addi	r16,r4,32
    3bb8:	813fffc4 	addi	r4,r16,-1
    3bbc:	e13ff615 	stw	r4,-40(fp)
    3bc0:	8009883a 	mov	r4,r16
    3bc4:	2019883a 	mov	r12,r4
    3bc8:	001b883a 	mov	r13,zero
    3bcc:	6008d77a 	srli	r4,r12,29
    3bd0:	681290fa 	slli	r9,r13,3
    3bd4:	2252b03a 	or	r9,r4,r9
    3bd8:	601090fa 	slli	r8,r12,3
    3bdc:	8009883a 	mov	r4,r16
    3be0:	2015883a 	mov	r10,r4
    3be4:	0017883a 	mov	r11,zero
    3be8:	5008d77a 	srli	r4,r10,29
    3bec:	580690fa 	slli	r3,r11,3
    3bf0:	20c6b03a 	or	r3,r4,r3
    3bf4:	500490fa 	slli	r2,r10,3
    3bf8:	8005883a 	mov	r2,r16
    3bfc:	108000c4 	addi	r2,r2,3
    3c00:	1004d0ba 	srli	r2,r2,2
    3c04:	1085883a 	add	r2,r2,r2
    3c08:	1085883a 	add	r2,r2,r2
    3c0c:	d8b7c83a 	sub	sp,sp,r2
    3c10:	d805883a 	mov	r2,sp
    3c14:	1005883a 	mov	r2,r2
    3c18:	e0bff715 	stw	r2,-36(fp)
    uint8_t* hash = buf + datalen;
    3c1c:	e0fff717 	ldw	r3,-36(fp)
    3c20:	e0bffb17 	ldw	r2,-20(fp)
    3c24:	1885883a 	add	r2,r3,r2
    3c28:	e0bff815 	stw	r2,-32(fp)
    memcpy(buf, data, datalen);
    3c2c:	e0bff717 	ldw	r2,-36(fp)
    3c30:	e0fffb17 	ldw	r3,-20(fp)
    3c34:	180d883a 	mov	r6,r3
    3c38:	e17ffa17 	ldw	r5,-24(fp)
    3c3c:	1009883a 	mov	r4,r2
    3c40:	00489e80 	call	489e8 <memcpy>
    sha256_Raw(data, datalen, hash);
    3c44:	e0bffb17 	ldw	r2,-20(fp)
    3c48:	e1bff817 	ldw	r6,-32(fp)
    3c4c:	100b883a 	mov	r5,r2
    3c50:	e13ffa17 	ldw	r4,-24(fp)
    3c54:	003f9a40 	call	3f9a4 <sha256_Raw>
    sha256_Raw(hash, 32, hash);
    3c58:	e1bff817 	ldw	r6,-32(fp)
    3c5c:	01400804 	movi	r5,32
    3c60:	e13ff817 	ldw	r4,-32(fp)
    3c64:	003f9a40 	call	3f9a4 <sha256_Raw>

    size_t res = strsize;
    3c68:	e0bffd17 	ldw	r2,-12(fp)
    3c6c:	e0bff915 	stw	r2,-28(fp)
    if (btc_base58_encode(str, &res, buf, datalen + 4) != true) {
    3c70:	e0fff717 	ldw	r3,-36(fp)
    3c74:	e0bffb17 	ldw	r2,-20(fp)
    3c78:	10800104 	addi	r2,r2,4
    3c7c:	1009883a 	mov	r4,r2
    3c80:	e0bff904 	addi	r2,fp,-28
    3c84:	200f883a 	mov	r7,r4
    3c88:	180d883a 	mov	r6,r3
    3c8c:	100b883a 	mov	r5,r2
    3c90:	e13ffc17 	ldw	r4,-16(fp)
    3c94:	00037e80 	call	37e8 <btc_base58_encode>
    3c98:	10800060 	cmpeqi	r2,r2,1
    3c9c:	1000021e 	bne	r2,zero,3ca8 <btc_base58_encode_check+0x13c>
        ret = 0;
    3ca0:	e03ff515 	stw	zero,-44(fp)
    3ca4:	00000206 	br	3cb0 <btc_base58_encode_check+0x144>
    } else {
        ret = res;
    3ca8:	e0bff917 	ldw	r2,-28(fp)
    3cac:	e0bff515 	stw	r2,-44(fp)
    }
    memset(buf, 0, sizeof(buf));
    3cb0:	e0bff717 	ldw	r2,-36(fp)
    3cb4:	8007883a 	mov	r3,r16
    3cb8:	180d883a 	mov	r6,r3
    3cbc:	000b883a 	mov	r5,zero
    3cc0:	1009883a 	mov	r4,r2
    3cc4:	0048c8c0 	call	48c8c <memset>
    return ret;
    3cc8:	e0bff517 	ldw	r2,-44(fp)
    3ccc:	8837883a 	mov	sp,r17
}
    3cd0:	e6fffe04 	addi	sp,fp,-8
    3cd4:	dfc00317 	ldw	ra,12(sp)
    3cd8:	df000217 	ldw	fp,8(sp)
    3cdc:	dc400117 	ldw	r17,4(sp)
    3ce0:	dc000017 	ldw	r16,0(sp)
    3ce4:	dec00404 	addi	sp,sp,16
    3ce8:	f800283a 	ret

00003cec <btc_base58_decode_check>:

int btc_base58_decode_check(const char* str, uint8_t* data, size_t datalen)
{
    3cec:	defff804 	addi	sp,sp,-32
    3cf0:	dfc00715 	stw	ra,28(sp)
    3cf4:	df000615 	stw	fp,24(sp)
    3cf8:	df000604 	addi	fp,sp,24
    3cfc:	e13ffd15 	stw	r4,-12(fp)
    3d00:	e17ffe15 	stw	r5,-8(fp)
    3d04:	e1bfff15 	stw	r6,-4(fp)
    int ret;
    size_t strl = strlen(str);
    3d08:	e13ffd17 	ldw	r4,-12(fp)
    3d0c:	0049cc80 	call	49cc8 <strlen>
    3d10:	e0bffb15 	stw	r2,-20(fp)

    /* buffer needs to be at least the strsize, will be used
       for the whole decoding */
    if (strl > 128 || datalen < strl) {
    3d14:	e0bffb17 	ldw	r2,-20(fp)
    3d18:	10802068 	cmpgeui	r2,r2,129
    3d1c:	1000031e 	bne	r2,zero,3d2c <btc_base58_decode_check+0x40>
    3d20:	e0ffff17 	ldw	r3,-4(fp)
    3d24:	e0bffb17 	ldw	r2,-20(fp)
    3d28:	1880022e 	bgeu	r3,r2,3d34 <btc_base58_decode_check+0x48>
        return 0;
    3d2c:	0005883a 	mov	r2,zero
    3d30:	00002806 	br	3dd4 <btc_base58_decode_check+0xe8>
    }

    size_t binsize = strl;
    3d34:	e0bffb17 	ldw	r2,-20(fp)
    3d38:	e0bffc15 	stw	r2,-16(fp)
    if (btc_base58_decode(data, &binsize, str) != true) {
    3d3c:	e0bffc04 	addi	r2,fp,-16
    3d40:	e1bffd17 	ldw	r6,-12(fp)
    3d44:	100b883a 	mov	r5,r2
    3d48:	e13ffe17 	ldw	r4,-8(fp)
    3d4c:	00030e80 	call	30e8 <btc_base58_decode>
    3d50:	10800060 	cmpeqi	r2,r2,1
    3d54:	1000011e 	bne	r2,zero,3d5c <btc_base58_decode_check+0x70>
        ret = 0;
    3d58:	e03ffa15 	stw	zero,-24(fp)
    }

    memmove(data, data + strl - binsize, binsize);
    3d5c:	e0bffc17 	ldw	r2,-16(fp)
    3d60:	e0fffb17 	ldw	r3,-20(fp)
    3d64:	1885c83a 	sub	r2,r3,r2
    3d68:	e0fffe17 	ldw	r3,-8(fp)
    3d6c:	1885883a 	add	r2,r3,r2
    3d70:	e0fffc17 	ldw	r3,-16(fp)
    3d74:	180d883a 	mov	r6,r3
    3d78:	100b883a 	mov	r5,r2
    3d7c:	e13ffe17 	ldw	r4,-8(fp)
    3d80:	0048b300 	call	48b30 <memmove>
    memset(data + binsize, 0, datalen - binsize);
    3d84:	e0bffc17 	ldw	r2,-16(fp)
    3d88:	e0fffe17 	ldw	r3,-8(fp)
    3d8c:	1889883a 	add	r4,r3,r2
    3d90:	e0bffc17 	ldw	r2,-16(fp)
    3d94:	e0ffff17 	ldw	r3,-4(fp)
    3d98:	1885c83a 	sub	r2,r3,r2
